
nios_knn.elf:     file format elf32-littlenios2
nios_knn.elf
architecture: nios2:r1, flags 0x00000112:
EXEC_P, HAS_SYMS, D_PAGED
start address 0x00000224

Program Header:
    LOAD off    0x00001000 vaddr 0x00000000 paddr 0x00000000 align 2**12
         filesz 0x00000020 memsz 0x00000020 flags r-x
    LOAD off    0x00001020 vaddr 0x00000020 paddr 0x00000020 align 2**12
         filesz 0x00010198 memsz 0x00010198 flags r-x
    LOAD off    0x000111b8 vaddr 0x000101b8 paddr 0x00011e24 align 2**12
         filesz 0x00001c6c memsz 0x00001c6c flags rw-
    LOAD off    0x00013a90 vaddr 0x00013a90 paddr 0x00013a90 align 2**12
         filesz 0x00000000 memsz 0x00000168 flags rw-

Sections:
Idx Name          Size      VMA       LMA       File off  Algn
  0 .entry        00000020  00000000  00000000  00001000  2**5
                  CONTENTS, ALLOC, LOAD, READONLY, CODE
  1 .exceptions   00000204  00000020  00000020  00001020  2**2
                  CONTENTS, ALLOC, LOAD, READONLY, CODE
  2 .text         0000f8f0  00000224  00000224  00001224  2**2
                  CONTENTS, ALLOC, LOAD, READONLY, CODE
  3 .rodata       000006a4  0000fb14  0000fb14  00010b14  2**2
                  CONTENTS, ALLOC, LOAD, READONLY, DATA
  4 .rwdata       00001c6c  000101b8  00011e24  000111b8  2**2
                  CONTENTS, ALLOC, LOAD, DATA, SMALL_DATA
  5 .bss          00000168  00013a90  00013a90  00013a90  2**2
                  ALLOC, SMALL_DATA
  6 .onchip_memory2_0 00000000  00013bf8  00013bf8  00012e24  2**0
                  CONTENTS
  7 .comment      0000002c  00000000  00000000  00012e24  2**0
                  CONTENTS, READONLY
  8 .debug_aranges 00000f98  00000000  00000000  00012e50  2**3
                  CONTENTS, READONLY, DEBUGGING
  9 .debug_info   00049fcb  00000000  00000000  00013de8  2**0
                  CONTENTS, READONLY, DEBUGGING
 10 .debug_abbrev 0000ee27  00000000  00000000  0005ddb3  2**0
                  CONTENTS, READONLY, DEBUGGING
 11 .debug_line   00018483  00000000  00000000  0006cbda  2**0
                  CONTENTS, READONLY, DEBUGGING
 12 .debug_frame  000021bc  00000000  00000000  00085060  2**2
                  CONTENTS, READONLY, DEBUGGING
 13 .debug_str    00004064  00000000  00000000  0008721c  2**0
                  CONTENTS, READONLY, DEBUGGING
 14 .debug_loc    0001cef9  00000000  00000000  0008b280  2**0
                  CONTENTS, READONLY, DEBUGGING
 15 .debug_alt_sim_info 00000010  00000000  00000000  000a817c  2**2
                  CONTENTS, READONLY, DEBUGGING
 16 .debug_ranges 00001ce8  00000000  00000000  000a8190  2**3
                  CONTENTS, READONLY, DEBUGGING
 17 .thread_model 00000003  00000000  00000000  000ad08f  2**0
                  CONTENTS, READONLY
 18 .cpu          0000000c  00000000  00000000  000ad092  2**0
                  CONTENTS, READONLY
 19 .qsys         00000001  00000000  00000000  000ad09e  2**0
                  CONTENTS, READONLY
 20 .simulation_enabled 00000001  00000000  00000000  000ad09f  2**0
                  CONTENTS, READONLY
 21 .stderr_dev   0000000b  00000000  00000000  000ad0a0  2**0
                  CONTENTS, READONLY
 22 .stdin_dev    0000000b  00000000  00000000  000ad0ab  2**0
                  CONTENTS, READONLY
 23 .stdout_dev   0000000b  00000000  00000000  000ad0b6  2**0
                  CONTENTS, READONLY
 24 .sopc_system_name 0000000c  00000000  00000000  000ad0c1  2**0
                  CONTENTS, READONLY
 25 .quartus_project_dir 0000004a  00000000  00000000  000ad0cd  2**0
                  CONTENTS, READONLY
SYMBOL TABLE:
00000000 l    d  .entry	00000000 .entry
00000020 l    d  .exceptions	00000000 .exceptions
00000224 l    d  .text	00000000 .text
0000fb14 l    d  .rodata	00000000 .rodata
000101b8 l    d  .rwdata	00000000 .rwdata
00013a90 l    d  .bss	00000000 .bss
00013bf8 l    d  .onchip_memory2_0	00000000 .onchip_memory2_0
00000000 l    d  .comment	00000000 .comment
00000000 l    d  .debug_aranges	00000000 .debug_aranges
00000000 l    d  .debug_info	00000000 .debug_info
00000000 l    d  .debug_abbrev	00000000 .debug_abbrev
00000000 l    d  .debug_line	00000000 .debug_line
00000000 l    d  .debug_frame	00000000 .debug_frame
00000000 l    d  .debug_str	00000000 .debug_str
00000000 l    d  .debug_loc	00000000 .debug_loc
00000000 l    d  .debug_alt_sim_info	00000000 .debug_alt_sim_info
00000000 l    d  .debug_ranges	00000000 .debug_ranges
00000000 l    df *ABS*	00000000 c:/Users/nothi/Documents/Quartus/ECE541FinalProject/FinalProject/synthesis/software/nios_knn_bsp//obj/HAL/src/crt0.o
0000025c l       .text	00000000 alt_after_alt_main
00000000 l    df *ABS*	00000000 alt_irq_handler.c
00000000 l    df *ABS*	00000000 alt_instruction_exception_entry.c
00000000 l    df *ABS*	00000000 nios_knn.c
000101b8 l     O .rwdata	00000040 flowers.3023
000101f8 l     O .rwdata	00000040 strs.3030
00013ac0 l     O .bss	00000010 attributes.3031
00000000 l    df *ABS*	00000000 atoi.c
00000000 l    df *ABS*	00000000 fgets.c
00000000 l    df *ABS*	00000000 findfp.c
000006a0 l     F .text	00000008 __fp_lock
000006b4 l     F .text	00000168 __sinit.part.0
0000081c l     F .text	00000008 __fp_unlock
00000000 l    df *ABS*	00000000 fwalk.c
00000000 l    df *ABS*	00000000 impure.c
00010238 l     O .rwdata	00000424 impure_data
00000000 l    df *ABS*	00000000 mallocr.c
00000000 l    df *ABS*	00000000 memchr.c
00000000 l    df *ABS*	00000000 memcpy.c
00000000 l    df *ABS*	00000000 memset.c
00000000 l    df *ABS*	00000000 printf.c
00000000 l    df *ABS*	00000000 puts.c
00000000 l    df *ABS*	00000000 refill.c
0000175c l     F .text	0000001c lflush
00000000 l    df *ABS*	00000000 sbrkr.c
00000000 l    df *ABS*	00000000 stdio.c
00000000 l    df *ABS*	00000000 strlen.c
00000000 l    df *ABS*	00000000 strtol.c
00001b74 l     F .text	0000023c _strtol_l.isra.0
00000000 l    df *ABS*	00000000 vfprintf.c
00003f84 l     F .text	000000c0 __sbprintf
0000fc8e l     O .rodata	00000010 blanks.5226
0000fc7e l     O .rodata	00000010 zeroes.5227
00000000 l    df *ABS*	00000000 writer.c
00000000 l    df *ABS*	00000000 wsetup.c
00000000 l    df *ABS*	00000000 closer.c
00000000 l    df *ABS*	00000000 ctype_.c
00000000 l    df *ABS*	00000000 dtoa.c
00004260 l     F .text	00000234 quorem
00000000 l    df *ABS*	00000000 fclose.c
00000000 l    df *ABS*	00000000 fflush.c
00000000 l    df *ABS*	00000000 mallocr.c
00000000 l    df *ABS*	00000000 fvwrite.c
00000000 l    df *ABS*	00000000 int_errno.c
00000000 l    df *ABS*	00000000 localeconv.c
00000000 l    df *ABS*	00000000 lseekr.c
00000000 l    df *ABS*	00000000 makebuf.c
00000000 l    df *ABS*	00000000 memmove.c
00000000 l    df *ABS*	00000000 mprec.c
0000ff30 l     O .rodata	0000000c p05.4024
00000000 l    df *ABS*	00000000 readr.c
00000000 l    df *ABS*	00000000 mallocr.c
00000000 l    df *ABS*	00000000 vfprintf.c
000081c8 l     F .text	000000f4 __sprint_r.part.0
00009628 l     F .text	000000c0 __sbprintf
00010064 l     O .rodata	00000010 blanks.5203
00010054 l     O .rodata	00000010 zeroes.5204
00000000 l    df *ABS*	00000000 mallocr.c
00000000 l    df *ABS*	00000000 fputwc.c
00000000 l    df *ABS*	00000000 fstatr.c
00000000 l    df *ABS*	00000000 isattyr.c
00000000 l    df *ABS*	00000000 locale.c
00000000 l    df *ABS*	00000000 mbtowc_r.c
00000000 l    df *ABS*	00000000 strcmp.c
00000000 l    df *ABS*	00000000 wbuf.c
00000000 l    df *ABS*	00000000 wcrtomb.c
00000000 l    df *ABS*	00000000 wctomb_r.c
00000000 l    df *ABS*	00000000 libgcc2.c
00000000 l    df *ABS*	00000000 libgcc2.c
00000000 l    df *ABS*	00000000 lib2-divmod.c
00000000 l    df *ABS*	00000000 lib2-mul.c
00000000 l    df *ABS*	00000000 adddf3.c
00000000 l    df *ABS*	00000000 divdf3.c
00000000 l    df *ABS*	00000000 eqdf2.c
00000000 l    df *ABS*	00000000 gedf2.c
00000000 l    df *ABS*	00000000 ledf2.c
00000000 l    df *ABS*	00000000 muldf3.c
00000000 l    df *ABS*	00000000 subdf3.c
00000000 l    df *ABS*	00000000 unorddf2.c
00000000 l    df *ABS*	00000000 fixdfsi.c
00000000 l    df *ABS*	00000000 floatsidf.c
00000000 l    df *ABS*	00000000 floatunsidf.c
00000000 l    df *ABS*	00000000 libgcc2.c
00000000 l    df *ABS*	00000000 libgcc2.c
00000000 l    df *ABS*	00000000 alt_close.c
0000d59c l     F .text	0000003c alt_get_errno
00000000 l    df *ABS*	00000000 alt_dev.c
0000d6b4 l     F .text	0000002c alt_dev_null_write
00000000 l    df *ABS*	00000000 alt_errno.c
00000000 l    df *ABS*	00000000 alt_fstat.c
0000d6e0 l     F .text	0000003c alt_get_errno
00000000 l    df *ABS*	00000000 alt_isatty.c
0000d7d8 l     F .text	0000003c alt_get_errno
00000000 l    df *ABS*	00000000 alt_load.c
0000d8c4 l     F .text	00000068 alt_load_section
00000000 l    df *ABS*	00000000 alt_lseek.c
0000d9b0 l     F .text	0000003c alt_get_errno
00000000 l    df *ABS*	00000000 alt_main.c
00000000 l    df *ABS*	00000000 alt_malloc_lock.c
00000000 l    df *ABS*	00000000 alt_read.c
0000db90 l     F .text	0000003c alt_get_errno
00000000 l    df *ABS*	00000000 alt_release_fd.c
00000000 l    df *ABS*	00000000 alt_sbrk.c
00011e14 l     O .rwdata	00000004 heap_end
00000000 l    df *ABS*	00000000 alt_write.c
0000ddf4 l     F .text	0000003c alt_get_errno
00000000 l    df *ABS*	00000000 alt_sys_init.c
0000df34 l     F .text	00000034 alt_dev_reg
00010d78 l     O .rwdata	00001060 jtag_uart_0
00000000 l    df *ABS*	00000000 altera_avalon_jtag_uart_fd.c
00000000 l    df *ABS*	00000000 altera_avalon_jtag_uart_init.c
0000e20c l     F .text	00000204 altera_avalon_jtag_uart_irq
0000e410 l     F .text	000000a0 altera_avalon_jtag_uart_timeout
00000000 l    df *ABS*	00000000 altera_avalon_jtag_uart_ioctl.c
00000000 l    df *ABS*	00000000 altera_avalon_jtag_uart_read.c
00000000 l    df *ABS*	00000000 altera_avalon_jtag_uart_write.c
00000000 l    df *ABS*	00000000 alt_alarm_start.c
00000000 l    df *ABS*	00000000 alt_dcache_flush_all.c
00000000 l    df *ABS*	00000000 alt_dev_llist_insert.c
0000eb98 l     F .text	0000003c alt_get_errno
00000000 l    df *ABS*	00000000 alt_do_ctors.c
00000000 l    df *ABS*	00000000 alt_do_dtors.c
00000000 l    df *ABS*	00000000 alt_icache_flush_all.c
00000000 l    df *ABS*	00000000 alt_iic.c
00000000 l    df *ABS*	00000000 alt_iic_isr_register.c
00000000 l    df *ABS*	00000000 alt_io_redirect.c
0000efec l     F .text	000000d4 alt_open_fd
00000000 l    df *ABS*	00000000 alt_irq_vars.c
00000000 l    df *ABS*	00000000 alt_open.c
0000f13c l     F .text	0000003c alt_get_errno
0000f178 l     F .text	000000dc alt_file_locked
00000000 l    df *ABS*	00000000 alt_tick.c
00000000 l    df *ABS*	00000000 altera_nios2_gen2_irq.c
00000000 l    df *ABS*	00000000 alt_find_dev.c
00000000 l    df *ABS*	00000000 alt_find_file.c
00000000 l    df *ABS*	00000000 alt_get_fd.c
00000000 l    df *ABS*	00000000 atexit.c
00000000 l    df *ABS*	00000000 exit.c
00000000 l    df *ABS*	00000000 memcmp.c
00000000 l    df *ABS*	00000000 __atexit.c
00000000 l    df *ABS*	00000000 __call_atexit.c
00000000 l    df *ABS*	00000000 alt_exit.c
00013abc g     O .bss	00000004 alt_instruction_exception_handler
000079e4 g     F .text	00000074 _mprec_log10
00007ac4 g     F .text	00000074 __any_on
00009a04 g     F .text	00000058 _isatty_r
0000ff3c g     O .rodata	00000028 __mprec_tinytens
0000dacc g     F .text	0000007c alt_main
00001680 g     F .text	000000cc _puts_r
00013af8 g     O .bss	00000100 alt_irq
00006820 g     F .text	00000064 _lseek_r
00011e24 g       *ABS*	00000000 __flash_rwdata_start
0000bf64 g     F .text	00000080 .hidden __eqdf2
00013bf8 g       *ABS*	00000000 __alt_heap_start
00001648 g     F .text	00000038 printf
00009d70 g     F .text	0000006c _wcrtomb_r
000002ac g     F .text	000000a4 printClassificationResult
00001a78 g     F .text	0000005c __sseek
000009ac g     F .text	00000010 __sinit
00009c14 g     F .text	00000148 __swbuf_r
00009a5c g     F .text	00000070 _setlocale_r
00000824 g     F .text	00000078 __sfmoreglue
0000db6c g     F .text	00000024 __malloc_unlock
00006a58 g     F .text	0000012c memmove
00000998 g     F .text	00000014 _cleanup
00006b84 g     F .text	000000a4 _Balloc
0000bfe4 g     F .text	000000f0 .hidden __gtdf2
0000f558 g     F .text	00000024 altera_nios2_gen2_irq_init
00000350 g     F .text	000000d0 getAttributesFromUser
00000000 g     F .entry	0000000c __reset
00006800 g     F .text	00000008 __localeconv_l
00000020 g       *ABS*	00000000 __flash_exceptions_start
000099a4 g     F .text	00000060 _fstat_r
00013a9c g     O .bss	00000004 errno
000019f0 g     F .text	00000008 __seofread
00013aa8 g     O .bss	00000004 alt_argv
00019dd8 g       *ABS*	00000000 _gp
00000688 g     F .text	00000018 fgets
00010bf8 g     O .rwdata	00000180 alt_fd_list
00000260 g     F .text	0000004c resolveToFlower
0000f57c g     F .text	00000090 alt_find_dev
00001428 g     F .text	00000100 memcpy
000006a8 g     F .text	0000000c _cleanup_r
0000d3e4 g     F .text	000000c8 .hidden __floatsidf
0000f0c0 g     F .text	0000007c alt_io_redirect
0000c0d4 g     F .text	000000f0 .hidden __ltdf2
0000fb14 g       *ABS*	00000000 __DTOR_END__
0000174c g     F .text	00000010 puts
0000f7cc g     F .text	00000098 alt_exception_cause_generated_bad_addr
00007940 g     F .text	000000a4 __ratio
00009610 g     F .text	00000018 __vfiprintf_internal
0000e60c g     F .text	0000021c altera_avalon_jtag_uart_read
00001618 g     F .text	00000030 _printf_r
00000000 g       *ABS*	00000000 __alt_mem_onchip_memory2_0
0000ab78 g     F .text	00000064 .hidden __udivsi3
0000d814 g     F .text	000000b0 isatty
0000ff8c g     O .rodata	000000c8 __mprec_tens
00013a98 g     O .bss	00000004 __malloc_top_pad
00006808 g     F .text	0000000c _localeconv_r
00006fac g     F .text	00000034 __i2b
0000632c g     F .text	000004d4 __sfvwrite_r
00001944 g     F .text	00000058 _sbrk_r
00007b38 g     F .text	00000064 _read_r
00011e0c g     O .rwdata	00000004 alt_max_fd
00005b5c g     F .text	000000f8 _fclose_r
00005eec g     F .text	00000028 fflush
00013a94 g     O .bss	00000004 __malloc_max_sbrked_mem
0000ac60 g     F .text	000009a0 .hidden __adddf3
000076f4 g     F .text	00000104 __b2d
0000a4b8 g     F .text	000005c8 .hidden __umoddi3
0000d9ec g     F .text	000000e0 lseek
00011dec g     O .rwdata	00000004 _global_impure_ptr
00007b9c g     F .text	0000062c _realloc_r
00013bf8 g       *ABS*	00000000 __bss_end
0000ef08 g     F .text	000000e4 alt_iic_isr_register
00001db4 g     F .text	00000018 strtol_l
0000f450 g     F .text	00000108 alt_tick
00009e9c g     F .text	0000061c .hidden __udivdi3
00009904 g     F .text	00000024 _fputwc_r
0000ff64 g     O .rodata	00000028 __mprec_bigtens
00006d88 g     F .text	00000110 __s2b
0000d4ac g     F .text	0000009c .hidden __floatunsidf
00007484 g     F .text	00000058 __mcmp
000009cc g     F .text	00000014 __fp_lock_all
0000eebc g     F .text	0000004c alt_ic_irq_enabled
0000f3b4 g     F .text	0000009c alt_alarm_stop
00001dcc g     F .text	00000018 strtol
00013ab0 g     O .bss	00000004 alt_irq_active
000000fc g     F .exceptions	000000c8 alt_irq_handler
00010bd0 g     O .rwdata	00000028 alt_dev_null
0000eb78 g     F .text	00000020 alt_dcache_flush_all
00006e98 g     F .text	00000064 __hi0bits
0000d364 g     F .text	00000080 .hidden __fixdfsi
00011e24 g       *ABS*	00000000 __ram_rwdata_end
00011e04 g     O .rwdata	00000008 alt_dev_list
0000de30 g     F .text	00000104 write
000101b8 g       *ABS*	00000000 __ram_rodata_end
0000d71c g     F .text	000000bc fstat
0000c0d4 g     F .text	000000f0 .hidden __ledf2
00007220 g     F .text	00000128 __pow5mult
000082d4 g     F .text	0000133c ___vfiprintf_internal_r
0000abdc g     F .text	0000005c .hidden __umodsi3
00013bf8 g       *ABS*	00000000 end
00011dd8 g     O .rwdata	00000004 leds
0000050c g     F .text	0000000c _atoi_r
0000e14c g     F .text	000000c0 altera_avalon_jtag_uart_init
000001c4 g     F .exceptions	00000060 alt_instruction_exception_entry
0000fb14 g       *ABS*	00000000 __CTOR_LIST__
0001f400 g       *ABS*	00000000 __alt_stack_pointer
0000d548 g     F .text	00000054 .hidden __clzsi2
0000e828 g     F .text	00000224 altera_avalon_jtag_uart_write
000009bc g     F .text	00000004 __sfp_lock_acquire
00001340 g     F .text	000000e8 memchr
00001de4 g     F .text	00002188 ___vfprintf_internal_r
00006030 g     F .text	000002fc _free_r
0000fd9f g     O .rodata	00000180 _ctype_b
00009acc g     F .text	0000000c __locale_mb_cur_max
0000f9c8 g     F .text	00000118 __call_exitprocs
00011df4 g     O .rwdata	00000004 __malloc_sbrk_base
00000224 g     F .text	0000003c _start
00013ab4 g     O .bss	00000004 _alt_tick_rate
00007348 g     F .text	0000013c __lshift
00013ab8 g     O .bss	00000004 _alt_nticks
0000dbcc g     F .text	00000108 read
0000dfa0 g     F .text	00000048 alt_sys_init
00011de0 g     O .rwdata	00000004 btns
0000f938 g     F .text	00000090 __register_exitproc
00006fe0 g     F .text	00000240 __multiply
0000e4b0 g     F .text	00000068 altera_avalon_jtag_uart_close
0000ac38 g     F .text	00000028 .hidden __mulsi3
000101b8 g       *ABS*	00000000 __ram_rwdata_start
0000fb14 g       *ABS*	00000000 __ram_rodata_start
00013ad0 g     O .bss	00000028 __malloc_current_mallinfo
000077f8 g     F .text	00000148 __d2b
0000dfe8 g     F .text	00000060 altera_avalon_jtag_uart_read_fd
0000f714 g     F .text	000000b8 alt_get_fd
00004208 g     F .text	00000058 _close_r
0000f8ac g     F .text	0000008c memcmp
0000e0a8 g     F .text	00000050 altera_avalon_jtag_uart_close_fd
00013bf8 g       *ABS*	00000000 __alt_stack_base
0000e0f8 g     F .text	00000054 altera_avalon_jtag_uart_ioctl_fd
000040a8 g     F .text	00000160 __swsetup_r
0000b600 g     F .text	00000964 .hidden __divdf3
0000089c g     F .text	000000fc __sfp
00007a58 g     F .text	0000006c __copybits
0001065c g     O .rwdata	00000408 __malloc_av_
000009c8 g     F .text	00000004 __sinit_lock_release
0000c1c4 g     F .text	000007e0 .hidden __muldf3
0000199c g     F .text	00000054 __sread
00011de4 g     O .rwdata	00000004 nios_input
0000f60c g     F .text	00000108 alt_find_file
0000ebd4 g     F .text	000000a4 alt_dev_llist_insert
0000db48 g     F .text	00000024 __malloc_lock
0000dd44 g     F .text	000000b0 sbrk
00005e8c g     F .text	00000060 _fflush_r
000096e8 g     F .text	000000cc _calloc_r
00013a90 g       *ABS*	00000000 __bss_start
00001528 g     F .text	000000f0 memset
00011de8 g     O .rwdata	00000004 nios_output
00000420 g     F .text	000000e0 main
00013aac g     O .bss	00000004 alt_envp
00013a90 g     O .bss	00000004 __malloc_max_total_mem
0000e048 g     F .text	00000060 altera_avalon_jtag_uart_write_fd
00009d5c g     F .text	00000014 __swbuf
00001ad4 g     F .text	00000008 __sclose
0001f400 g       *ABS*	00000000 __alt_heap_limit
00005c54 g     F .text	00000010 fclose
00001db0 g     F .text	00000004 _strtol_r
00004494 g     F .text	000016c8 _dtoa_r
00000b4c g     F .text	000007f4 _malloc_r
00009e6c g     F .text	00000030 __ascii_wctomb
00011e10 g     O .rwdata	00000004 alt_errno
000009f4 g     F .text	000000a4 _fwalk
00000518 g     F .text	00000170 _fgets_r
00009aec g     F .text	0000000c _mbtowc_r
0000aa80 g     F .text	00000080 .hidden __divsi3
00005f14 g     F .text	0000011c _malloc_trim_r
0000fb14 g       *ABS*	00000000 __CTOR_END__
00009b3c g     F .text	000000d8 strcmp
0000fb14 g       *ABS*	00000000 __flash_rodata_start
0000fb14 g       *ABS*	00000000 __DTOR_LIST__
0000bf64 g     F .text	00000080 .hidden __nedf2
0000df68 g     F .text	00000038 alt_irq_init
0000dcd4 g     F .text	00000070 alt_release_fd
00010084 g     O .rodata	00000100 .hidden __clz_tab
00013aa0 g     O .bss	00000004 _PathLocale
0000f864 g     F .text	00000014 atexit
00004044 g     F .text	00000064 _write_r
00009ad8 g     F .text	00000014 setlocale
00011df0 g     O .rwdata	00000004 _impure_ptr
00013aa4 g     O .bss	00000004 alt_argc
00005c64 g     F .text	00000228 __sflush_r
0000ecd8 g     F .text	00000060 _do_dtors
00011ddc g     O .rwdata	00000004 sw
00001778 g     F .text	000001cc __srefill_r
00000020 g       .exceptions	00000000 alt_irq_entry
00009af8 g     F .text	00000044 __ascii_mbtowc
00007698 g     F .text	0000005c __ulp
000009e0 g     F .text	00000014 __fp_unlock_all
00011dfc g     O .rwdata	00000008 alt_fs_list
00000020 g       *ABS*	00000000 __ram_exceptions_start
00006814 g     F .text	0000000c localeconv
00006884 g     F .text	00000098 __swhatbuf_r
0000ed58 g     F .text	00000050 alt_ic_isr_register
00011e24 g       *ABS*	00000000 _edata
00013bf8 g       *ABS*	00000000 _end
000097b4 g     F .text	00000150 __fputwc
00000224 g       *ABS*	00000000 __ram_exceptions_end
0000e518 g     F .text	000000f4 altera_avalon_jtag_uart_ioctl
0000ee30 g     F .text	0000008c alt_ic_irq_disable
000019f8 g     F .text	00000080 __swrite
00011df8 g     O .rwdata	00000004 __malloc_trim_threshold
0000f878 g     F .text	00000034 exit
00000a98 g     F .text	000000b4 _fwalk_reent
000074dc g     F .text	000001bc __mdiff
0000ab00 g     F .text	00000078 .hidden __modsi3
0001f400 g       *ABS*	00000000 __alt_data_end
00000020 g     F .exceptions	00000000 alt_exception
000009c0 g     F .text	00000004 __sfp_lock_release
00000500 g     F .text	0000000c atoi
0000fc9e g     O .rodata	00000101 _ctype_
0000d310 g     F .text	00000054 .hidden __unorddf2
0000fae0 g     F .text	00000034 _exit
0000ea4c g     F .text	0000012c alt_alarm_start
0000691c g     F .text	0000013c __smakebuf_r
00001adc g     F .text	00000098 strlen
0000f254 g     F .text	00000160 open
0000bfe4 g     F .text	000000f0 .hidden __gedf2
000082bc g     F .text	00000018 __sprint_r
0000ed38 g     F .text	00000020 alt_icache_flush_all
00011e18 g     O .rwdata	00000004 alt_priority_mask
0000eda8 g     F .text	00000088 alt_ic_irq_enable
00003f6c g     F .text	00000018 __vfprintf_internal
00009e60 g     F .text	0000000c _wctomb_r
0000c9a4 g     F .text	0000096c .hidden __subdf3
00006efc g     F .text	000000b0 __lo0bits
00011e1c g     O .rwdata	00000008 alt_alarm_list
0000ec78 g     F .text	00000060 _do_ctors
00009ddc g     F .text	00000084 wcrtomb
0000d5d8 g     F .text	000000dc close
00010a64 g     O .rwdata	0000016c __global_locale
0000d92c g     F .text	00000084 alt_load
00009928 g     F .text	0000007c fputwc
000009c4 g     F .text	00000004 __sinit_lock_acquire
00006c4c g     F .text	0000013c __multadd
00006c28 g     F .text	00000024 _Bfree



Disassembly of section .entry:

00000000 <__reset>:
 * Jump to the _start entry point in the .text section if reset code
 * is allowed or if optimizing for RTL simulation.
 */
#if defined(ALT_ALLOW_CODE_AT_RESET) || defined(ALT_SIM_OPTIMIZE)
    /* Jump to the _start entry point in the .text section. */
    movhi r1, %hi(_start)
   0:	00400034 	movhi	at,0
    ori r1, r1, %lo(_start)
   4:	08408914 	ori	at,at,548
    jmp r1
   8:	0800683a 	jmp	at
	...

Disassembly of section .exceptions:

00000020 <alt_exception>:

#else /* ALT_EXCEPTION_STACK disabled */
        /* 
         * Reserve space on normal stack for registers about to be pushed.
         */
        addi  sp, sp, -76
  20:	deffed04 	addi	sp,sp,-76
         * documentation for details).
         *
         * Leave a gap in the stack frame at 4(sp) for the muldiv handler to
         * store zero into.
         */
        stw   ra,  0(sp)
  24:	dfc00015 	stw	ra,0(sp)
        stw   r1,   8(sp)
  28:	d8400215 	stw	at,8(sp)
        stw   r2,  12(sp)
  2c:	d8800315 	stw	r2,12(sp)
        stw   r3,  16(sp)
  30:	d8c00415 	stw	r3,16(sp)
        stw   r4,  20(sp)
  34:	d9000515 	stw	r4,20(sp)
        stw   r5,  24(sp)
  38:	d9400615 	stw	r5,24(sp)
        stw   r6,  28(sp)
  3c:	d9800715 	stw	r6,28(sp)
        stw   r7,  32(sp)
  40:	d9c00815 	stw	r7,32(sp)
        rdctl r5, estatus   /* Read early to avoid usage stall */
  44:	000b307a 	rdctl	r5,estatus
        stw   r8,  36(sp)
  48:	da000915 	stw	r8,36(sp)
        stw   r9,  40(sp)
  4c:	da400a15 	stw	r9,40(sp)
        stw   r10, 44(sp)
  50:	da800b15 	stw	r10,44(sp)
        stw   r11, 48(sp)
  54:	dac00c15 	stw	r11,48(sp)
        stw   r12, 52(sp)
  58:	db000d15 	stw	r12,52(sp)
        stw   r13, 56(sp)
  5c:	db400e15 	stw	r13,56(sp)
        stw   r14, 60(sp)
  60:	db800f15 	stw	r14,60(sp)
        stw   r15, 64(sp)
  64:	dbc01015 	stw	r15,64(sp)
        /*
         * ea-4 contains the address of the instruction being executed
         * when the exception occured. For interrupt exceptions, we will
         * will be re-issue the isntruction. Store it in 72(sp)
         */
        stw   r5,  68(sp)  /* estatus */
  68:	d9401115 	stw	r5,68(sp)
        addi  r15, ea, -4  /* instruction that caused exception */
  6c:	ebffff04 	addi	r15,ea,-4
        stw   r15,  72(sp)
  70:	dbc01215 	stw	r15,72(sp)
#else
        /*
         * Test to see if the exception was a software exception or caused 
         * by an external interrupt, and vector accordingly.
         */
        rdctl r4, ipending
  74:	0009313a 	rdctl	r4,ipending
        andi  r2, r5, 1
  78:	2880004c 	andi	r2,r5,1
        beq   r2, zero, .Lnot_irq
  7c:	10000326 	beq	r2,zero,8c <alt_exception+0x6c>
        beq   r4, zero, .Lnot_irq
  80:	20000226 	beq	r4,zero,8c <alt_exception+0x6c>
        /*
         * Now that all necessary registers have been preserved, call 
         * alt_irq_handler() to process the interrupts.
         */

        call alt_irq_handler
  84:	00000fc0 	call	fc <alt_irq_handler>

        .section .exceptions.irqreturn, "xa"

        br    .Lexception_exit
  88:	00000706 	br	a8 <alt_exception+0x88>
         * upon completion, so we write ea (address of instruction *after*
         * the one where the exception occured) into 72(sp). The actual
         * instruction that caused the exception is written in r2, which these
         * handlers will utilize.
         */
        stw ea, 72(sp) /* EA is PC+4 so will skip over instruction causing exception */
  8c:	df401215 	stw	ea,72(sp)
.Lunknown_16bit:
        addi.n r4, r4, 2 /* Need PC+2 to skip over instruction causing exception */
        stw r4, 72(sp)

#else /* CDX is not Enabled and all instructions are 32bits */
        ldw r2, -4(ea) /* Instruction value that caused exception */
  90:	e8bfff17 	ldw	r2,-4(ea)
         * debugger is present) or go into an infinite loop since the
         * handling behavior is undefined; in that case we will not return here.
         */

        /* Load exception-causing address as first argument (r4) */
        addi   r4, ea, -4
  94:	e93fff04 	addi	r4,ea,-4

        /* Call the instruction-exception entry */
        call   alt_instruction_exception_entry
  98:	00001c40 	call	1c4 <alt_instruction_exception_entry>
         * instruction
         *
         * Return code was 0: Skip. The instruction after the exception is
         * already stored in 72(sp).
         */
        bne   r2, r0, .Lexception_exit
  9c:	1000021e 	bne	r2,zero,a8 <alt_exception+0x88>

        /*
         * Otherwise, modify 72(sp) to re-issue the instruction that caused the
         * exception.
         */
        addi  r15, ea, -4  /* instruction that caused exception */
  a0:	ebffff04 	addi	r15,ea,-4
        stw   r15,  72(sp)
  a4:	dbc01215 	stw	r15,72(sp)
        /* 
         * Restore the saved registers, so that all general purpose registers 
         * have been restored to their state at the time the interrupt occured.
         */

        ldw   r5,  68(sp)
  a8:	d9401117 	ldw	r5,68(sp)
        ldw   ea,  72(sp)  /* This becomes the PC once eret is executed */
  ac:	df401217 	ldw	ea,72(sp)
        ldw   ra,   0(sp)
  b0:	dfc00017 	ldw	ra,0(sp)

        wrctl estatus, r5
  b4:	2801707a 	wrctl	estatus,r5

        ldw   r1,   8(sp)
  b8:	d8400217 	ldw	at,8(sp)
        ldw   r2,  12(sp)
  bc:	d8800317 	ldw	r2,12(sp)
        ldw   r3,  16(sp)
  c0:	d8c00417 	ldw	r3,16(sp)
        ldw   r4,  20(sp)
  c4:	d9000517 	ldw	r4,20(sp)
        ldw   r5,  24(sp)
  c8:	d9400617 	ldw	r5,24(sp)
        ldw   r6,  28(sp)
  cc:	d9800717 	ldw	r6,28(sp)
        ldw   r7,  32(sp)
  d0:	d9c00817 	ldw	r7,32(sp)

#if defined(ALT_EXCEPTION_STACK) && defined(ALT_STACK_CHECK)
        ldw   et, %gprel(alt_exception_old_stack_limit)(gp)
#endif

        ldw   r8,  36(sp)
  d4:	da000917 	ldw	r8,36(sp)
        ldw   r9,  40(sp)
  d8:	da400a17 	ldw	r9,40(sp)
        ldw   r10, 44(sp)
  dc:	da800b17 	ldw	r10,44(sp)
        ldw   r11, 48(sp)
  e0:	dac00c17 	ldw	r11,48(sp)
        ldw   r12, 52(sp)
  e4:	db000d17 	ldw	r12,52(sp)
        ldw   r13, 56(sp)
  e8:	db400e17 	ldw	r13,56(sp)
        ldw   r14, 60(sp)
  ec:	db800f17 	ldw	r14,60(sp)
        ldw   r15, 64(sp)
  f0:	dbc01017 	ldw	r15,64(sp)
        stw   et, %gprel(alt_stack_limit_value)(gp)
        stw   zero, %gprel(alt_exception_old_stack_limit)(gp)
#endif /* ALT_STACK_CHECK */
        ldw   sp,  76(sp)
#else /* ALT_EXCEPTION_STACK disabled */
        addi  sp, sp, 76
  f4:	dec01304 	addi	sp,sp,76

        /*
         * Return to the interrupted instruction.
         */

        eret
  f8:	ef80083a 	eret

000000fc <alt_irq_handler>:
 * instruction is present if the macro ALT_CI_INTERRUPT_VECTOR defined.
 */

void alt_irq_handler (void) __attribute__ ((section (".exceptions")));
void alt_irq_handler (void)
{
  fc:	defff904 	addi	sp,sp,-28
 100:	dfc00615 	stw	ra,24(sp)
 104:	df000515 	stw	fp,20(sp)
 108:	df000504 	addi	fp,sp,20
  
  /*
   * Notify the operating system that we are at interrupt level.
   */ 
  
  ALT_OS_INT_ENTER();
 10c:	0001883a 	nop
#ifndef NIOS2_EIC_PRESENT
static ALT_INLINE alt_u32 ALT_ALWAYS_INLINE alt_irq_pending (void)
{
  alt_u32 active;

  NIOS2_READ_IPENDING (active);
 110:	0005313a 	rdctl	r2,ipending
 114:	e0bffc15 	stw	r2,-16(fp)

  return active;
 118:	e0bffc17 	ldw	r2,-16(fp)
   * Consider the case where the high priority interupt is asserted during
   * the interrupt entry sequence for a lower priority interrupt to see why
   * this is the case.
   */

  active = alt_irq_pending ();
 11c:	e0bfff15 	stw	r2,-4(fp)

  do
  {
    i = 0;
 120:	e03ffd15 	stw	zero,-12(fp)
    mask = 1;
 124:	00800044 	movi	r2,1
 128:	e0bffe15 	stw	r2,-8(fp)
     * called to clear the interrupt condition.
     */

    do
    {
      if (active & mask)
 12c:	e0ffff17 	ldw	r3,-4(fp)
 130:	e0bffe17 	ldw	r2,-8(fp)
 134:	1884703a 	and	r2,r3,r2
 138:	10001126 	beq	r2,zero,180 <alt_irq_handler+0x84>
      { 
#ifdef ALT_ENHANCED_INTERRUPT_API_PRESENT
        alt_irq[i].handler(alt_irq[i].context); 
 13c:	e0bffd17 	ldw	r2,-12(fp)
 140:	100690fa 	slli	r3,r2,3
 144:	00800074 	movhi	r2,1
 148:	1885883a 	add	r2,r3,r2
 14c:	10cebe17 	ldw	r3,15096(r2)
 150:	e0bffd17 	ldw	r2,-12(fp)
 154:	100890fa 	slli	r4,r2,3
 158:	00800074 	movhi	r2,1
 15c:	2085883a 	add	r2,r4,r2
 160:	108ebf17 	ldw	r2,15100(r2)
 164:	1009883a 	mov	r4,r2
 168:	183ee83a 	callr	r3
#else
        alt_irq[i].handler(alt_irq[i].context, i); 
#endif
        break;
 16c:	0001883a 	nop
  NIOS2_READ_IPENDING (active);
 170:	0005313a 	rdctl	r2,ipending
 174:	e0bffb15 	stw	r2,-20(fp)
  return active;
 178:	e0bffb17 	ldw	r2,-20(fp)
 17c:	00000706 	br	19c <alt_irq_handler+0xa0>
      }
      mask <<= 1;
 180:	e0bffe17 	ldw	r2,-8(fp)
 184:	1085883a 	add	r2,r2,r2
 188:	e0bffe15 	stw	r2,-8(fp)
      i++;
 18c:	e0bffd17 	ldw	r2,-12(fp)
 190:	10800044 	addi	r2,r2,1
 194:	e0bffd15 	stw	r2,-12(fp)
      if (active & mask)
 198:	003fe406 	br	12c <alt_irq_handler+0x30>

    } while (1);

    active = alt_irq_pending ();
 19c:	e0bfff15 	stw	r2,-4(fp)
    
  } while (active);
 1a0:	e0bfff17 	ldw	r2,-4(fp)
 1a4:	103fde1e 	bne	r2,zero,120 <alt_irq_handler+0x24>

  /*
   * Notify the operating system that interrupt processing is complete.
   */ 

  ALT_OS_INT_EXIT();
 1a8:	0001883a 	nop
}
 1ac:	0001883a 	nop
 1b0:	e037883a 	mov	sp,fp
 1b4:	dfc00117 	ldw	ra,4(sp)
 1b8:	df000017 	ldw	fp,0(sp)
 1bc:	dec00204 	addi	sp,sp,8
 1c0:	f800283a 	ret

000001c4 <alt_instruction_exception_entry>:
 * that handler if it has been registered. Absent a handler, it will
 * break break or hang as discussed below.
 */
int 
alt_instruction_exception_entry (alt_u32 exception_pc)
{
 1c4:	defffb04 	addi	sp,sp,-20
 1c8:	dfc00415 	stw	ra,16(sp)
 1cc:	df000315 	stw	fp,12(sp)
 1d0:	df000304 	addi	fp,sp,12
 1d4:	e13ffd15 	stw	r4,-12(fp)
  cause = ( (cause & NIOS2_EXCEPTION_REG_CAUSE_MASK) >>
              NIOS2_EXCEPTION_REG_CAUSE_OFST );

  NIOS2_READ_BADADDR(badaddr);
#else
  cause = NIOS2_EXCEPTION_CAUSE_NOT_PRESENT;
 1d8:	00bfffc4 	movi	r2,-1
 1dc:	e0bfff15 	stw	r2,-4(fp)
  badaddr = 0;
 1e0:	e03ffe15 	stw	zero,-8(fp)
#endif /* NIOS2_HAS_EXTRA_EXCEPTION_INFO */

  if(alt_instruction_exception_handler) {
 1e4:	d0a73917 	ldw	r2,-25372(gp)
 1e8:	10000726 	beq	r2,zero,208 <alt_instruction_exception_entry+0x44>
     * Call handler. Its return value indicates whether the exception-causing
     * instruction should be re-issued. The code that called us,
     * alt_eceptions_entry.S, will look at this value and adjust the ea
     * register as necessary
     */
    return alt_instruction_exception_handler(cause, exception_pc, badaddr);
 1ec:	d0a73917 	ldw	r2,-25372(gp)
 1f0:	e0ffff17 	ldw	r3,-4(fp)
 1f4:	e1bffe17 	ldw	r6,-8(fp)
 1f8:	e17ffd17 	ldw	r5,-12(fp)
 1fc:	1809883a 	mov	r4,r3
 200:	103ee83a 	callr	r2
 204:	00000206 	br	210 <alt_instruction_exception_entry+0x4c>
   *    (a peripheral which negates its interrupt output before its
   *    interrupt handler has been executed will cause spurious interrupts)
   */
  else {
#ifdef NIOS2_HAS_DEBUG_STUB
    NIOS2_BREAK();
 208:	003da03a 	break	0
      ;
#endif /* NIOS2_HAS_DEBUG_STUB */
  }

  /* We should not get here. Remove compiler warning. */
  return NIOS2_EXCEPTION_RETURN_REISSUE_INST;
 20c:	0005883a 	mov	r2,zero
}
 210:	e037883a 	mov	sp,fp
 214:	dfc00117 	ldw	ra,4(sp)
 218:	df000017 	ldw	fp,0(sp)
 21c:	dec00204 	addi	sp,sp,8
 220:	f800283a 	ret

Disassembly of section .text:

00000224 <_start>:

    /*
     * Now that the caches are initialized, set up the stack pointer and global pointer.
     * The values provided by the linker are assumed to be correctly aligned.
     */
    movhi sp, %hi(__alt_stack_pointer)
     224:	06c00074 	movhi	sp,1
    ori sp, sp, %lo(__alt_stack_pointer)
     228:	defd0014 	ori	sp,sp,62464
    movhi gp, %hi(_gp)
     22c:	06800074 	movhi	gp,1
    ori gp, gp, %lo(_gp)
     230:	d6a77614 	ori	gp,gp,40408
 */
#ifndef ALT_SIM_OPTIMIZE
    /* Log that the BSS is about to be cleared. */
    ALT_LOG_PUTS(alt_log_msg_bss)

    movhi r2, %hi(__bss_start)
     234:	00800074 	movhi	r2,1
    ori r2, r2, %lo(__bss_start)
     238:	108ea414 	ori	r2,r2,14992

    movhi r3, %hi(__bss_end)
     23c:	00c00074 	movhi	r3,1
    ori r3, r3, %lo(__bss_end)
     240:	18cefe14 	ori	r3,r3,15352

    beq r2, r3, 1f
     244:	10c00326 	beq	r2,r3,254 <_start+0x30>

0:
    stw zero, (r2)
     248:	10000015 	stw	zero,0(r2)
    addi r2, r2, 4
     24c:	10800104 	addi	r2,r2,4
    bltu r2, r3, 0b
     250:	10fffd36 	bltu	r2,r3,248 <_start+0x24>
     * section aren't defined until alt_load() has been called).
     */
    mov   et, zero
#endif

    call alt_load
     254:	000d92c0 	call	d92c <alt_load>

    /* Log that alt_main is about to be called. */
    ALT_LOG_PUTS(alt_log_msg_alt_main)

    /* Call the C entry point. It should never return. */
    call alt_main
     258:	000dacc0 	call	dacc <alt_main>

0000025c <alt_after_alt_main>:

    /* Wait in infinite loop in case alt_main does return. */
alt_after_alt_main:
    br alt_after_alt_main
     25c:	003fff06 	br	25c <alt_after_alt_main>

00000260 <resolveToFlower>:
//General 32 bit input @ 0x21010
uint *nios_input = (uint*)0x21010;
//General 32 bit output @ 0x21000
uint *nios_output = (uint*)0x21000;

char* resolveToFlower(uint flower) {
     260:	defffe04 	addi	sp,sp,-8
     264:	df000115 	stw	fp,4(sp)
     268:	df000104 	addi	fp,sp,4
     26c:	e13fff15 	stw	r4,-4(fp)
	static char flowers[][16] = { "Iris-setosa", "Iris-versicolor", "Iris-virginica", "uh oh" };
	return flower > 2 ? flowers[3] : flowers[flower];
     270:	e0bfff17 	ldw	r2,-4(fp)
     274:	108000e8 	cmpgeui	r2,r2,3
     278:	1000061e 	bne	r2,zero,294 <resolveToFlower+0x34>
     27c:	e0bfff17 	ldw	r2,-4(fp)
     280:	1006913a 	slli	r3,r2,4
     284:	00800074 	movhi	r2,1
     288:	10806e04 	addi	r2,r2,440
     28c:	1885883a 	add	r2,r3,r2
     290:	00000206 	br	29c <resolveToFlower+0x3c>
     294:	00800074 	movhi	r2,1
     298:	10807a04 	addi	r2,r2,488
}
     29c:	e037883a 	mov	sp,fp
     2a0:	df000017 	ldw	fp,0(sp)
     2a4:	dec00104 	addi	sp,sp,4
     2a8:	f800283a 	ret

000002ac <printClassificationResult>:

void printClassificationResult() {
     2ac:	defffb04 	addi	sp,sp,-20
     2b0:	dfc00415 	stw	ra,16(sp)
     2b4:	df000315 	stw	fp,12(sp)
     2b8:	dc000215 	stw	r16,8(sp)
     2bc:	df000304 	addi	fp,sp,12
	uint actual = 0xFF & *nios_input;
     2c0:	d0a00317 	ldw	r2,-32756(gp)
     2c4:	10800017 	ldw	r2,0(r2)
     2c8:	10803fcc 	andi	r2,r2,255
     2cc:	e0bffe15 	stw	r2,-8(fp)
    uint classified = 0xFF & (*nios_input >> 8);
     2d0:	d0a00317 	ldw	r2,-32756(gp)
     2d4:	10800017 	ldw	r2,0(r2)
     2d8:	1004d23a 	srli	r2,r2,8
     2dc:	10803fcc 	andi	r2,r2,255
     2e0:	e0bffd15 	stw	r2,-12(fp)

	if (actual == classified) {
     2e4:	e0fffe17 	ldw	r3,-8(fp)
     2e8:	e0bffd17 	ldw	r2,-12(fp)
     2ec:	1880041e 	bne	r3,r2,300 <printClassificationResult+0x54>
		printf("Classification correct!\n");
     2f0:	01000074 	movhi	r4,1
     2f4:	213ec504 	addi	r4,r4,-1260
     2f8:	000174c0 	call	174c <puts>
     2fc:	00000306 	br	30c <printClassificationResult+0x60>
	} else {
		printf("Classification wrong. :(\n");
     300:	01000074 	movhi	r4,1
     304:	213ecb04 	addi	r4,r4,-1236
     308:	000174c0 	call	174c <puts>
	}

	printf("Actual: %s\nClassified as: %s\n\n", resolveToFlower(actual), resolveToFlower(classified));
     30c:	e13ffe17 	ldw	r4,-8(fp)
     310:	00002600 	call	260 <resolveToFlower>
     314:	1021883a 	mov	r16,r2
     318:	e13ffd17 	ldw	r4,-12(fp)
     31c:	00002600 	call	260 <resolveToFlower>
     320:	100d883a 	mov	r6,r2
     324:	800b883a 	mov	r5,r16
     328:	01000074 	movhi	r4,1
     32c:	213ed204 	addi	r4,r4,-1208
     330:	00016480 	call	1648 <printf>
}
     334:	0001883a 	nop
     338:	e6ffff04 	addi	sp,fp,-4
     33c:	dfc00217 	ldw	ra,8(sp)
     340:	df000117 	ldw	fp,4(sp)
     344:	dc000017 	ldw	r16,0(sp)
     348:	dec00304 	addi	sp,sp,12
     34c:	f800283a 	ret

00000350 <getAttributesFromUser>:

int* getAttributesFromUser() {
     350:	defffc04 	addi	sp,sp,-16
     354:	dfc00315 	stw	ra,12(sp)
     358:	df000215 	stw	fp,8(sp)
     35c:	df000204 	addi	fp,sp,8
    static char strs[][16] = { "Sepal length", "Sepal width", "Petal length", "Petal width" };
    static int attributes[4];

    printf("An Iris flower can be described using 4 attributes: sepal length and width, and petal length and width.\nPlease enter the 4 attributes in millimeters between 0 and 255.\n\n");
     360:	01000074 	movhi	r4,1
     364:	213eda04 	addi	r4,r4,-1176
     368:	000174c0 	call	174c <puts>

    for (int i = 0; i < 4; i++) {
     36c:	e03fff15 	stw	zero,-4(fp)
     370:	00002106 	br	3f8 <getAttributesFromUser+0xa8>
        printf("%s: ", strs[i]);
     374:	e0bfff17 	ldw	r2,-4(fp)
     378:	1006913a 	slli	r3,r2,4
     37c:	00800074 	movhi	r2,1
     380:	10807e04 	addi	r2,r2,504
     384:	1885883a 	add	r2,r3,r2
     388:	100b883a 	mov	r5,r2
     38c:	01000074 	movhi	r4,1
     390:	213f0504 	addi	r4,r4,-1004
     394:	00016480 	call	1648 <printf>

        char buf[4];
        fgets(buf, 4, stdin);
     398:	d0a00617 	ldw	r2,-32744(gp)
     39c:	10c00117 	ldw	r3,4(r2)
     3a0:	e0bffe04 	addi	r2,fp,-8
     3a4:	180d883a 	mov	r6,r3
     3a8:	01400104 	movi	r5,4
     3ac:	1009883a 	mov	r4,r2
     3b0:	00006880 	call	688 <fgets>
        printf("You entered: %s\n", buf);
     3b4:	e0bffe04 	addi	r2,fp,-8
     3b8:	100b883a 	mov	r5,r2
     3bc:	01000074 	movhi	r4,1
     3c0:	213f0704 	addi	r4,r4,-996
     3c4:	00016480 	call	1648 <printf>
        attributes[i] = atoi(buf);
     3c8:	e0bffe04 	addi	r2,fp,-8
     3cc:	1009883a 	mov	r4,r2
     3d0:	00005000 	call	500 <atoi>
     3d4:	1009883a 	mov	r4,r2
     3d8:	e0bfff17 	ldw	r2,-4(fp)
     3dc:	100690ba 	slli	r3,r2,2
     3e0:	00800074 	movhi	r2,1
     3e4:	1885883a 	add	r2,r3,r2
     3e8:	110eb015 	stw	r4,15040(r2)
    for (int i = 0; i < 4; i++) {
     3ec:	e0bfff17 	ldw	r2,-4(fp)
     3f0:	10800044 	addi	r2,r2,1
     3f4:	e0bfff15 	stw	r2,-4(fp)
     3f8:	e0bfff17 	ldw	r2,-4(fp)
     3fc:	10800110 	cmplti	r2,r2,4
     400:	103fdc1e 	bne	r2,zero,374 <getAttributesFromUser+0x24>
    }

    return attributes;
     404:	00800074 	movhi	r2,1
     408:	108eb004 	addi	r2,r2,15040
}
     40c:	e037883a 	mov	sp,fp
     410:	dfc00117 	ldw	ra,4(sp)
     414:	df000017 	ldw	fp,0(sp)
     418:	dec00204 	addi	sp,sp,8
     41c:	f800283a 	ret

00000420 <main>:

int main()
{
     420:	defffb04 	addi	sp,sp,-20
     424:	dfc00415 	stw	ra,16(sp)
     428:	df000315 	stw	fp,12(sp)
     42c:	df000304 	addi	fp,sp,12
	int *a = getAttributesFromUser();
     430:	00003500 	call	350 <getAttributesFromUser>
     434:	e0bffd15 	stw	r2,-12(fp)

	for (int i = 0; i < 4; i++) {
     438:	e03fff15 	stw	zero,-4(fp)
     43c:	00001106 	br	484 <main+0x64>
		*(nios_output + i) = (char)*(a + i);
     440:	e0bfff17 	ldw	r2,-4(fp)
     444:	100490ba 	slli	r2,r2,2
     448:	e0fffd17 	ldw	r3,-12(fp)
     44c:	1885883a 	add	r2,r3,r2
     450:	10800017 	ldw	r2,0(r2)
     454:	1009883a 	mov	r4,r2
     458:	d0e00417 	ldw	r3,-32752(gp)
     45c:	e0bfff17 	ldw	r2,-4(fp)
     460:	100490ba 	slli	r2,r2,2
     464:	1885883a 	add	r2,r3,r2
     468:	20c03fcc 	andi	r3,r4,255
     46c:	18c0201c 	xori	r3,r3,128
     470:	18ffe004 	addi	r3,r3,-128
     474:	10c00015 	stw	r3,0(r2)
	for (int i = 0; i < 4; i++) {
     478:	e0bfff17 	ldw	r2,-4(fp)
     47c:	10800044 	addi	r2,r2,1
     480:	e0bfff15 	stw	r2,-4(fp)
     484:	e0bfff17 	ldw	r2,-4(fp)
     488:	10800110 	cmplti	r2,r2,4
     48c:	103fec1e 	bne	r2,zero,440 <main+0x20>
	}

	for (int i = 0; i < 4; i++) {
     490:	e03ffe15 	stw	zero,-8(fp)
     494:	00001106 	br	4dc <main+0xbc>
		printf("%u: %c\n", nios_output + i, *(nios_output + i));
     498:	d0e00417 	ldw	r3,-32752(gp)
     49c:	e0bffe17 	ldw	r2,-8(fp)
     4a0:	100490ba 	slli	r2,r2,2
     4a4:	1889883a 	add	r4,r3,r2
     4a8:	d0e00417 	ldw	r3,-32752(gp)
     4ac:	e0bffe17 	ldw	r2,-8(fp)
     4b0:	100490ba 	slli	r2,r2,2
     4b4:	1885883a 	add	r2,r3,r2
     4b8:	10800017 	ldw	r2,0(r2)
     4bc:	100d883a 	mov	r6,r2
     4c0:	200b883a 	mov	r5,r4
     4c4:	01000074 	movhi	r4,1
     4c8:	213f0c04 	addi	r4,r4,-976
     4cc:	00016480 	call	1648 <printf>
	for (int i = 0; i < 4; i++) {
     4d0:	e0bffe17 	ldw	r2,-8(fp)
     4d4:	10800044 	addi	r2,r2,1
     4d8:	e0bffe15 	stw	r2,-8(fp)
     4dc:	e0bffe17 	ldw	r2,-8(fp)
     4e0:	10800110 	cmplti	r2,r2,4
     4e4:	103fec1e 	bne	r2,zero,498 <main+0x78>
	}

	return 0;
     4e8:	0005883a 	mov	r2,zero
}
     4ec:	e037883a 	mov	sp,fp
     4f0:	dfc00117 	ldw	ra,4(sp)
     4f4:	df000017 	ldw	fp,0(sp)
     4f8:	dec00204 	addi	sp,sp,8
     4fc:	f800283a 	ret

00000500 <atoi>:
     500:	01800284 	movi	r6,10
     504:	000b883a 	mov	r5,zero
     508:	0001dcc1 	jmpi	1dcc <strtol>

0000050c <_atoi_r>:
     50c:	01c00284 	movi	r7,10
     510:	000d883a 	mov	r6,zero
     514:	0001db01 	jmpi	1db0 <_strtol_r>

00000518 <_fgets_r>:
     518:	30c00088 	cmpgei	r3,r6,2
     51c:	18005826 	beq	r3,zero,680 <_fgets_r+0x168>
     520:	defff804 	addi	sp,sp,-32
     524:	dd800615 	stw	r22,24(sp)
     528:	dd400515 	stw	r21,20(sp)
     52c:	dc800215 	stw	r18,8(sp)
     530:	dc400115 	stw	r17,4(sp)
     534:	dfc00715 	stw	ra,28(sp)
     538:	dd000415 	stw	r20,16(sp)
     53c:	dcc00315 	stw	r19,12(sp)
     540:	dc000015 	stw	r16,0(sp)
     544:	202d883a 	mov	r22,r4
     548:	3825883a 	mov	r18,r7
     54c:	282b883a 	mov	r21,r5
     550:	3023883a 	mov	r17,r6
     554:	20000226 	beq	r4,zero,560 <_fgets_r+0x48>
     558:	20800e17 	ldw	r2,56(r4)
     55c:	10003726 	beq	r2,zero,63c <_fgets_r+0x124>
     560:	94000117 	ldw	r16,4(r18)
     564:	8c7fffc4 	addi	r17,r17,-1
     568:	a829883a 	mov	r20,r21
     56c:	80001126 	beq	r16,zero,5b4 <_fgets_r+0x9c>
     570:	94c00017 	ldw	r19,0(r18)
     574:	8c001636 	bltu	r17,r16,5d0 <_fgets_r+0xb8>
     578:	800d883a 	mov	r6,r16
     57c:	01400284 	movi	r5,10
     580:	9809883a 	mov	r4,r19
     584:	00013400 	call	1340 <memchr>
     588:	1000161e 	bne	r2,zero,5e4 <_fgets_r+0xcc>
     58c:	9c05883a 	add	r2,r19,r16
     590:	a009883a 	mov	r4,r20
     594:	90000115 	stw	zero,4(r18)
     598:	90800015 	stw	r2,0(r18)
     59c:	800d883a 	mov	r6,r16
     5a0:	980b883a 	mov	r5,r19
     5a4:	8c23c83a 	sub	r17,r17,r16
     5a8:	00014280 	call	1428 <memcpy>
     5ac:	a429883a 	add	r20,r20,r16
     5b0:	88002d26 	beq	r17,zero,668 <_fgets_r+0x150>
     5b4:	900b883a 	mov	r5,r18
     5b8:	b009883a 	mov	r4,r22
     5bc:	00017780 	call	1778 <__srefill_r>
     5c0:	10002c1e 	bne	r2,zero,674 <_fgets_r+0x15c>
     5c4:	94000117 	ldw	r16,4(r18)
     5c8:	94c00017 	ldw	r19,0(r18)
     5cc:	8c3fea2e 	bgeu	r17,r16,578 <_fgets_r+0x60>
     5d0:	880d883a 	mov	r6,r17
     5d4:	01400284 	movi	r5,10
     5d8:	9809883a 	mov	r4,r19
     5dc:	00013400 	call	1340 <memchr>
     5e0:	10001826 	beq	r2,zero,644 <_fgets_r+0x12c>
     5e4:	10800044 	addi	r2,r2,1
     5e8:	14e3c83a 	sub	r17,r2,r19
     5ec:	8461c83a 	sub	r16,r16,r17
     5f0:	a009883a 	mov	r4,r20
     5f4:	94000115 	stw	r16,4(r18)
     5f8:	90800015 	stw	r2,0(r18)
     5fc:	880d883a 	mov	r6,r17
     600:	980b883a 	mov	r5,r19
     604:	00014280 	call	1428 <memcpy>
     608:	a469883a 	add	r20,r20,r17
     60c:	a0000005 	stb	zero,0(r20)
     610:	a805883a 	mov	r2,r21
     614:	dfc00717 	ldw	ra,28(sp)
     618:	dd800617 	ldw	r22,24(sp)
     61c:	dd400517 	ldw	r21,20(sp)
     620:	dd000417 	ldw	r20,16(sp)
     624:	dcc00317 	ldw	r19,12(sp)
     628:	dc800217 	ldw	r18,8(sp)
     62c:	dc400117 	ldw	r17,4(sp)
     630:	dc000017 	ldw	r16,0(sp)
     634:	dec00804 	addi	sp,sp,32
     638:	f800283a 	ret
     63c:	00009ac0 	call	9ac <__sinit>
     640:	003fc706 	br	560 <_fgets_r+0x48>
     644:	9c45883a 	add	r2,r19,r17
     648:	8461c83a 	sub	r16,r16,r17
     64c:	a009883a 	mov	r4,r20
     650:	94000115 	stw	r16,4(r18)
     654:	90800015 	stw	r2,0(r18)
     658:	880d883a 	mov	r6,r17
     65c:	980b883a 	mov	r5,r19
     660:	00014280 	call	1428 <memcpy>
     664:	a469883a 	add	r20,r20,r17
     668:	a0000005 	stb	zero,0(r20)
     66c:	a805883a 	mov	r2,r21
     670:	003fe806 	br	614 <_fgets_r+0xfc>
     674:	a57ffc1e 	bne	r20,r21,668 <_fgets_r+0x150>
     678:	0005883a 	mov	r2,zero
     67c:	003fe506 	br	614 <_fgets_r+0xfc>
     680:	0005883a 	mov	r2,zero
     684:	f800283a 	ret

00000688 <fgets>:
     688:	00800074 	movhi	r2,1
     68c:	300f883a 	mov	r7,r6
     690:	280d883a 	mov	r6,r5
     694:	200b883a 	mov	r5,r4
     698:	11077c17 	ldw	r4,7664(r2)
     69c:	00005181 	jmpi	518 <_fgets_r>

000006a0 <__fp_lock>:
     6a0:	0005883a 	mov	r2,zero
     6a4:	f800283a 	ret

000006a8 <_cleanup_r>:
     6a8:	01400034 	movhi	r5,0
     6ac:	2956d704 	addi	r5,r5,23388
     6b0:	0000a981 	jmpi	a98 <_fwalk_reent>

000006b4 <__sinit.part.0>:
     6b4:	00c00034 	movhi	r3,0
     6b8:	20800117 	ldw	r2,4(r4)
     6bc:	18c1aa04 	addi	r3,r3,1704
     6c0:	20c00f15 	stw	r3,60(r4)
     6c4:	2140bb04 	addi	r5,r4,748
     6c8:	00c000c4 	movi	r3,3
     6cc:	20c0b915 	stw	r3,740(r4)
     6d0:	2140ba15 	stw	r5,744(r4)
     6d4:	2000b815 	stw	zero,736(r4)
     6d8:	10001705 	stb	zero,92(r2)
     6dc:	10001745 	stb	zero,93(r2)
     6e0:	10001785 	stb	zero,94(r2)
     6e4:	100017c5 	stb	zero,95(r2)
     6e8:	10001805 	stb	zero,96(r2)
     6ec:	10001845 	stb	zero,97(r2)
     6f0:	10001885 	stb	zero,98(r2)
     6f4:	100018c5 	stb	zero,99(r2)
     6f8:	00c00104 	movi	r3,4
     6fc:	10c00315 	stw	r3,12(r2)
     700:	02000034 	movhi	r8,0
     704:	20c00217 	ldw	r3,8(r4)
     708:	01c00034 	movhi	r7,0
     70c:	01800034 	movhi	r6,0
     710:	01400034 	movhi	r5,0
     714:	42066704 	addi	r8,r8,6556
     718:	39c67e04 	addi	r7,r7,6648
     71c:	31869e04 	addi	r6,r6,6776
     720:	2946b504 	addi	r5,r5,6868
     724:	02400074 	movhi	r9,1
     728:	10001915 	stw	zero,100(r2)
     72c:	10000015 	stw	zero,0(r2)
     730:	10000115 	stw	zero,4(r2)
     734:	10000215 	stw	zero,8(r2)
     738:	10000415 	stw	zero,16(r2)
     73c:	10000515 	stw	zero,20(r2)
     740:	10000615 	stw	zero,24(r2)
     744:	10800715 	stw	r2,28(r2)
     748:	12000815 	stw	r8,32(r2)
     74c:	11c00915 	stw	r7,36(r2)
     750:	11800a15 	stw	r6,40(r2)
     754:	11400b15 	stw	r5,44(r2)
     758:	4a400284 	addi	r9,r9,10
     75c:	1a400315 	stw	r9,12(r3)
     760:	18001915 	stw	zero,100(r3)
     764:	18000015 	stw	zero,0(r3)
     768:	18000115 	stw	zero,4(r3)
     76c:	18000215 	stw	zero,8(r3)
     770:	18000415 	stw	zero,16(r3)
     774:	18001705 	stb	zero,92(r3)
     778:	18001745 	stb	zero,93(r3)
     77c:	18001785 	stb	zero,94(r3)
     780:	180017c5 	stb	zero,95(r3)
     784:	18001805 	stb	zero,96(r3)
     788:	18001845 	stb	zero,97(r3)
     78c:	18001885 	stb	zero,98(r3)
     790:	180018c5 	stb	zero,99(r3)
     794:	20800317 	ldw	r2,12(r4)
     798:	024000b4 	movhi	r9,2
     79c:	18000515 	stw	zero,20(r3)
     7a0:	18000615 	stw	zero,24(r3)
     7a4:	18c00715 	stw	r3,28(r3)
     7a8:	1a000815 	stw	r8,32(r3)
     7ac:	19c00915 	stw	r7,36(r3)
     7b0:	19800a15 	stw	r6,40(r3)
     7b4:	19400b15 	stw	r5,44(r3)
     7b8:	4a400484 	addi	r9,r9,18
     7bc:	10001915 	stw	zero,100(r2)
     7c0:	10000015 	stw	zero,0(r2)
     7c4:	10000115 	stw	zero,4(r2)
     7c8:	10000215 	stw	zero,8(r2)
     7cc:	12400315 	stw	r9,12(r2)
     7d0:	10000415 	stw	zero,16(r2)
     7d4:	10000515 	stw	zero,20(r2)
     7d8:	10000615 	stw	zero,24(r2)
     7dc:	10001705 	stb	zero,92(r2)
     7e0:	10001745 	stb	zero,93(r2)
     7e4:	10001785 	stb	zero,94(r2)
     7e8:	100017c5 	stb	zero,95(r2)
     7ec:	10001805 	stb	zero,96(r2)
     7f0:	10001845 	stb	zero,97(r2)
     7f4:	10001885 	stb	zero,98(r2)
     7f8:	100018c5 	stb	zero,99(r2)
     7fc:	10800715 	stw	r2,28(r2)
     800:	12000815 	stw	r8,32(r2)
     804:	11c00915 	stw	r7,36(r2)
     808:	11800a15 	stw	r6,40(r2)
     80c:	11400b15 	stw	r5,44(r2)
     810:	00800044 	movi	r2,1
     814:	20800e15 	stw	r2,56(r4)
     818:	f800283a 	ret

0000081c <__fp_unlock>:
     81c:	0005883a 	mov	r2,zero
     820:	f800283a 	ret

00000824 <__sfmoreglue>:
     824:	defffc04 	addi	sp,sp,-16
     828:	dc800215 	stw	r18,8(sp)
     82c:	2825883a 	mov	r18,r5
     830:	dc000015 	stw	r16,0(sp)
     834:	01401a04 	movi	r5,104
     838:	2021883a 	mov	r16,r4
     83c:	913fffc4 	addi	r4,r18,-1
     840:	dfc00315 	stw	ra,12(sp)
     844:	dc400115 	stw	r17,4(sp)
     848:	000ac380 	call	ac38 <__mulsi3>
     84c:	8009883a 	mov	r4,r16
     850:	11401d04 	addi	r5,r2,116
     854:	1023883a 	mov	r17,r2
     858:	0000b4c0 	call	b4c <_malloc_r>
     85c:	1021883a 	mov	r16,r2
     860:	10000726 	beq	r2,zero,880 <__sfmoreglue+0x5c>
     864:	11000304 	addi	r4,r2,12
     868:	10000015 	stw	zero,0(r2)
     86c:	14800115 	stw	r18,4(r2)
     870:	11000215 	stw	r4,8(r2)
     874:	89801a04 	addi	r6,r17,104
     878:	000b883a 	mov	r5,zero
     87c:	00015280 	call	1528 <memset>
     880:	8005883a 	mov	r2,r16
     884:	dfc00317 	ldw	ra,12(sp)
     888:	dc800217 	ldw	r18,8(sp)
     88c:	dc400117 	ldw	r17,4(sp)
     890:	dc000017 	ldw	r16,0(sp)
     894:	dec00404 	addi	sp,sp,16
     898:	f800283a 	ret

0000089c <__sfp>:
     89c:	defffd04 	addi	sp,sp,-12
     8a0:	00800074 	movhi	r2,1
     8a4:	dc000015 	stw	r16,0(sp)
     8a8:	14077b17 	ldw	r16,7660(r2)
     8ac:	dc400115 	stw	r17,4(sp)
     8b0:	dfc00215 	stw	ra,8(sp)
     8b4:	80800e17 	ldw	r2,56(r16)
     8b8:	2023883a 	mov	r17,r4
     8bc:	10002b26 	beq	r2,zero,96c <__sfp+0xd0>
     8c0:	8400b804 	addi	r16,r16,736
     8c4:	80c00117 	ldw	r3,4(r16)
     8c8:	80800217 	ldw	r2,8(r16)
     8cc:	18ffffc4 	addi	r3,r3,-1
     8d0:	1800050e 	bge	r3,zero,8e8 <__sfp+0x4c>
     8d4:	00002106 	br	95c <__sfp+0xc0>
     8d8:	18ffffc4 	addi	r3,r3,-1
     8dc:	193fffd8 	cmpnei	r4,r3,-1
     8e0:	10801a04 	addi	r2,r2,104
     8e4:	20001d26 	beq	r4,zero,95c <__sfp+0xc0>
     8e8:	1100030f 	ldh	r4,12(r2)
     8ec:	203ffa1e 	bne	r4,zero,8d8 <__sfp+0x3c>
     8f0:	00fffff4 	movhi	r3,65535
     8f4:	18c00044 	addi	r3,r3,1
     8f8:	10001915 	stw	zero,100(r2)
     8fc:	10000015 	stw	zero,0(r2)
     900:	10000115 	stw	zero,4(r2)
     904:	10000215 	stw	zero,8(r2)
     908:	10c00315 	stw	r3,12(r2)
     90c:	10000415 	stw	zero,16(r2)
     910:	10000515 	stw	zero,20(r2)
     914:	10000615 	stw	zero,24(r2)
     918:	10001705 	stb	zero,92(r2)
     91c:	10001745 	stb	zero,93(r2)
     920:	10001785 	stb	zero,94(r2)
     924:	100017c5 	stb	zero,95(r2)
     928:	10001805 	stb	zero,96(r2)
     92c:	10001845 	stb	zero,97(r2)
     930:	10001885 	stb	zero,98(r2)
     934:	100018c5 	stb	zero,99(r2)
     938:	10000c15 	stw	zero,48(r2)
     93c:	10000d15 	stw	zero,52(r2)
     940:	10001115 	stw	zero,68(r2)
     944:	10001215 	stw	zero,72(r2)
     948:	dfc00217 	ldw	ra,8(sp)
     94c:	dc400117 	ldw	r17,4(sp)
     950:	dc000017 	ldw	r16,0(sp)
     954:	dec00304 	addi	sp,sp,12
     958:	f800283a 	ret
     95c:	80800017 	ldw	r2,0(r16)
     960:	10000526 	beq	r2,zero,978 <__sfp+0xdc>
     964:	1021883a 	mov	r16,r2
     968:	003fd606 	br	8c4 <__sfp+0x28>
     96c:	8009883a 	mov	r4,r16
     970:	00006b40 	call	6b4 <__sinit.part.0>
     974:	003fd206 	br	8c0 <__sfp+0x24>
     978:	01400104 	movi	r5,4
     97c:	8809883a 	mov	r4,r17
     980:	00008240 	call	824 <__sfmoreglue>
     984:	80800015 	stw	r2,0(r16)
     988:	103ff61e 	bne	r2,zero,964 <__sfp+0xc8>
     98c:	00c00304 	movi	r3,12
     990:	88c00015 	stw	r3,0(r17)
     994:	003fec06 	br	948 <__sfp+0xac>

00000998 <_cleanup>:
     998:	00800074 	movhi	r2,1
     99c:	11077b17 	ldw	r4,7660(r2)
     9a0:	01400034 	movhi	r5,0
     9a4:	2956d704 	addi	r5,r5,23388
     9a8:	0000a981 	jmpi	a98 <_fwalk_reent>

000009ac <__sinit>:
     9ac:	20800e17 	ldw	r2,56(r4)
     9b0:	10000126 	beq	r2,zero,9b8 <__sinit+0xc>
     9b4:	f800283a 	ret
     9b8:	00006b41 	jmpi	6b4 <__sinit.part.0>

000009bc <__sfp_lock_acquire>:
     9bc:	f800283a 	ret

000009c0 <__sfp_lock_release>:
     9c0:	f800283a 	ret

000009c4 <__sinit_lock_acquire>:
     9c4:	f800283a 	ret

000009c8 <__sinit_lock_release>:
     9c8:	f800283a 	ret

000009cc <__fp_lock_all>:
     9cc:	00800074 	movhi	r2,1
     9d0:	11077c17 	ldw	r4,7664(r2)
     9d4:	01400034 	movhi	r5,0
     9d8:	2941a804 	addi	r5,r5,1696
     9dc:	00009f41 	jmpi	9f4 <_fwalk>

000009e0 <__fp_unlock_all>:
     9e0:	00800074 	movhi	r2,1
     9e4:	11077c17 	ldw	r4,7664(r2)
     9e8:	01400034 	movhi	r5,0
     9ec:	29420704 	addi	r5,r5,2076
     9f0:	00009f41 	jmpi	9f4 <_fwalk>

000009f4 <_fwalk>:
     9f4:	defffa04 	addi	sp,sp,-24
     9f8:	dc800215 	stw	r18,8(sp)
     9fc:	dfc00515 	stw	ra,20(sp)
     a00:	dd000415 	stw	r20,16(sp)
     a04:	dcc00315 	stw	r19,12(sp)
     a08:	dc400115 	stw	r17,4(sp)
     a0c:	dc000015 	stw	r16,0(sp)
     a10:	2480b804 	addi	r18,r4,736
     a14:	90001e26 	beq	r18,zero,a90 <_fwalk+0x9c>
     a18:	2827883a 	mov	r19,r5
     a1c:	0029883a 	mov	r20,zero
     a20:	94400117 	ldw	r17,4(r18)
     a24:	94000217 	ldw	r16,8(r18)
     a28:	8c7fffc4 	addi	r17,r17,-1
     a2c:	88000d16 	blt	r17,zero,a64 <_fwalk+0x70>
     a30:	8080030b 	ldhu	r2,12(r16)
     a34:	8c7fffc4 	addi	r17,r17,-1
     a38:	108000b0 	cmpltui	r2,r2,2
     a3c:	1000061e 	bne	r2,zero,a58 <_fwalk+0x64>
     a40:	8080038f 	ldh	r2,14(r16)
     a44:	8009883a 	mov	r4,r16
     a48:	10bfffe0 	cmpeqi	r2,r2,-1
     a4c:	1000021e 	bne	r2,zero,a58 <_fwalk+0x64>
     a50:	983ee83a 	callr	r19
     a54:	a0a8b03a 	or	r20,r20,r2
     a58:	88bfffd8 	cmpnei	r2,r17,-1
     a5c:	84001a04 	addi	r16,r16,104
     a60:	103ff31e 	bne	r2,zero,a30 <_fwalk+0x3c>
     a64:	94800017 	ldw	r18,0(r18)
     a68:	903fed1e 	bne	r18,zero,a20 <_fwalk+0x2c>
     a6c:	a005883a 	mov	r2,r20
     a70:	dfc00517 	ldw	ra,20(sp)
     a74:	dd000417 	ldw	r20,16(sp)
     a78:	dcc00317 	ldw	r19,12(sp)
     a7c:	dc800217 	ldw	r18,8(sp)
     a80:	dc400117 	ldw	r17,4(sp)
     a84:	dc000017 	ldw	r16,0(sp)
     a88:	dec00604 	addi	sp,sp,24
     a8c:	f800283a 	ret
     a90:	0029883a 	mov	r20,zero
     a94:	003ff506 	br	a6c <_fwalk+0x78>

00000a98 <_fwalk_reent>:
     a98:	defff904 	addi	sp,sp,-28
     a9c:	dc800215 	stw	r18,8(sp)
     aa0:	dfc00615 	stw	ra,24(sp)
     aa4:	dd400515 	stw	r21,20(sp)
     aa8:	dd000415 	stw	r20,16(sp)
     aac:	dcc00315 	stw	r19,12(sp)
     ab0:	dc400115 	stw	r17,4(sp)
     ab4:	dc000015 	stw	r16,0(sp)
     ab8:	2480b804 	addi	r18,r4,736
     abc:	90002126 	beq	r18,zero,b44 <_fwalk_reent+0xac>
     ac0:	2829883a 	mov	r20,r5
     ac4:	2027883a 	mov	r19,r4
     ac8:	002b883a 	mov	r21,zero
     acc:	94400117 	ldw	r17,4(r18)
     ad0:	94000217 	ldw	r16,8(r18)
     ad4:	8c7fffc4 	addi	r17,r17,-1
     ad8:	88000e16 	blt	r17,zero,b14 <_fwalk_reent+0x7c>
     adc:	8080030b 	ldhu	r2,12(r16)
     ae0:	8c7fffc4 	addi	r17,r17,-1
     ae4:	108000b0 	cmpltui	r2,r2,2
     ae8:	1000071e 	bne	r2,zero,b08 <_fwalk_reent+0x70>
     aec:	8080038f 	ldh	r2,14(r16)
     af0:	800b883a 	mov	r5,r16
     af4:	9809883a 	mov	r4,r19
     af8:	10bfffe0 	cmpeqi	r2,r2,-1
     afc:	1000021e 	bne	r2,zero,b08 <_fwalk_reent+0x70>
     b00:	a03ee83a 	callr	r20
     b04:	a8aab03a 	or	r21,r21,r2
     b08:	88bfffd8 	cmpnei	r2,r17,-1
     b0c:	84001a04 	addi	r16,r16,104
     b10:	103ff21e 	bne	r2,zero,adc <_fwalk_reent+0x44>
     b14:	94800017 	ldw	r18,0(r18)
     b18:	903fec1e 	bne	r18,zero,acc <_fwalk_reent+0x34>
     b1c:	a805883a 	mov	r2,r21
     b20:	dfc00617 	ldw	ra,24(sp)
     b24:	dd400517 	ldw	r21,20(sp)
     b28:	dd000417 	ldw	r20,16(sp)
     b2c:	dcc00317 	ldw	r19,12(sp)
     b30:	dc800217 	ldw	r18,8(sp)
     b34:	dc400117 	ldw	r17,4(sp)
     b38:	dc000017 	ldw	r16,0(sp)
     b3c:	dec00704 	addi	sp,sp,28
     b40:	f800283a 	ret
     b44:	002b883a 	mov	r21,zero
     b48:	003ff406 	br	b1c <_fwalk_reent+0x84>

00000b4c <_malloc_r>:
     b4c:	defff604 	addi	sp,sp,-40
     b50:	dc400115 	stw	r17,4(sp)
     b54:	2c4002c4 	addi	r17,r5,11
     b58:	dc800215 	stw	r18,8(sp)
     b5c:	dfc00915 	stw	ra,36(sp)
     b60:	df000815 	stw	fp,32(sp)
     b64:	ddc00715 	stw	r23,28(sp)
     b68:	dd800615 	stw	r22,24(sp)
     b6c:	dd400515 	stw	r21,20(sp)
     b70:	dd000415 	stw	r20,16(sp)
     b74:	dcc00315 	stw	r19,12(sp)
     b78:	dc000015 	stw	r16,0(sp)
     b7c:	888005e8 	cmpgeui	r2,r17,23
     b80:	2025883a 	mov	r18,r4
     b84:	10001b1e 	bne	r2,zero,bf4 <_malloc_r+0xa8>
     b88:	29400468 	cmpgeui	r5,r5,17
     b8c:	2800951e 	bne	r5,zero,de4 <_malloc_r+0x298>
     b90:	000db480 	call	db48 <__malloc_lock>
     b94:	04400404 	movi	r17,16
     b98:	00800604 	movi	r2,24
     b9c:	01800084 	movi	r6,2
     ba0:	04c00074 	movhi	r19,1
     ba4:	9cc19704 	addi	r19,r19,1628
     ba8:	9885883a 	add	r2,r19,r2
     bac:	14000117 	ldw	r16,4(r2)
     bb0:	10fffe04 	addi	r3,r2,-8
     bb4:	80c09e26 	beq	r16,r3,e30 <_malloc_r+0x2e4>
     bb8:	80800117 	ldw	r2,4(r16)
     bbc:	81000317 	ldw	r4,12(r16)
     bc0:	00ffff04 	movi	r3,-4
     bc4:	10c4703a 	and	r2,r2,r3
     bc8:	81400217 	ldw	r5,8(r16)
     bcc:	8085883a 	add	r2,r16,r2
     bd0:	10c00117 	ldw	r3,4(r2)
     bd4:	29000315 	stw	r4,12(r5)
     bd8:	21400215 	stw	r5,8(r4)
     bdc:	18c00054 	ori	r3,r3,1
     be0:	10c00115 	stw	r3,4(r2)
     be4:	9009883a 	mov	r4,r18
     be8:	000db6c0 	call	db6c <__malloc_unlock>
     bec:	80800204 	addi	r2,r16,8
     bf0:	00007f06 	br	df0 <_malloc_r+0x2a4>
     bf4:	00bffe04 	movi	r2,-8
     bf8:	88a2703a 	and	r17,r17,r2
     bfc:	88007916 	blt	r17,zero,de4 <_malloc_r+0x298>
     c00:	89407836 	bltu	r17,r5,de4 <_malloc_r+0x298>
     c04:	000db480 	call	db48 <__malloc_lock>
     c08:	88807e28 	cmpgeui	r2,r17,504
     c0c:	10013326 	beq	r2,zero,10dc <_malloc_r+0x590>
     c10:	8804d27a 	srli	r2,r17,9
     c14:	10008226 	beq	r2,zero,e20 <_malloc_r+0x2d4>
     c18:	10c00168 	cmpgeui	r3,r2,5
     c1c:	1801151e 	bne	r3,zero,1074 <_malloc_r+0x528>
     c20:	8804d1ba 	srli	r2,r17,6
     c24:	11800e44 	addi	r6,r2,57
     c28:	300a90fa 	slli	r5,r6,3
     c2c:	12000e04 	addi	r8,r2,56
     c30:	04c00074 	movhi	r19,1
     c34:	9cc19704 	addi	r19,r19,1628
     c38:	994b883a 	add	r5,r19,r5
     c3c:	2c000117 	ldw	r16,4(r5)
     c40:	297ffe04 	addi	r5,r5,-8
     c44:	2c001126 	beq	r5,r16,c8c <_malloc_r+0x140>
     c48:	80800117 	ldw	r2,4(r16)
     c4c:	00ffff04 	movi	r3,-4
     c50:	10c4703a 	and	r2,r2,r3
     c54:	1447c83a 	sub	r3,r2,r17
     c58:	19000408 	cmpgei	r4,r3,16
     c5c:	2000e81e 	bne	r4,zero,1000 <_malloc_r+0x4b4>
     c60:	1800e90e 	bge	r3,zero,1008 <_malloc_r+0x4bc>
     c64:	01ffff04 	movi	r7,-4
     c68:	00000606 	br	c84 <_malloc_r+0x138>
     c6c:	80800117 	ldw	r2,4(r16)
     c70:	11c4703a 	and	r2,r2,r7
     c74:	1447c83a 	sub	r3,r2,r17
     c78:	19000408 	cmpgei	r4,r3,16
     c7c:	2000e01e 	bne	r4,zero,1000 <_malloc_r+0x4b4>
     c80:	1800e10e 	bge	r3,zero,1008 <_malloc_r+0x4bc>
     c84:	84000317 	ldw	r16,12(r16)
     c88:	2c3ff81e 	bne	r5,r16,c6c <_malloc_r+0x120>
     c8c:	9c000417 	ldw	r16,16(r19)
     c90:	02000074 	movhi	r8,1
     c94:	42019904 	addi	r8,r8,1636
     c98:	82006c26 	beq	r16,r8,e4c <_malloc_r+0x300>
     c9c:	80c00117 	ldw	r3,4(r16)
     ca0:	00bfff04 	movi	r2,-4
     ca4:	1884703a 	and	r2,r3,r2
     ca8:	1447c83a 	sub	r3,r2,r17
     cac:	19000410 	cmplti	r4,r3,16
     cb0:	20011526 	beq	r4,zero,1108 <_malloc_r+0x5bc>
     cb4:	9a000515 	stw	r8,20(r19)
     cb8:	9a000415 	stw	r8,16(r19)
     cbc:	18010a0e 	bge	r3,zero,10e8 <_malloc_r+0x59c>
     cc0:	10c08028 	cmpgeui	r3,r2,512
     cc4:	1800d21e 	bne	r3,zero,1010 <_malloc_r+0x4c4>
     cc8:	1004d0fa 	srli	r2,r2,3
     ccc:	99400117 	ldw	r5,4(r19)
     cd0:	10c00044 	addi	r3,r2,1
     cd4:	1009d0ba 	srai	r4,r2,2
     cd8:	180690fa 	slli	r3,r3,3
     cdc:	00800044 	movi	r2,1
     ce0:	1104983a 	sll	r2,r2,r4
     ce4:	98c7883a 	add	r3,r19,r3
     ce8:	19000017 	ldw	r4,0(r3)
     cec:	1144b03a 	or	r2,r2,r5
     cf0:	197ffe04 	addi	r5,r3,-8
     cf4:	81400315 	stw	r5,12(r16)
     cf8:	81000215 	stw	r4,8(r16)
     cfc:	98800115 	stw	r2,4(r19)
     d00:	1c000015 	stw	r16,0(r3)
     d04:	24000315 	stw	r16,12(r4)
     d08:	3007d0ba 	srai	r3,r6,2
     d0c:	01000044 	movi	r4,1
     d10:	20c8983a 	sll	r4,r4,r3
     d14:	11005236 	bltu	r2,r4,e60 <_malloc_r+0x314>
     d18:	2086703a 	and	r3,r4,r2
     d1c:	18000a1e 	bne	r3,zero,d48 <_malloc_r+0x1fc>
     d20:	00ffff04 	movi	r3,-4
     d24:	2109883a 	add	r4,r4,r4
     d28:	30cc703a 	and	r6,r6,r3
     d2c:	2086703a 	and	r3,r4,r2
     d30:	31800104 	addi	r6,r6,4
     d34:	1800041e 	bne	r3,zero,d48 <_malloc_r+0x1fc>
     d38:	2109883a 	add	r4,r4,r4
     d3c:	2086703a 	and	r3,r4,r2
     d40:	31800104 	addi	r6,r6,4
     d44:	183ffc26 	beq	r3,zero,d38 <_malloc_r+0x1ec>
     d48:	027fff04 	movi	r9,-4
     d4c:	301490fa 	slli	r10,r6,3
     d50:	3017883a 	mov	r11,r6
     d54:	9a95883a 	add	r10,r19,r10
     d58:	500f883a 	mov	r7,r10
     d5c:	3c000317 	ldw	r16,12(r7)
     d60:	3c00cd26 	beq	r7,r16,1098 <_malloc_r+0x54c>
     d64:	80800117 	ldw	r2,4(r16)
     d68:	1244703a 	and	r2,r2,r9
     d6c:	1447c83a 	sub	r3,r2,r17
     d70:	19400408 	cmpgei	r5,r3,16
     d74:	2800081e 	bne	r5,zero,d98 <_malloc_r+0x24c>
     d78:	1800cc0e 	bge	r3,zero,10ac <_malloc_r+0x560>
     d7c:	84000317 	ldw	r16,12(r16)
     d80:	3c00c526 	beq	r7,r16,1098 <_malloc_r+0x54c>
     d84:	80800117 	ldw	r2,4(r16)
     d88:	1244703a 	and	r2,r2,r9
     d8c:	1447c83a 	sub	r3,r2,r17
     d90:	19400410 	cmplti	r5,r3,16
     d94:	283ff81e 	bne	r5,zero,d78 <_malloc_r+0x22c>
     d98:	81000317 	ldw	r4,12(r16)
     d9c:	81400217 	ldw	r5,8(r16)
     da0:	89800054 	ori	r6,r17,1
     da4:	81800115 	stw	r6,4(r16)
     da8:	29000315 	stw	r4,12(r5)
     dac:	21400215 	stw	r5,8(r4)
     db0:	8463883a 	add	r17,r16,r17
     db4:	9c400515 	stw	r17,20(r19)
     db8:	9c400415 	stw	r17,16(r19)
     dbc:	19000054 	ori	r4,r3,1
     dc0:	89000115 	stw	r4,4(r17)
     dc4:	8085883a 	add	r2,r16,r2
     dc8:	8a000315 	stw	r8,12(r17)
     dcc:	8a000215 	stw	r8,8(r17)
     dd0:	10c00015 	stw	r3,0(r2)
     dd4:	9009883a 	mov	r4,r18
     dd8:	000db6c0 	call	db6c <__malloc_unlock>
     ddc:	80800204 	addi	r2,r16,8
     de0:	00000306 	br	df0 <_malloc_r+0x2a4>
     de4:	00800304 	movi	r2,12
     de8:	90800015 	stw	r2,0(r18)
     dec:	0005883a 	mov	r2,zero
     df0:	dfc00917 	ldw	ra,36(sp)
     df4:	df000817 	ldw	fp,32(sp)
     df8:	ddc00717 	ldw	r23,28(sp)
     dfc:	dd800617 	ldw	r22,24(sp)
     e00:	dd400517 	ldw	r21,20(sp)
     e04:	dd000417 	ldw	r20,16(sp)
     e08:	dcc00317 	ldw	r19,12(sp)
     e0c:	dc800217 	ldw	r18,8(sp)
     e10:	dc400117 	ldw	r17,4(sp)
     e14:	dc000017 	ldw	r16,0(sp)
     e18:	dec00a04 	addi	sp,sp,40
     e1c:	f800283a 	ret
     e20:	01408004 	movi	r5,512
     e24:	01801004 	movi	r6,64
     e28:	02000fc4 	movi	r8,63
     e2c:	003f8006 	br	c30 <_malloc_r+0xe4>
     e30:	14000317 	ldw	r16,12(r2)
     e34:	31800084 	addi	r6,r6,2
     e38:	143f5f1e 	bne	r2,r16,bb8 <_malloc_r+0x6c>
     e3c:	9c000417 	ldw	r16,16(r19)
     e40:	02000074 	movhi	r8,1
     e44:	42019904 	addi	r8,r8,1636
     e48:	823f941e 	bne	r16,r8,c9c <_malloc_r+0x150>
     e4c:	3007d0ba 	srai	r3,r6,2
     e50:	01000044 	movi	r4,1
     e54:	98800117 	ldw	r2,4(r19)
     e58:	20c8983a 	sll	r4,r4,r3
     e5c:	113fae2e 	bgeu	r2,r4,d18 <_malloc_r+0x1cc>
     e60:	9c000217 	ldw	r16,8(r19)
     e64:	00bfff04 	movi	r2,-4
     e68:	85000117 	ldw	r20,4(r16)
     e6c:	a0ac703a 	and	r22,r20,r2
     e70:	b4400336 	bltu	r22,r17,e80 <_malloc_r+0x334>
     e74:	b445c83a 	sub	r2,r22,r17
     e78:	10c00408 	cmpgei	r3,r2,16
     e7c:	1800561e 	bne	r3,zero,fd8 <_malloc_r+0x48c>
     e80:	00800074 	movhi	r2,1
     e84:	10877d17 	ldw	r2,7668(r2)
     e88:	00c00074 	movhi	r3,1
     e8c:	1d0ea617 	ldw	r20,15000(r3)
     e90:	10bfffd8 	cmpnei	r2,r2,-1
     e94:	85ab883a 	add	r21,r16,r22
     e98:	8d29883a 	add	r20,r17,r20
     e9c:	1000c826 	beq	r2,zero,11c0 <_malloc_r+0x674>
     ea0:	a50403c4 	addi	r20,r20,4111
     ea4:	00bc0004 	movi	r2,-4096
     ea8:	a0a8703a 	and	r20,r20,r2
     eac:	a00b883a 	mov	r5,r20
     eb0:	9009883a 	mov	r4,r18
     eb4:	00019440 	call	1944 <_sbrk_r>
     eb8:	102f883a 	mov	r23,r2
     ebc:	10bfffd8 	cmpnei	r2,r2,-1
     ec0:	10009a26 	beq	r2,zero,112c <_malloc_r+0x5e0>
     ec4:	bd409836 	bltu	r23,r21,1128 <_malloc_r+0x5dc>
     ec8:	00800074 	movhi	r2,1
     ecc:	108eb417 	ldw	r2,15056(r2)
     ed0:	00c00074 	movhi	r3,1
     ed4:	a085883a 	add	r2,r20,r2
     ed8:	188eb415 	stw	r2,15056(r3)
     edc:	1007883a 	mov	r3,r2
     ee0:	adc0dd26 	beq	r21,r23,1258 <_malloc_r+0x70c>
     ee4:	00800074 	movhi	r2,1
     ee8:	10877d17 	ldw	r2,7668(r2)
     eec:	10bfffd8 	cmpnei	r2,r2,-1
     ef0:	1000e026 	beq	r2,zero,1274 <_malloc_r+0x728>
     ef4:	bd6bc83a 	sub	r21,r23,r21
     ef8:	a8c7883a 	add	r3,r21,r3
     efc:	00800074 	movhi	r2,1
     f00:	10ceb415 	stw	r3,15056(r2)
     f04:	bf0001cc 	andi	fp,r23,7
     f08:	e000b626 	beq	fp,zero,11e4 <_malloc_r+0x698>
     f0c:	bf2fc83a 	sub	r23,r23,fp
     f10:	bdc00204 	addi	r23,r23,8
     f14:	00840204 	movi	r2,4104
     f18:	1705c83a 	sub	r2,r2,fp
     f1c:	bd29883a 	add	r20,r23,r20
     f20:	1505c83a 	sub	r2,r2,r20
     f24:	1543ffcc 	andi	r21,r2,4095
     f28:	a80b883a 	mov	r5,r21
     f2c:	9009883a 	mov	r4,r18
     f30:	00019440 	call	1944 <_sbrk_r>
     f34:	10ffffe0 	cmpeqi	r3,r2,-1
     f38:	1800e41e 	bne	r3,zero,12cc <_malloc_r+0x780>
     f3c:	15c5c83a 	sub	r2,r2,r23
     f40:	1569883a 	add	r20,r2,r21
     f44:	00800074 	movhi	r2,1
     f48:	108eb417 	ldw	r2,15056(r2)
     f4c:	9dc00215 	stw	r23,8(r19)
     f50:	a5000054 	ori	r20,r20,1
     f54:	a885883a 	add	r2,r21,r2
     f58:	00c00074 	movhi	r3,1
     f5c:	188eb415 	stw	r2,15056(r3)
     f60:	bd000115 	stw	r20,4(r23)
     f64:	84c0c626 	beq	r16,r19,1280 <_malloc_r+0x734>
     f68:	b0c00428 	cmpgeui	r3,r22,16
     f6c:	1800c626 	beq	r3,zero,1288 <_malloc_r+0x73c>
     f70:	81000117 	ldw	r4,4(r16)
     f74:	017ffe04 	movi	r5,-8
     f78:	b0fffd04 	addi	r3,r22,-12
     f7c:	1946703a 	and	r3,r3,r5
     f80:	2100004c 	andi	r4,r4,1
     f84:	20c8b03a 	or	r4,r4,r3
     f88:	81000115 	stw	r4,4(r16)
     f8c:	01400144 	movi	r5,5
     f90:	80c9883a 	add	r4,r16,r3
     f94:	21400115 	stw	r5,4(r4)
     f98:	21400215 	stw	r5,8(r4)
     f9c:	18c00428 	cmpgeui	r3,r3,16
     fa0:	1800cf1e 	bne	r3,zero,12e0 <_malloc_r+0x794>
     fa4:	bd000117 	ldw	r20,4(r23)
     fa8:	b821883a 	mov	r16,r23
     fac:	00c00074 	movhi	r3,1
     fb0:	18cea517 	ldw	r3,14996(r3)
     fb4:	1880022e 	bgeu	r3,r2,fc0 <_malloc_r+0x474>
     fb8:	00c00074 	movhi	r3,1
     fbc:	188ea515 	stw	r2,14996(r3)
     fc0:	00c00074 	movhi	r3,1
     fc4:	18cea417 	ldw	r3,14992(r3)
     fc8:	18805a2e 	bgeu	r3,r2,1134 <_malloc_r+0x5e8>
     fcc:	00c00074 	movhi	r3,1
     fd0:	188ea415 	stw	r2,14992(r3)
     fd4:	00005706 	br	1134 <_malloc_r+0x5e8>
     fd8:	88c00054 	ori	r3,r17,1
     fdc:	80c00115 	stw	r3,4(r16)
     fe0:	8463883a 	add	r17,r16,r17
     fe4:	10800054 	ori	r2,r2,1
     fe8:	9c400215 	stw	r17,8(r19)
     fec:	88800115 	stw	r2,4(r17)
     ff0:	9009883a 	mov	r4,r18
     ff4:	000db6c0 	call	db6c <__malloc_unlock>
     ff8:	80800204 	addi	r2,r16,8
     ffc:	003f7c06 	br	df0 <_malloc_r+0x2a4>
    1000:	400d883a 	mov	r6,r8
    1004:	003f2106 	br	c8c <_malloc_r+0x140>
    1008:	81000317 	ldw	r4,12(r16)
    100c:	003eee06 	br	bc8 <_malloc_r+0x7c>
    1010:	1006d27a 	srli	r3,r2,9
    1014:	19000168 	cmpgeui	r4,r3,5
    1018:	20003e26 	beq	r4,zero,1114 <_malloc_r+0x5c8>
    101c:	19000568 	cmpgeui	r4,r3,21
    1020:	20007a1e 	bne	r4,zero,120c <_malloc_r+0x6c0>
    1024:	19401704 	addi	r5,r3,92
    1028:	280a90fa 	slli	r5,r5,3
    102c:	190016c4 	addi	r4,r3,91
    1030:	994b883a 	add	r5,r19,r5
    1034:	28c00017 	ldw	r3,0(r5)
    1038:	297ffe04 	addi	r5,r5,-8
    103c:	28c06226 	beq	r5,r3,11c8 <_malloc_r+0x67c>
    1040:	01ffff04 	movi	r7,-4
    1044:	19000117 	ldw	r4,4(r3)
    1048:	21c8703a 	and	r4,r4,r7
    104c:	1100022e 	bgeu	r2,r4,1058 <_malloc_r+0x50c>
    1050:	18c00217 	ldw	r3,8(r3)
    1054:	28fffb1e 	bne	r5,r3,1044 <_malloc_r+0x4f8>
    1058:	19400317 	ldw	r5,12(r3)
    105c:	98800117 	ldw	r2,4(r19)
    1060:	81400315 	stw	r5,12(r16)
    1064:	80c00215 	stw	r3,8(r16)
    1068:	2c000215 	stw	r16,8(r5)
    106c:	1c000315 	stw	r16,12(r3)
    1070:	003f2506 	br	d08 <_malloc_r+0x1bc>
    1074:	10c00568 	cmpgeui	r3,r2,21
    1078:	18003826 	beq	r3,zero,115c <_malloc_r+0x610>
    107c:	10c01568 	cmpgeui	r3,r2,85
    1080:	1800691e 	bne	r3,zero,1228 <_malloc_r+0x6dc>
    1084:	8804d33a 	srli	r2,r17,12
    1088:	11801bc4 	addi	r6,r2,111
    108c:	12001b84 	addi	r8,r2,110
    1090:	300a90fa 	slli	r5,r6,3
    1094:	003ee606 	br	c30 <_malloc_r+0xe4>
    1098:	5ac00044 	addi	r11,r11,1
    109c:	588000cc 	andi	r2,r11,3
    10a0:	39c00204 	addi	r7,r7,8
    10a4:	103f2d1e 	bne	r2,zero,d5c <_malloc_r+0x210>
    10a8:	00003306 	br	1178 <_malloc_r+0x62c>
    10ac:	8085883a 	add	r2,r16,r2
    10b0:	10c00117 	ldw	r3,4(r2)
    10b4:	81000317 	ldw	r4,12(r16)
    10b8:	81400217 	ldw	r5,8(r16)
    10bc:	18c00054 	ori	r3,r3,1
    10c0:	10c00115 	stw	r3,4(r2)
    10c4:	29000315 	stw	r4,12(r5)
    10c8:	21400215 	stw	r5,8(r4)
    10cc:	9009883a 	mov	r4,r18
    10d0:	000db6c0 	call	db6c <__malloc_unlock>
    10d4:	80800204 	addi	r2,r16,8
    10d8:	003f4506 	br	df0 <_malloc_r+0x2a4>
    10dc:	880cd0fa 	srli	r6,r17,3
    10e0:	88800204 	addi	r2,r17,8
    10e4:	003eae06 	br	ba0 <_malloc_r+0x54>
    10e8:	8085883a 	add	r2,r16,r2
    10ec:	10c00117 	ldw	r3,4(r2)
    10f0:	9009883a 	mov	r4,r18
    10f4:	18c00054 	ori	r3,r3,1
    10f8:	10c00115 	stw	r3,4(r2)
    10fc:	000db6c0 	call	db6c <__malloc_unlock>
    1100:	80800204 	addi	r2,r16,8
    1104:	003f3a06 	br	df0 <_malloc_r+0x2a4>
    1108:	89000054 	ori	r4,r17,1
    110c:	81000115 	stw	r4,4(r16)
    1110:	003f2706 	br	db0 <_malloc_r+0x264>
    1114:	1006d1ba 	srli	r3,r2,6
    1118:	19400e44 	addi	r5,r3,57
    111c:	19000e04 	addi	r4,r3,56
    1120:	280a90fa 	slli	r5,r5,3
    1124:	003fc206 	br	1030 <_malloc_r+0x4e4>
    1128:	84c04626 	beq	r16,r19,1244 <_malloc_r+0x6f8>
    112c:	9c000217 	ldw	r16,8(r19)
    1130:	85000117 	ldw	r20,4(r16)
    1134:	00bfff04 	movi	r2,-4
    1138:	a0a8703a 	and	r20,r20,r2
    113c:	a445c83a 	sub	r2,r20,r17
    1140:	a4400236 	bltu	r20,r17,114c <_malloc_r+0x600>
    1144:	10c00408 	cmpgei	r3,r2,16
    1148:	183fa31e 	bne	r3,zero,fd8 <_malloc_r+0x48c>
    114c:	9009883a 	mov	r4,r18
    1150:	000db6c0 	call	db6c <__malloc_unlock>
    1154:	0005883a 	mov	r2,zero
    1158:	003f2506 	br	df0 <_malloc_r+0x2a4>
    115c:	11801704 	addi	r6,r2,92
    1160:	120016c4 	addi	r8,r2,91
    1164:	300a90fa 	slli	r5,r6,3
    1168:	003eb106 	br	c30 <_malloc_r+0xe4>
    116c:	50800217 	ldw	r2,8(r10)
    1170:	31bfffc4 	addi	r6,r6,-1
    1174:	1280701e 	bne	r2,r10,1338 <_malloc_r+0x7ec>
    1178:	308000cc 	andi	r2,r6,3
    117c:	52bffe04 	addi	r10,r10,-8
    1180:	103ffa1e 	bne	r2,zero,116c <_malloc_r+0x620>
    1184:	98c00117 	ldw	r3,4(r19)
    1188:	0104303a 	nor	r2,zero,r4
    118c:	10c4703a 	and	r2,r2,r3
    1190:	98800115 	stw	r2,4(r19)
    1194:	2109883a 	add	r4,r4,r4
    1198:	113f3136 	bltu	r2,r4,e60 <_malloc_r+0x314>
    119c:	203f3026 	beq	r4,zero,e60 <_malloc_r+0x314>
    11a0:	2086703a 	and	r3,r4,r2
    11a4:	1800041e 	bne	r3,zero,11b8 <_malloc_r+0x66c>
    11a8:	2109883a 	add	r4,r4,r4
    11ac:	2086703a 	and	r3,r4,r2
    11b0:	5ac00104 	addi	r11,r11,4
    11b4:	183ffc26 	beq	r3,zero,11a8 <_malloc_r+0x65c>
    11b8:	580d883a 	mov	r6,r11
    11bc:	003ee306 	br	d4c <_malloc_r+0x200>
    11c0:	a5000404 	addi	r20,r20,16
    11c4:	003f3906 	br	eac <_malloc_r+0x360>
    11c8:	2009d0ba 	srai	r4,r4,2
    11cc:	00800044 	movi	r2,1
    11d0:	99c00117 	ldw	r7,4(r19)
    11d4:	1104983a 	sll	r2,r2,r4
    11d8:	11c4b03a 	or	r2,r2,r7
    11dc:	98800115 	stw	r2,4(r19)
    11e0:	003f9f06 	br	1060 <_malloc_r+0x514>
    11e4:	bd05883a 	add	r2,r23,r20
    11e8:	0085c83a 	sub	r2,zero,r2
    11ec:	1543ffcc 	andi	r21,r2,4095
    11f0:	a80b883a 	mov	r5,r21
    11f4:	9009883a 	mov	r4,r18
    11f8:	00019440 	call	1944 <_sbrk_r>
    11fc:	10ffffe0 	cmpeqi	r3,r2,-1
    1200:	183f4e26 	beq	r3,zero,f3c <_malloc_r+0x3f0>
    1204:	002b883a 	mov	r21,zero
    1208:	003f4e06 	br	f44 <_malloc_r+0x3f8>
    120c:	19001568 	cmpgeui	r4,r3,85
    1210:	2000201e 	bne	r4,zero,1294 <_malloc_r+0x748>
    1214:	1006d33a 	srli	r3,r2,12
    1218:	19401bc4 	addi	r5,r3,111
    121c:	19001b84 	addi	r4,r3,110
    1220:	280a90fa 	slli	r5,r5,3
    1224:	003f8206 	br	1030 <_malloc_r+0x4e4>
    1228:	10c05568 	cmpgeui	r3,r2,341
    122c:	1800201e 	bne	r3,zero,12b0 <_malloc_r+0x764>
    1230:	8804d3fa 	srli	r2,r17,15
    1234:	11801e04 	addi	r6,r2,120
    1238:	12001dc4 	addi	r8,r2,119
    123c:	300a90fa 	slli	r5,r6,3
    1240:	003e7b06 	br	c30 <_malloc_r+0xe4>
    1244:	00800074 	movhi	r2,1
    1248:	10ceb417 	ldw	r3,15056(r2)
    124c:	a0c7883a 	add	r3,r20,r3
    1250:	10ceb415 	stw	r3,15056(r2)
    1254:	003f2306 	br	ee4 <_malloc_r+0x398>
    1258:	a903ffcc 	andi	r4,r21,4095
    125c:	203f211e 	bne	r4,zero,ee4 <_malloc_r+0x398>
    1260:	9c000217 	ldw	r16,8(r19)
    1264:	b529883a 	add	r20,r22,r20
    1268:	a5000054 	ori	r20,r20,1
    126c:	85000115 	stw	r20,4(r16)
    1270:	003f4e06 	br	fac <_malloc_r+0x460>
    1274:	00800074 	movhi	r2,1
    1278:	15c77d15 	stw	r23,7668(r2)
    127c:	003f2106 	br	f04 <_malloc_r+0x3b8>
    1280:	b821883a 	mov	r16,r23
    1284:	003f4906 	br	fac <_malloc_r+0x460>
    1288:	00800044 	movi	r2,1
    128c:	b8800115 	stw	r2,4(r23)
    1290:	003fae06 	br	114c <_malloc_r+0x600>
    1294:	19005568 	cmpgeui	r4,r3,341
    1298:	2000191e 	bne	r4,zero,1300 <_malloc_r+0x7b4>
    129c:	1006d3fa 	srli	r3,r2,15
    12a0:	19401e04 	addi	r5,r3,120
    12a4:	19001dc4 	addi	r4,r3,119
    12a8:	280a90fa 	slli	r5,r5,3
    12ac:	003f6006 	br	1030 <_malloc_r+0x4e4>
    12b0:	10815568 	cmpgeui	r2,r2,1365
    12b4:	1000191e 	bne	r2,zero,131c <_malloc_r+0x7d0>
    12b8:	8804d4ba 	srli	r2,r17,18
    12bc:	11801f44 	addi	r6,r2,125
    12c0:	12001f04 	addi	r8,r2,124
    12c4:	300a90fa 	slli	r5,r6,3
    12c8:	003e5906 	br	c30 <_malloc_r+0xe4>
    12cc:	e73ffe04 	addi	fp,fp,-8
    12d0:	a729883a 	add	r20,r20,fp
    12d4:	a5e9c83a 	sub	r20,r20,r23
    12d8:	002b883a 	mov	r21,zero
    12dc:	003f1906 	br	f44 <_malloc_r+0x3f8>
    12e0:	81400204 	addi	r5,r16,8
    12e4:	9009883a 	mov	r4,r18
    12e8:	00060300 	call	6030 <_free_r>
    12ec:	9c000217 	ldw	r16,8(r19)
    12f0:	00800074 	movhi	r2,1
    12f4:	108eb417 	ldw	r2,15056(r2)
    12f8:	85000117 	ldw	r20,4(r16)
    12fc:	003f2b06 	br	fac <_malloc_r+0x460>
    1300:	18c15568 	cmpgeui	r3,r3,1365
    1304:	1800091e 	bne	r3,zero,132c <_malloc_r+0x7e0>
    1308:	1006d4ba 	srli	r3,r2,18
    130c:	19401f44 	addi	r5,r3,125
    1310:	19001f04 	addi	r4,r3,124
    1314:	280a90fa 	slli	r5,r5,3
    1318:	003f4506 	br	1030 <_malloc_r+0x4e4>
    131c:	0140fe04 	movi	r5,1016
    1320:	01801fc4 	movi	r6,127
    1324:	02001f84 	movi	r8,126
    1328:	003e4106 	br	c30 <_malloc_r+0xe4>
    132c:	0140fe04 	movi	r5,1016
    1330:	01001f84 	movi	r4,126
    1334:	003f3e06 	br	1030 <_malloc_r+0x4e4>
    1338:	98800117 	ldw	r2,4(r19)
    133c:	003f9506 	br	1194 <_malloc_r+0x648>

00001340 <memchr>:
    1340:	208000cc 	andi	r2,r4,3
    1344:	280f883a 	mov	r7,r5
    1348:	10003526 	beq	r2,zero,1420 <memchr+0xe0>
    134c:	30bfffc4 	addi	r2,r6,-1
    1350:	30001926 	beq	r6,zero,13b8 <memchr+0x78>
    1354:	20c00003 	ldbu	r3,0(r4)
    1358:	29803fcc 	andi	r6,r5,255
    135c:	30c0061e 	bne	r6,r3,1378 <memchr+0x38>
    1360:	00001706 	br	13c0 <memchr+0x80>
    1364:	10bfffc4 	addi	r2,r2,-1
    1368:	10ffffe0 	cmpeqi	r3,r2,-1
    136c:	1800121e 	bne	r3,zero,13b8 <memchr+0x78>
    1370:	20c00003 	ldbu	r3,0(r4)
    1374:	19801226 	beq	r3,r6,13c0 <memchr+0x80>
    1378:	21000044 	addi	r4,r4,1
    137c:	20c000cc 	andi	r3,r4,3
    1380:	183ff81e 	bne	r3,zero,1364 <memchr+0x24>
    1384:	10c00128 	cmpgeui	r3,r2,4
    1388:	18000f1e 	bne	r3,zero,13c8 <memchr+0x88>
    138c:	10000a26 	beq	r2,zero,13b8 <memchr+0x78>
    1390:	20c00003 	ldbu	r3,0(r4)
    1394:	29403fcc 	andi	r5,r5,255
    1398:	19400926 	beq	r3,r5,13c0 <memchr+0x80>
    139c:	2085883a 	add	r2,r4,r2
    13a0:	39403fcc 	andi	r5,r7,255
    13a4:	00000206 	br	13b0 <memchr+0x70>
    13a8:	20c00003 	ldbu	r3,0(r4)
    13ac:	19400426 	beq	r3,r5,13c0 <memchr+0x80>
    13b0:	21000044 	addi	r4,r4,1
    13b4:	113ffc1e 	bne	r2,r4,13a8 <memchr+0x68>
    13b8:	0005883a 	mov	r2,zero
    13bc:	f800283a 	ret
    13c0:	2005883a 	mov	r2,r4
    13c4:	f800283a 	ret
    13c8:	280c923a 	slli	r6,r5,8
    13cc:	2a403fcc 	andi	r9,r5,255
    13d0:	02bfbff4 	movhi	r10,65279
    13d4:	31bfffcc 	andi	r6,r6,65535
    13d8:	3246b03a 	or	r3,r6,r9
    13dc:	1812943a 	slli	r9,r3,16
    13e0:	02202074 	movhi	r8,32897
    13e4:	52bfbfc4 	addi	r10,r10,-257
    13e8:	48d2b03a 	or	r9,r9,r3
    13ec:	42202004 	addi	r8,r8,-32640
    13f0:	20c00017 	ldw	r3,0(r4)
    13f4:	48c6f03a 	xor	r3,r9,r3
    13f8:	1a8d883a 	add	r6,r3,r10
    13fc:	00c6303a 	nor	r3,zero,r3
    1400:	30c6703a 	and	r3,r6,r3
    1404:	1a06703a 	and	r3,r3,r8
    1408:	183fe11e 	bne	r3,zero,1390 <memchr+0x50>
    140c:	10bfff04 	addi	r2,r2,-4
    1410:	10c00128 	cmpgeui	r3,r2,4
    1414:	21000104 	addi	r4,r4,4
    1418:	183ff51e 	bne	r3,zero,13f0 <memchr+0xb0>
    141c:	003fdb06 	br	138c <memchr+0x4c>
    1420:	3005883a 	mov	r2,r6
    1424:	003fd706 	br	1384 <memchr+0x44>

00001428 <memcpy>:
    1428:	30c00430 	cmpltui	r3,r6,16
    142c:	2005883a 	mov	r2,r4
    1430:	18002d1e 	bne	r3,zero,14e8 <memcpy+0xc0>
    1434:	2906b03a 	or	r3,r5,r4
    1438:	18c000cc 	andi	r3,r3,3
    143c:	1800351e 	bne	r3,zero,1514 <memcpy+0xec>
    1440:	32fffc04 	addi	r11,r6,-16
    1444:	5816d13a 	srli	r11,r11,4
    1448:	2007883a 	mov	r3,r4
    144c:	280f883a 	mov	r7,r5
    1450:	5ac00044 	addi	r11,r11,1
    1454:	5816913a 	slli	r11,r11,4
    1458:	22c9883a 	add	r4,r4,r11
    145c:	3a000017 	ldw	r8,0(r7)
    1460:	3a800117 	ldw	r10,4(r7)
    1464:	3a400217 	ldw	r9,8(r7)
    1468:	39c00404 	addi	r7,r7,16
    146c:	1a000015 	stw	r8,0(r3)
    1470:	3a3fff17 	ldw	r8,-4(r7)
    1474:	1a800115 	stw	r10,4(r3)
    1478:	1a400215 	stw	r9,8(r3)
    147c:	18c00404 	addi	r3,r3,16
    1480:	1a3fff15 	stw	r8,-4(r3)
    1484:	20fff51e 	bne	r4,r3,145c <memcpy+0x34>
    1488:	3100030c 	andi	r4,r6,12
    148c:	2acb883a 	add	r5,r5,r11
    1490:	320003cc 	andi	r8,r6,15
    1494:	20002226 	beq	r4,zero,1520 <memcpy+0xf8>
    1498:	2809883a 	mov	r4,r5
    149c:	1813883a 	mov	r9,r3
    14a0:	21000104 	addi	r4,r4,4
    14a4:	22bfff17 	ldw	r10,-4(r4)
    14a8:	410fc83a 	sub	r7,r8,r4
    14ac:	4a400104 	addi	r9,r9,4
    14b0:	29cf883a 	add	r7,r5,r7
    14b4:	4abfff15 	stw	r10,-4(r9)
    14b8:	39c00128 	cmpgeui	r7,r7,4
    14bc:	383ff81e 	bne	r7,zero,14a0 <memcpy+0x78>
    14c0:	413fff04 	addi	r4,r8,-4
    14c4:	2008d0ba 	srli	r4,r4,2
    14c8:	318000cc 	andi	r6,r6,3
    14cc:	31ffffc4 	addi	r7,r6,-1
    14d0:	21000044 	addi	r4,r4,1
    14d4:	200890ba 	slli	r4,r4,2
    14d8:	1907883a 	add	r3,r3,r4
    14dc:	290b883a 	add	r5,r5,r4
    14e0:	3000041e 	bne	r6,zero,14f4 <memcpy+0xcc>
    14e4:	f800283a 	ret
    14e8:	2007883a 	mov	r3,r4
    14ec:	31ffffc4 	addi	r7,r6,-1
    14f0:	303ffc26 	beq	r6,zero,14e4 <memcpy+0xbc>
    14f4:	39c00044 	addi	r7,r7,1
    14f8:	19cf883a 	add	r7,r3,r7
    14fc:	29400044 	addi	r5,r5,1
    1500:	29bfffc3 	ldbu	r6,-1(r5)
    1504:	18c00044 	addi	r3,r3,1
    1508:	19bfffc5 	stb	r6,-1(r3)
    150c:	19fffb1e 	bne	r3,r7,14fc <memcpy+0xd4>
    1510:	f800283a 	ret
    1514:	31ffffc4 	addi	r7,r6,-1
    1518:	2007883a 	mov	r3,r4
    151c:	003ff506 	br	14f4 <memcpy+0xcc>
    1520:	400d883a 	mov	r6,r8
    1524:	003ff106 	br	14ec <memcpy+0xc4>

00001528 <memset>:
    1528:	20c000cc 	andi	r3,r4,3
    152c:	2005883a 	mov	r2,r4
    1530:	18003626 	beq	r3,zero,160c <memset+0xe4>
    1534:	31ffffc4 	addi	r7,r6,-1
    1538:	30003326 	beq	r6,zero,1608 <memset+0xe0>
    153c:	2811883a 	mov	r8,r5
    1540:	2007883a 	mov	r3,r4
    1544:	00000306 	br	1554 <memset+0x2c>
    1548:	39ffffc4 	addi	r7,r7,-1
    154c:	39bfffe0 	cmpeqi	r6,r7,-1
    1550:	30002d1e 	bne	r6,zero,1608 <memset+0xe0>
    1554:	18c00044 	addi	r3,r3,1
    1558:	1a3fffc5 	stb	r8,-1(r3)
    155c:	198000cc 	andi	r6,r3,3
    1560:	303ff91e 	bne	r6,zero,1548 <memset+0x20>
    1564:	39000130 	cmpltui	r4,r7,4
    1568:	2000221e 	bne	r4,zero,15f4 <memset+0xcc>
    156c:	29003fcc 	andi	r4,r5,255
    1570:	200c923a 	slli	r6,r4,8
    1574:	3a000430 	cmpltui	r8,r7,16
    1578:	3108b03a 	or	r4,r6,r4
    157c:	200c943a 	slli	r6,r4,16
    1580:	310cb03a 	or	r6,r6,r4
    1584:	40000e1e 	bne	r8,zero,15c0 <memset+0x98>
    1588:	3a3ffc04 	addi	r8,r7,-16
    158c:	4010d13a 	srli	r8,r8,4
    1590:	42000044 	addi	r8,r8,1
    1594:	4010913a 	slli	r8,r8,4
    1598:	1a11883a 	add	r8,r3,r8
    159c:	19800015 	stw	r6,0(r3)
    15a0:	19800115 	stw	r6,4(r3)
    15a4:	19800215 	stw	r6,8(r3)
    15a8:	18c00404 	addi	r3,r3,16
    15ac:	19bfff15 	stw	r6,-4(r3)
    15b0:	40fffa1e 	bne	r8,r3,159c <memset+0x74>
    15b4:	3900030c 	andi	r4,r7,12
    15b8:	39c003cc 	andi	r7,r7,15
    15bc:	20000d26 	beq	r4,zero,15f4 <memset+0xcc>
    15c0:	1809883a 	mov	r4,r3
    15c4:	21000104 	addi	r4,r4,4
    15c8:	3911c83a 	sub	r8,r7,r4
    15cc:	1a11883a 	add	r8,r3,r8
    15d0:	21bfff15 	stw	r6,-4(r4)
    15d4:	42000128 	cmpgeui	r8,r8,4
    15d8:	403ffa1e 	bne	r8,zero,15c4 <memset+0x9c>
    15dc:	393fff04 	addi	r4,r7,-4
    15e0:	2008d0ba 	srli	r4,r4,2
    15e4:	39c000cc 	andi	r7,r7,3
    15e8:	21000044 	addi	r4,r4,1
    15ec:	200890ba 	slli	r4,r4,2
    15f0:	1907883a 	add	r3,r3,r4
    15f4:	38000426 	beq	r7,zero,1608 <memset+0xe0>
    15f8:	19cf883a 	add	r7,r3,r7
    15fc:	18c00044 	addi	r3,r3,1
    1600:	197fffc5 	stb	r5,-1(r3)
    1604:	38fffd1e 	bne	r7,r3,15fc <memset+0xd4>
    1608:	f800283a 	ret
    160c:	2007883a 	mov	r3,r4
    1610:	300f883a 	mov	r7,r6
    1614:	003fd306 	br	1564 <memset+0x3c>

00001618 <_printf_r>:
    1618:	defffd04 	addi	sp,sp,-12
    161c:	2805883a 	mov	r2,r5
    1620:	dfc00015 	stw	ra,0(sp)
    1624:	d9800115 	stw	r6,4(sp)
    1628:	d9c00215 	stw	r7,8(sp)
    162c:	21400217 	ldw	r5,8(r4)
    1630:	d9c00104 	addi	r7,sp,4
    1634:	100d883a 	mov	r6,r2
    1638:	0001de40 	call	1de4 <___vfprintf_internal_r>
    163c:	dfc00017 	ldw	ra,0(sp)
    1640:	dec00304 	addi	sp,sp,12
    1644:	f800283a 	ret

00001648 <printf>:
    1648:	defffc04 	addi	sp,sp,-16
    164c:	dfc00015 	stw	ra,0(sp)
    1650:	d9400115 	stw	r5,4(sp)
    1654:	d9800215 	stw	r6,8(sp)
    1658:	d9c00315 	stw	r7,12(sp)
    165c:	00800074 	movhi	r2,1
    1660:	10877c17 	ldw	r2,7664(r2)
    1664:	200b883a 	mov	r5,r4
    1668:	d9800104 	addi	r6,sp,4
    166c:	11000217 	ldw	r4,8(r2)
    1670:	0003f6c0 	call	3f6c <__vfprintf_internal>
    1674:	dfc00017 	ldw	ra,0(sp)
    1678:	dec00404 	addi	sp,sp,16
    167c:	f800283a 	ret

00001680 <_puts_r>:
    1680:	defff504 	addi	sp,sp,-44
    1684:	dc000815 	stw	r16,32(sp)
    1688:	2021883a 	mov	r16,r4
    168c:	2809883a 	mov	r4,r5
    1690:	dc400915 	stw	r17,36(sp)
    1694:	dfc00a15 	stw	ra,40(sp)
    1698:	2823883a 	mov	r17,r5
    169c:	0001adc0 	call	1adc <strlen>
    16a0:	11000044 	addi	r4,r2,1
    16a4:	d8800515 	stw	r2,20(sp)
    16a8:	00800044 	movi	r2,1
    16ac:	00c00074 	movhi	r3,1
    16b0:	d8800715 	stw	r2,28(sp)
    16b4:	d8800404 	addi	r2,sp,16
    16b8:	18ff0e04 	addi	r3,r3,-968
    16bc:	d8800115 	stw	r2,4(sp)
    16c0:	00800084 	movi	r2,2
    16c4:	dc400415 	stw	r17,16(sp)
    16c8:	d8c00615 	stw	r3,24(sp)
    16cc:	d9000315 	stw	r4,12(sp)
    16d0:	d8800215 	stw	r2,8(sp)
    16d4:	81400217 	ldw	r5,8(r16)
    16d8:	80000226 	beq	r16,zero,16e4 <_puts_r+0x64>
    16dc:	80800e17 	ldw	r2,56(r16)
    16e0:	10001326 	beq	r2,zero,1730 <_puts_r+0xb0>
    16e4:	2880030b 	ldhu	r2,12(r5)
    16e8:	10c8000c 	andi	r3,r2,8192
    16ec:	1800061e 	bne	r3,zero,1708 <_puts_r+0x88>
    16f0:	28c01917 	ldw	r3,100(r5)
    16f4:	0137ffc4 	movi	r4,-8193
    16f8:	10880014 	ori	r2,r2,8192
    16fc:	1906703a 	and	r3,r3,r4
    1700:	2880030d 	sth	r2,12(r5)
    1704:	28c01915 	stw	r3,100(r5)
    1708:	d9800104 	addi	r6,sp,4
    170c:	8009883a 	mov	r4,r16
    1710:	000632c0 	call	632c <__sfvwrite_r>
    1714:	10000b1e 	bne	r2,zero,1744 <_puts_r+0xc4>
    1718:	00800284 	movi	r2,10
    171c:	dfc00a17 	ldw	ra,40(sp)
    1720:	dc400917 	ldw	r17,36(sp)
    1724:	dc000817 	ldw	r16,32(sp)
    1728:	dec00b04 	addi	sp,sp,44
    172c:	f800283a 	ret
    1730:	8009883a 	mov	r4,r16
    1734:	d9400015 	stw	r5,0(sp)
    1738:	00009ac0 	call	9ac <__sinit>
    173c:	d9400017 	ldw	r5,0(sp)
    1740:	003fe806 	br	16e4 <_puts_r+0x64>
    1744:	00bfffc4 	movi	r2,-1
    1748:	003ff406 	br	171c <_puts_r+0x9c>

0000174c <puts>:
    174c:	00800074 	movhi	r2,1
    1750:	200b883a 	mov	r5,r4
    1754:	11077c17 	ldw	r4,7664(r2)
    1758:	00016801 	jmpi	1680 <_puts_r>

0000175c <lflush>:
    175c:	2080030b 	ldhu	r2,12(r4)
    1760:	1080024c 	andi	r2,r2,9
    1764:	10800258 	cmpnei	r2,r2,9
    1768:	10000226 	beq	r2,zero,1774 <lflush+0x18>
    176c:	0005883a 	mov	r2,zero
    1770:	f800283a 	ret
    1774:	0005eec1 	jmpi	5eec <fflush>

00001778 <__srefill_r>:
    1778:	defffc04 	addi	sp,sp,-16
    177c:	dc400115 	stw	r17,4(sp)
    1780:	dc000015 	stw	r16,0(sp)
    1784:	dfc00315 	stw	ra,12(sp)
    1788:	dc800215 	stw	r18,8(sp)
    178c:	2023883a 	mov	r17,r4
    1790:	2821883a 	mov	r16,r5
    1794:	20000226 	beq	r4,zero,17a0 <__srefill_r+0x28>
    1798:	20800e17 	ldw	r2,56(r4)
    179c:	10003a26 	beq	r2,zero,1888 <__srefill_r+0x110>
    17a0:	80c0030b 	ldhu	r3,12(r16)
    17a4:	1908000c 	andi	r4,r3,8192
    17a8:	1805883a 	mov	r2,r3
    17ac:	2000071e 	bne	r4,zero,17cc <__srefill_r+0x54>
    17b0:	81001917 	ldw	r4,100(r16)
    17b4:	18880014 	ori	r2,r3,8192
    17b8:	00f7ffc4 	movi	r3,-8193
    17bc:	20c8703a 	and	r4,r4,r3
    17c0:	8080030d 	sth	r2,12(r16)
    17c4:	1007883a 	mov	r3,r2
    17c8:	81001915 	stw	r4,100(r16)
    17cc:	80000115 	stw	zero,4(r16)
    17d0:	1100080c 	andi	r4,r2,32
    17d4:	20004d1e 	bne	r4,zero,190c <__srefill_r+0x194>
    17d8:	1100010c 	andi	r4,r2,4
    17dc:	20001c1e 	bne	r4,zero,1850 <__srefill_r+0xd8>
    17e0:	1100040c 	andi	r4,r2,16
    17e4:	20005126 	beq	r4,zero,192c <__srefill_r+0x1b4>
    17e8:	1080020c 	andi	r2,r2,8
    17ec:	1000371e 	bne	r2,zero,18cc <__srefill_r+0x154>
    17f0:	18c00114 	ori	r3,r3,4
    17f4:	80c0030d 	sth	r3,12(r16)
    17f8:	80800417 	ldw	r2,16(r16)
    17fc:	10003c26 	beq	r2,zero,18f0 <__srefill_r+0x178>
    1800:	8480030b 	ldhu	r18,12(r16)
    1804:	908000cc 	andi	r2,r18,3
    1808:	1000211e 	bne	r2,zero,1890 <__srefill_r+0x118>
    180c:	81800417 	ldw	r6,16(r16)
    1810:	80800817 	ldw	r2,32(r16)
    1814:	81c00517 	ldw	r7,20(r16)
    1818:	81400717 	ldw	r5,28(r16)
    181c:	81800015 	stw	r6,0(r16)
    1820:	8809883a 	mov	r4,r17
    1824:	103ee83a 	callr	r2
    1828:	1007883a 	mov	r3,r2
    182c:	80800115 	stw	r2,4(r16)
    1830:	0005883a 	mov	r2,zero
    1834:	00c0370e 	bge	zero,r3,1914 <__srefill_r+0x19c>
    1838:	dfc00317 	ldw	ra,12(sp)
    183c:	dc800217 	ldw	r18,8(sp)
    1840:	dc400117 	ldw	r17,4(sp)
    1844:	dc000017 	ldw	r16,0(sp)
    1848:	dec00404 	addi	sp,sp,16
    184c:	f800283a 	ret
    1850:	81400c17 	ldw	r5,48(r16)
    1854:	283fe826 	beq	r5,zero,17f8 <__srefill_r+0x80>
    1858:	80801004 	addi	r2,r16,64
    185c:	28800226 	beq	r5,r2,1868 <__srefill_r+0xf0>
    1860:	8809883a 	mov	r4,r17
    1864:	00060300 	call	6030 <_free_r>
    1868:	80800f17 	ldw	r2,60(r16)
    186c:	80000c15 	stw	zero,48(r16)
    1870:	80800115 	stw	r2,4(r16)
    1874:	103fe026 	beq	r2,zero,17f8 <__srefill_r+0x80>
    1878:	80c00e17 	ldw	r3,56(r16)
    187c:	0005883a 	mov	r2,zero
    1880:	80c00015 	stw	r3,0(r16)
    1884:	003fec06 	br	1838 <__srefill_r+0xc0>
    1888:	00009ac0 	call	9ac <__sinit>
    188c:	003fc406 	br	17a0 <__srefill_r+0x28>
    1890:	00800074 	movhi	r2,1
    1894:	11077b17 	ldw	r4,7660(r2)
    1898:	01400034 	movhi	r5,0
    189c:	00800044 	movi	r2,1
    18a0:	8080030d 	sth	r2,12(r16)
    18a4:	2945d704 	addi	r5,r5,5980
    18a8:	00009f40 	call	9f4 <_fwalk>
    18ac:	9080024c 	andi	r2,r18,9
    18b0:	8480030d 	sth	r18,12(r16)
    18b4:	10800258 	cmpnei	r2,r2,9
    18b8:	103fd41e 	bne	r2,zero,180c <__srefill_r+0x94>
    18bc:	800b883a 	mov	r5,r16
    18c0:	8809883a 	mov	r4,r17
    18c4:	0005c640 	call	5c64 <__sflush_r>
    18c8:	003fd006 	br	180c <__srefill_r+0x94>
    18cc:	800b883a 	mov	r5,r16
    18d0:	8809883a 	mov	r4,r17
    18d4:	0005e8c0 	call	5e8c <_fflush_r>
    18d8:	10000c1e 	bne	r2,zero,190c <__srefill_r+0x194>
    18dc:	80c0030b 	ldhu	r3,12(r16)
    18e0:	80000215 	stw	zero,8(r16)
    18e4:	80000615 	stw	zero,24(r16)
    18e8:	18fffdcc 	andi	r3,r3,65527
    18ec:	003fc006 	br	17f0 <__srefill_r+0x78>
    18f0:	800b883a 	mov	r5,r16
    18f4:	8809883a 	mov	r4,r17
    18f8:	000691c0 	call	691c <__smakebuf_r>
    18fc:	003fc006 	br	1800 <__srefill_r+0x88>
    1900:	10801014 	ori	r2,r2,64
    1904:	80000115 	stw	zero,4(r16)
    1908:	8080030d 	sth	r2,12(r16)
    190c:	00bfffc4 	movi	r2,-1
    1910:	003fc906 	br	1838 <__srefill_r+0xc0>
    1914:	8080030b 	ldhu	r2,12(r16)
    1918:	183ff91e 	bne	r3,zero,1900 <__srefill_r+0x188>
    191c:	10800814 	ori	r2,r2,32
    1920:	8080030d 	sth	r2,12(r16)
    1924:	00bfffc4 	movi	r2,-1
    1928:	003fc306 	br	1838 <__srefill_r+0xc0>
    192c:	00800244 	movi	r2,9
    1930:	88800015 	stw	r2,0(r17)
    1934:	18c01014 	ori	r3,r3,64
    1938:	80c0030d 	sth	r3,12(r16)
    193c:	00bfffc4 	movi	r2,-1
    1940:	003fbd06 	br	1838 <__srefill_r+0xc0>

00001944 <_sbrk_r>:
    1944:	defffe04 	addi	sp,sp,-8
    1948:	dc000015 	stw	r16,0(sp)
    194c:	00800074 	movhi	r2,1
    1950:	2021883a 	mov	r16,r4
    1954:	2809883a 	mov	r4,r5
    1958:	dfc00115 	stw	ra,4(sp)
    195c:	100ea715 	stw	zero,15004(r2)
    1960:	000dd440 	call	dd44 <sbrk>
    1964:	10ffffd8 	cmpnei	r3,r2,-1
    1968:	18000426 	beq	r3,zero,197c <_sbrk_r+0x38>
    196c:	dfc00117 	ldw	ra,4(sp)
    1970:	dc000017 	ldw	r16,0(sp)
    1974:	dec00204 	addi	sp,sp,8
    1978:	f800283a 	ret
    197c:	00c00074 	movhi	r3,1
    1980:	18cea717 	ldw	r3,15004(r3)
    1984:	183ff926 	beq	r3,zero,196c <_sbrk_r+0x28>
    1988:	80c00015 	stw	r3,0(r16)
    198c:	dfc00117 	ldw	ra,4(sp)
    1990:	dc000017 	ldw	r16,0(sp)
    1994:	dec00204 	addi	sp,sp,8
    1998:	f800283a 	ret

0000199c <__sread>:
    199c:	defffe04 	addi	sp,sp,-8
    19a0:	dc000015 	stw	r16,0(sp)
    19a4:	2821883a 	mov	r16,r5
    19a8:	2940038f 	ldh	r5,14(r5)
    19ac:	dfc00115 	stw	ra,4(sp)
    19b0:	0007b380 	call	7b38 <_read_r>
    19b4:	10000716 	blt	r2,zero,19d4 <__sread+0x38>
    19b8:	80c01417 	ldw	r3,80(r16)
    19bc:	1887883a 	add	r3,r3,r2
    19c0:	80c01415 	stw	r3,80(r16)
    19c4:	dfc00117 	ldw	ra,4(sp)
    19c8:	dc000017 	ldw	r16,0(sp)
    19cc:	dec00204 	addi	sp,sp,8
    19d0:	f800283a 	ret
    19d4:	80c0030b 	ldhu	r3,12(r16)
    19d8:	18fbffcc 	andi	r3,r3,61439
    19dc:	80c0030d 	sth	r3,12(r16)
    19e0:	dfc00117 	ldw	ra,4(sp)
    19e4:	dc000017 	ldw	r16,0(sp)
    19e8:	dec00204 	addi	sp,sp,8
    19ec:	f800283a 	ret

000019f0 <__seofread>:
    19f0:	0005883a 	mov	r2,zero
    19f4:	f800283a 	ret

000019f8 <__swrite>:
    19f8:	2880030b 	ldhu	r2,12(r5)
    19fc:	defffb04 	addi	sp,sp,-20
    1a00:	dcc00315 	stw	r19,12(sp)
    1a04:	dc800215 	stw	r18,8(sp)
    1a08:	dc400115 	stw	r17,4(sp)
    1a0c:	dc000015 	stw	r16,0(sp)
    1a10:	dfc00415 	stw	ra,16(sp)
    1a14:	10c0400c 	andi	r3,r2,256
    1a18:	2821883a 	mov	r16,r5
    1a1c:	2023883a 	mov	r17,r4
    1a20:	3025883a 	mov	r18,r6
    1a24:	3827883a 	mov	r19,r7
    1a28:	2940038f 	ldh	r5,14(r5)
    1a2c:	18000c1e 	bne	r3,zero,1a60 <__swrite+0x68>
    1a30:	10bbffcc 	andi	r2,r2,61439
    1a34:	980f883a 	mov	r7,r19
    1a38:	900d883a 	mov	r6,r18
    1a3c:	8809883a 	mov	r4,r17
    1a40:	8080030d 	sth	r2,12(r16)
    1a44:	dfc00417 	ldw	ra,16(sp)
    1a48:	dcc00317 	ldw	r19,12(sp)
    1a4c:	dc800217 	ldw	r18,8(sp)
    1a50:	dc400117 	ldw	r17,4(sp)
    1a54:	dc000017 	ldw	r16,0(sp)
    1a58:	dec00504 	addi	sp,sp,20
    1a5c:	00040441 	jmpi	4044 <_write_r>
    1a60:	01c00084 	movi	r7,2
    1a64:	000d883a 	mov	r6,zero
    1a68:	00068200 	call	6820 <_lseek_r>
    1a6c:	8080030b 	ldhu	r2,12(r16)
    1a70:	8140038f 	ldh	r5,14(r16)
    1a74:	003fee06 	br	1a30 <__swrite+0x38>

00001a78 <__sseek>:
    1a78:	defffe04 	addi	sp,sp,-8
    1a7c:	dc000015 	stw	r16,0(sp)
    1a80:	2821883a 	mov	r16,r5
    1a84:	2940038f 	ldh	r5,14(r5)
    1a88:	dfc00115 	stw	ra,4(sp)
    1a8c:	00068200 	call	6820 <_lseek_r>
    1a90:	10ffffd8 	cmpnei	r3,r2,-1
    1a94:	18000826 	beq	r3,zero,1ab8 <__sseek+0x40>
    1a98:	80c0030b 	ldhu	r3,12(r16)
    1a9c:	80801415 	stw	r2,80(r16)
    1aa0:	18c40014 	ori	r3,r3,4096
    1aa4:	80c0030d 	sth	r3,12(r16)
    1aa8:	dfc00117 	ldw	ra,4(sp)
    1aac:	dc000017 	ldw	r16,0(sp)
    1ab0:	dec00204 	addi	sp,sp,8
    1ab4:	f800283a 	ret
    1ab8:	80c0030b 	ldhu	r3,12(r16)
    1abc:	18fbffcc 	andi	r3,r3,61439
    1ac0:	80c0030d 	sth	r3,12(r16)
    1ac4:	dfc00117 	ldw	ra,4(sp)
    1ac8:	dc000017 	ldw	r16,0(sp)
    1acc:	dec00204 	addi	sp,sp,8
    1ad0:	f800283a 	ret

00001ad4 <__sclose>:
    1ad4:	2940038f 	ldh	r5,14(r5)
    1ad8:	00042081 	jmpi	4208 <_close_r>

00001adc <strlen>:
    1adc:	208000cc 	andi	r2,r4,3
    1ae0:	10002026 	beq	r2,zero,1b64 <strlen+0x88>
    1ae4:	20800007 	ldb	r2,0(r4)
    1ae8:	10002026 	beq	r2,zero,1b6c <strlen+0x90>
    1aec:	2005883a 	mov	r2,r4
    1af0:	00000206 	br	1afc <strlen+0x20>
    1af4:	10c00007 	ldb	r3,0(r2)
    1af8:	18001826 	beq	r3,zero,1b5c <strlen+0x80>
    1afc:	10800044 	addi	r2,r2,1
    1b00:	10c000cc 	andi	r3,r2,3
    1b04:	183ffb1e 	bne	r3,zero,1af4 <strlen+0x18>
    1b08:	11400017 	ldw	r5,0(r2)
    1b0c:	01ffbff4 	movhi	r7,65279
    1b10:	39ffbfc4 	addi	r7,r7,-257
    1b14:	29c7883a 	add	r3,r5,r7
    1b18:	01a02074 	movhi	r6,32897
    1b1c:	014a303a 	nor	r5,zero,r5
    1b20:	1946703a 	and	r3,r3,r5
    1b24:	31a02004 	addi	r6,r6,-32640
    1b28:	1986703a 	and	r3,r3,r6
    1b2c:	1800091e 	bne	r3,zero,1b54 <strlen+0x78>
    1b30:	10800104 	addi	r2,r2,4
    1b34:	11400017 	ldw	r5,0(r2)
    1b38:	29c7883a 	add	r3,r5,r7
    1b3c:	014a303a 	nor	r5,zero,r5
    1b40:	1946703a 	and	r3,r3,r5
    1b44:	1986703a 	and	r3,r3,r6
    1b48:	183ff926 	beq	r3,zero,1b30 <strlen+0x54>
    1b4c:	00000106 	br	1b54 <strlen+0x78>
    1b50:	10800044 	addi	r2,r2,1
    1b54:	10c00007 	ldb	r3,0(r2)
    1b58:	183ffd1e 	bne	r3,zero,1b50 <strlen+0x74>
    1b5c:	1105c83a 	sub	r2,r2,r4
    1b60:	f800283a 	ret
    1b64:	2005883a 	mov	r2,r4
    1b68:	003fe706 	br	1b08 <strlen+0x2c>
    1b6c:	0005883a 	mov	r2,zero
    1b70:	f800283a 	ret

00001b74 <_strtol_l.isra.0>:
    1b74:	defff404 	addi	sp,sp,-48
    1b78:	ddc00915 	stw	r23,36(sp)
    1b7c:	dd000615 	stw	r20,24(sp)
    1b80:	dcc00515 	stw	r19,20(sp)
    1b84:	dfc00b15 	stw	ra,44(sp)
    1b88:	df000a15 	stw	fp,40(sp)
    1b8c:	dd800815 	stw	r22,32(sp)
    1b90:	dd400715 	stw	r21,28(sp)
    1b94:	dc800415 	stw	r18,16(sp)
    1b98:	dc400315 	stw	r17,12(sp)
    1b9c:	dc000215 	stw	r16,8(sp)
    1ba0:	2827883a 	mov	r19,r5
    1ba4:	d9000115 	stw	r4,4(sp)
    1ba8:	3029883a 	mov	r20,r6
    1bac:	382f883a 	mov	r23,r7
    1bb0:	2807883a 	mov	r3,r5
    1bb4:	00000106 	br	1bbc <_strtol_l.isra.0+0x48>
    1bb8:	e007883a 	mov	r3,fp
    1bbc:	1f000044 	addi	fp,r3,1
    1bc0:	e43fffc3 	ldbu	r16,-1(fp)
    1bc4:	00800074 	movhi	r2,1
    1bc8:	8085883a 	add	r2,r16,r2
    1bcc:	10bf27c3 	ldbu	r2,-865(r2)
    1bd0:	1080020c 	andi	r2,r2,8
    1bd4:	103ff81e 	bne	r2,zero,1bb8 <_strtol_l.isra.0+0x44>
    1bd8:	80800b58 	cmpnei	r2,r16,45
    1bdc:	10005826 	beq	r2,zero,1d40 <_strtol_l.isra.0+0x1cc>
    1be0:	80800ae0 	cmpeqi	r2,r16,43
    1be4:	10003d1e 	bne	r2,zero,1cdc <_strtol_l.isra.0+0x168>
    1be8:	002b883a 	mov	r21,zero
    1bec:	b8003f26 	beq	r23,zero,1cec <_strtol_l.isra.0+0x178>
    1bf0:	b8800420 	cmpeqi	r2,r23,16
    1bf4:	1000561e 	bne	r2,zero,1d50 <_strtol_l.isra.0+0x1dc>
    1bf8:	b823883a 	mov	r17,r23
    1bfc:	04a00034 	movhi	r18,32768
    1c00:	a800011e 	bne	r21,zero,1c08 <_strtol_l.isra.0+0x94>
    1c04:	94bfffc4 	addi	r18,r18,-1
    1c08:	880b883a 	mov	r5,r17
    1c0c:	9009883a 	mov	r4,r18
    1c10:	000abdc0 	call	abdc <__umodsi3>
    1c14:	880b883a 	mov	r5,r17
    1c18:	9009883a 	mov	r4,r18
    1c1c:	d8800015 	stw	r2,0(sp)
    1c20:	000ab780 	call	ab78 <__udivsi3>
    1c24:	80fff404 	addi	r3,r16,-48
    1c28:	190002a8 	cmpgeui	r4,r3,10
    1c2c:	102d883a 	mov	r22,r2
    1c30:	000d883a 	mov	r6,zero
    1c34:	000b883a 	mov	r5,zero
    1c38:	20000f1e 	bne	r4,zero,1c78 <_strtol_l.isra.0+0x104>
    1c3c:	1821883a 	mov	r16,r3
    1c40:	85c0120e 	bge	r16,r23,1c8c <_strtol_l.isra.0+0x118>
    1c44:	30ffffe0 	cmpeqi	r3,r6,-1
    1c48:	1800061e 	bne	r3,zero,1c64 <_strtol_l.isra.0+0xf0>
    1c4c:	b1402e36 	bltu	r22,r5,1d08 <_strtol_l.isra.0+0x194>
    1c50:	b1402b26 	beq	r22,r5,1d00 <_strtol_l.isra.0+0x18c>
    1c54:	8809883a 	mov	r4,r17
    1c58:	000ac380 	call	ac38 <__mulsi3>
    1c5c:	808b883a 	add	r5,r16,r2
    1c60:	01800044 	movi	r6,1
    1c64:	e7000044 	addi	fp,fp,1
    1c68:	e43fffc3 	ldbu	r16,-1(fp)
    1c6c:	80fff404 	addi	r3,r16,-48
    1c70:	190002a8 	cmpgeui	r4,r3,10
    1c74:	203ff126 	beq	r4,zero,1c3c <_strtol_l.isra.0+0xc8>
    1c78:	80ffefc4 	addi	r3,r16,-65
    1c7c:	18c006a8 	cmpgeui	r3,r3,26
    1c80:	1800231e 	bne	r3,zero,1d10 <_strtol_l.isra.0+0x19c>
    1c84:	843ff244 	addi	r16,r16,-55
    1c88:	85ffee16 	blt	r16,r23,1c44 <_strtol_l.isra.0+0xd0>
    1c8c:	30bfffd8 	cmpnei	r2,r6,-1
    1c90:	10002426 	beq	r2,zero,1d24 <_strtol_l.isra.0+0x1b0>
    1c94:	a8000126 	beq	r21,zero,1c9c <_strtol_l.isra.0+0x128>
    1c98:	014bc83a 	sub	r5,zero,r5
    1c9c:	a0000226 	beq	r20,zero,1ca8 <_strtol_l.isra.0+0x134>
    1ca0:	3000411e 	bne	r6,zero,1da8 <_strtol_l.isra.0+0x234>
    1ca4:	a4c00015 	stw	r19,0(r20)
    1ca8:	2805883a 	mov	r2,r5
    1cac:	dfc00b17 	ldw	ra,44(sp)
    1cb0:	df000a17 	ldw	fp,40(sp)
    1cb4:	ddc00917 	ldw	r23,36(sp)
    1cb8:	dd800817 	ldw	r22,32(sp)
    1cbc:	dd400717 	ldw	r21,28(sp)
    1cc0:	dd000617 	ldw	r20,24(sp)
    1cc4:	dcc00517 	ldw	r19,20(sp)
    1cc8:	dc800417 	ldw	r18,16(sp)
    1ccc:	dc400317 	ldw	r17,12(sp)
    1cd0:	dc000217 	ldw	r16,8(sp)
    1cd4:	dec00c04 	addi	sp,sp,48
    1cd8:	f800283a 	ret
    1cdc:	e4000003 	ldbu	r16,0(fp)
    1ce0:	002b883a 	mov	r21,zero
    1ce4:	1f000084 	addi	fp,r3,2
    1ce8:	b83fc11e 	bne	r23,zero,1bf0 <_strtol_l.isra.0+0x7c>
    1cec:	80800c20 	cmpeqi	r2,r16,48
    1cf0:	1000241e 	bne	r2,zero,1d84 <_strtol_l.isra.0+0x210>
    1cf4:	04400284 	movi	r17,10
    1cf8:	05c00284 	movi	r23,10
    1cfc:	003fbf06 	br	1bfc <_strtol_l.isra.0+0x88>
    1d00:	d8800017 	ldw	r2,0(sp)
    1d04:	143fd30e 	bge	r2,r16,1c54 <_strtol_l.isra.0+0xe0>
    1d08:	01bfffc4 	movi	r6,-1
    1d0c:	003fd506 	br	1c64 <_strtol_l.isra.0+0xf0>
    1d10:	80bfe7c4 	addi	r2,r16,-97
    1d14:	108006a8 	cmpgeui	r2,r2,26
    1d18:	103fdc1e 	bne	r2,zero,1c8c <_strtol_l.isra.0+0x118>
    1d1c:	843fea44 	addi	r16,r16,-87
    1d20:	003fc706 	br	1c40 <_strtol_l.isra.0+0xcc>
    1d24:	d8c00117 	ldw	r3,4(sp)
    1d28:	00800884 	movi	r2,34
    1d2c:	18800015 	stw	r2,0(r3)
    1d30:	a0001b26 	beq	r20,zero,1da0 <_strtol_l.isra.0+0x22c>
    1d34:	e4ffffc4 	addi	r19,fp,-1
    1d38:	900b883a 	mov	r5,r18
    1d3c:	003fd906 	br	1ca4 <_strtol_l.isra.0+0x130>
    1d40:	e4000003 	ldbu	r16,0(fp)
    1d44:	05400044 	movi	r21,1
    1d48:	1f000084 	addi	fp,r3,2
    1d4c:	003fa706 	br	1bec <_strtol_l.isra.0+0x78>
    1d50:	80800c18 	cmpnei	r2,r16,48
    1d54:	1000041e 	bne	r2,zero,1d68 <_strtol_l.isra.0+0x1f4>
    1d58:	e0800003 	ldbu	r2,0(fp)
    1d5c:	108037cc 	andi	r2,r2,223
    1d60:	10801620 	cmpeqi	r2,r2,88
    1d64:	1000021e 	bne	r2,zero,1d70 <_strtol_l.isra.0+0x1fc>
    1d68:	04400404 	movi	r17,16
    1d6c:	003fa306 	br	1bfc <_strtol_l.isra.0+0x88>
    1d70:	e4000043 	ldbu	r16,1(fp)
    1d74:	04400404 	movi	r17,16
    1d78:	e7000084 	addi	fp,fp,2
    1d7c:	05c00404 	movi	r23,16
    1d80:	003f9e06 	br	1bfc <_strtol_l.isra.0+0x88>
    1d84:	e0800003 	ldbu	r2,0(fp)
    1d88:	108037cc 	andi	r2,r2,223
    1d8c:	10801620 	cmpeqi	r2,r2,88
    1d90:	103ff71e 	bne	r2,zero,1d70 <_strtol_l.isra.0+0x1fc>
    1d94:	04400204 	movi	r17,8
    1d98:	05c00204 	movi	r23,8
    1d9c:	003f9706 	br	1bfc <_strtol_l.isra.0+0x88>
    1da0:	900b883a 	mov	r5,r18
    1da4:	003fc006 	br	1ca8 <_strtol_l.isra.0+0x134>
    1da8:	2825883a 	mov	r18,r5
    1dac:	003fe106 	br	1d34 <_strtol_l.isra.0+0x1c0>

00001db0 <_strtol_r>:
    1db0:	0001b741 	jmpi	1b74 <_strtol_l.isra.0>

00001db4 <strtol_l>:
    1db4:	00800074 	movhi	r2,1
    1db8:	300f883a 	mov	r7,r6
    1dbc:	280d883a 	mov	r6,r5
    1dc0:	200b883a 	mov	r5,r4
    1dc4:	11077c17 	ldw	r4,7664(r2)
    1dc8:	0001b741 	jmpi	1b74 <_strtol_l.isra.0>

00001dcc <strtol>:
    1dcc:	00800074 	movhi	r2,1
    1dd0:	300f883a 	mov	r7,r6
    1dd4:	280d883a 	mov	r6,r5
    1dd8:	200b883a 	mov	r5,r4
    1ddc:	11077c17 	ldw	r4,7664(r2)
    1de0:	0001b741 	jmpi	1b74 <_strtol_l.isra.0>

00001de4 <___vfprintf_internal_r>:
    1de4:	deffbd04 	addi	sp,sp,-268
    1de8:	dfc04215 	stw	ra,264(sp)
    1dec:	dd003d15 	stw	r20,244(sp)
    1df0:	dcc03c15 	stw	r19,240(sp)
    1df4:	dc003915 	stw	r16,228(sp)
    1df8:	d9000515 	stw	r4,20(sp)
    1dfc:	2021883a 	mov	r16,r4
    1e00:	2827883a 	mov	r19,r5
    1e04:	3029883a 	mov	r20,r6
    1e08:	d9c00615 	stw	r7,24(sp)
    1e0c:	df004115 	stw	fp,260(sp)
    1e10:	ddc04015 	stw	r23,256(sp)
    1e14:	dd803f15 	stw	r22,252(sp)
    1e18:	dd403e15 	stw	r21,248(sp)
    1e1c:	dc803b15 	stw	r18,236(sp)
    1e20:	dc403a15 	stw	r17,232(sp)
    1e24:	00068080 	call	6808 <_localeconv_r>
    1e28:	10800017 	ldw	r2,0(r2)
    1e2c:	1009883a 	mov	r4,r2
    1e30:	d8800d15 	stw	r2,52(sp)
    1e34:	0001adc0 	call	1adc <strlen>
    1e38:	d8800b15 	stw	r2,44(sp)
    1e3c:	80000226 	beq	r16,zero,1e48 <___vfprintf_internal_r+0x64>
    1e40:	80800e17 	ldw	r2,56(r16)
    1e44:	1002de26 	beq	r2,zero,29c0 <___vfprintf_internal_r+0xbdc>
    1e48:	9880030b 	ldhu	r2,12(r19)
    1e4c:	10c8000c 	andi	r3,r2,8192
    1e50:	1800061e 	bne	r3,zero,1e6c <___vfprintf_internal_r+0x88>
    1e54:	98c01917 	ldw	r3,100(r19)
    1e58:	0137ffc4 	movi	r4,-8193
    1e5c:	10880014 	ori	r2,r2,8192
    1e60:	1906703a 	and	r3,r3,r4
    1e64:	9880030d 	sth	r2,12(r19)
    1e68:	98c01915 	stw	r3,100(r19)
    1e6c:	10c0020c 	andi	r3,r2,8
    1e70:	18009a26 	beq	r3,zero,20dc <___vfprintf_internal_r+0x2f8>
    1e74:	98c00417 	ldw	r3,16(r19)
    1e78:	18009826 	beq	r3,zero,20dc <___vfprintf_internal_r+0x2f8>
    1e7c:	1080068c 	andi	r2,r2,26
    1e80:	10800298 	cmpnei	r2,r2,10
    1e84:	10009d26 	beq	r2,zero,20fc <___vfprintf_internal_r+0x318>
    1e88:	ddc02904 	addi	r23,sp,164
    1e8c:	ddc01c15 	stw	r23,112(sp)
    1e90:	d8001e15 	stw	zero,120(sp)
    1e94:	d8001d15 	stw	zero,116(sp)
    1e98:	d8000815 	stw	zero,32(sp)
    1e9c:	d8000915 	stw	zero,36(sp)
    1ea0:	d8000a15 	stw	zero,40(sp)
    1ea4:	b811883a 	mov	r8,r23
    1ea8:	d8000c15 	stw	zero,48(sp)
    1eac:	d8001115 	stw	zero,68(sp)
    1eb0:	d8000415 	stw	zero,16(sp)
    1eb4:	a02d883a 	mov	r22,r20
    1eb8:	b0800007 	ldb	r2,0(r22)
    1ebc:	1000a226 	beq	r2,zero,2148 <___vfprintf_internal_r+0x364>
    1ec0:	10800960 	cmpeqi	r2,r2,37
    1ec4:	1005351e 	bne	r2,zero,339c <___vfprintf_internal_r+0x15b8>
    1ec8:	b021883a 	mov	r16,r22
    1ecc:	00000206 	br	1ed8 <___vfprintf_internal_r+0xf4>
    1ed0:	18009326 	beq	r3,zero,2120 <___vfprintf_internal_r+0x33c>
    1ed4:	8821883a 	mov	r16,r17
    1ed8:	80800047 	ldb	r2,1(r16)
    1edc:	84400044 	addi	r17,r16,1
    1ee0:	10c00958 	cmpnei	r3,r2,37
    1ee4:	103ffa1e 	bne	r2,zero,1ed0 <___vfprintf_internal_r+0xec>
    1ee8:	8da5c83a 	sub	r18,r17,r22
    1eec:	90009626 	beq	r18,zero,2148 <___vfprintf_internal_r+0x364>
    1ef0:	d8c01e17 	ldw	r3,120(sp)
    1ef4:	d8801d17 	ldw	r2,116(sp)
    1ef8:	45800015 	stw	r22,0(r8)
    1efc:	1c87883a 	add	r3,r3,r18
    1f00:	10800044 	addi	r2,r2,1
    1f04:	d8801d15 	stw	r2,116(sp)
    1f08:	44800115 	stw	r18,4(r8)
    1f0c:	d8c01e15 	stw	r3,120(sp)
    1f10:	10800208 	cmpgei	r2,r2,8
    1f14:	1000851e 	bne	r2,zero,212c <___vfprintf_internal_r+0x348>
    1f18:	42000204 	addi	r8,r8,8
    1f1c:	d8c00417 	ldw	r3,16(sp)
    1f20:	80800047 	ldb	r2,1(r16)
    1f24:	1c87883a 	add	r3,r3,r18
    1f28:	d8c00415 	stw	r3,16(sp)
    1f2c:	10008626 	beq	r2,zero,2148 <___vfprintf_internal_r+0x364>
    1f30:	8a800047 	ldb	r10,1(r17)
    1f34:	8d800044 	addi	r22,r17,1
    1f38:	d8001545 	stb	zero,85(sp)
    1f3c:	0009883a 	mov	r4,zero
    1f40:	000b883a 	mov	r5,zero
    1f44:	02ffffc4 	movi	r11,-1
    1f48:	0021883a 	mov	r16,zero
    1f4c:	0019883a 	mov	r12,zero
    1f50:	b5800044 	addi	r22,r22,1
    1f54:	5039883a 	mov	fp,r10
    1f58:	e0bff804 	addi	r2,fp,-32
    1f5c:	10c01668 	cmpgeui	r3,r2,89
    1f60:	18009d1e 	bne	r3,zero,21d8 <___vfprintf_internal_r+0x3f4>
    1f64:	100490ba 	slli	r2,r2,2
    1f68:	00c00034 	movhi	r3,0
    1f6c:	10c7883a 	add	r3,r2,r3
    1f70:	1887de17 	ldw	r2,8056(r3)
    1f74:	1000683a 	jmp	r2
    1f78:	000022b0 	cmpltui	zero,zero,138
    1f7c:	000021d8 	cmpnei	zero,zero,135
    1f80:	000021d8 	cmpnei	zero,zero,135
    1f84:	000022a4 	muli	zero,zero,138
    1f88:	000021d8 	cmpnei	zero,zero,135
    1f8c:	000021d8 	cmpnei	zero,zero,135
    1f90:	000021d8 	cmpnei	zero,zero,135
    1f94:	000021d8 	cmpnei	zero,zero,135
    1f98:	000021d8 	cmpnei	zero,zero,135
    1f9c:	000021d8 	cmpnei	zero,zero,135
    1fa0:	0000227c 	xorhi	zero,zero,137
    1fa4:	0000226c 	andhi	zero,zero,137
    1fa8:	000021d8 	cmpnei	zero,zero,135
    1fac:	00002254 	movui	zero,137
    1fb0:	00002208 	cmpgei	zero,zero,136
    1fb4:	000021d8 	cmpnei	zero,zero,135
    1fb8:	000021fc 	xorhi	zero,zero,135
    1fbc:	000021a0 	cmpeqi	zero,zero,134
    1fc0:	000021a0 	cmpeqi	zero,zero,134
    1fc4:	000021a0 	cmpeqi	zero,zero,134
    1fc8:	000021a0 	cmpeqi	zero,zero,134
    1fcc:	000021a0 	cmpeqi	zero,zero,134
    1fd0:	000021a0 	cmpeqi	zero,zero,134
    1fd4:	000021a0 	cmpeqi	zero,zero,134
    1fd8:	000021a0 	cmpeqi	zero,zero,134
    1fdc:	000021a0 	cmpeqi	zero,zero,134
    1fe0:	000021d8 	cmpnei	zero,zero,135
    1fe4:	000021d8 	cmpnei	zero,zero,135
    1fe8:	000021d8 	cmpnei	zero,zero,135
    1fec:	000021d8 	cmpnei	zero,zero,135
    1ff0:	000021d8 	cmpnei	zero,zero,135
    1ff4:	000021d8 	cmpnei	zero,zero,135
    1ff8:	000021d8 	cmpnei	zero,zero,135
    1ffc:	000021d8 	cmpnei	zero,zero,135
    2000:	000021d8 	cmpnei	zero,zero,135
    2004:	000021d8 	cmpnei	zero,zero,135
    2008:	000027c4 	movi	zero,159
    200c:	000026e4 	muli	zero,zero,155
    2010:	000021d8 	cmpnei	zero,zero,135
    2014:	000026e4 	muli	zero,zero,155
    2018:	000021d8 	cmpnei	zero,zero,135
    201c:	000021d8 	cmpnei	zero,zero,135
    2020:	000021d8 	cmpnei	zero,zero,135
    2024:	000021d8 	cmpnei	zero,zero,135
    2028:	000026d8 	cmpnei	zero,zero,155
    202c:	000021d8 	cmpnei	zero,zero,135
    2030:	000021d8 	cmpnei	zero,zero,135
    2034:	000026a4 	muli	zero,zero,154
    2038:	000021d8 	cmpnei	zero,zero,135
    203c:	000021d8 	cmpnei	zero,zero,135
    2040:	000021d8 	cmpnei	zero,zero,135
    2044:	000021d8 	cmpnei	zero,zero,135
    2048:	000021d8 	cmpnei	zero,zero,135
    204c:	000028e4 	muli	zero,zero,163
    2050:	000021d8 	cmpnei	zero,zero,135
    2054:	000021d8 	cmpnei	zero,zero,135
    2058:	0000289c 	xori	zero,zero,162
    205c:	000021d8 	cmpnei	zero,zero,135
    2060:	000021d8 	cmpnei	zero,zero,135
    2064:	000021d8 	cmpnei	zero,zero,135
    2068:	000021d8 	cmpnei	zero,zero,135
    206c:	000021d8 	cmpnei	zero,zero,135
    2070:	000021d8 	cmpnei	zero,zero,135
    2074:	000021d8 	cmpnei	zero,zero,135
    2078:	000021d8 	cmpnei	zero,zero,135
    207c:	000021d8 	cmpnei	zero,zero,135
    2080:	000021d8 	cmpnei	zero,zero,135
    2084:	00002434 	movhi	zero,144
    2088:	000023c0 	call	23c <_start+0x18>
    208c:	000026e4 	muli	zero,zero,155
    2090:	000026e4 	muli	zero,zero,155
    2094:	000026e4 	muli	zero,zero,155
    2098:	000029b4 	movhi	zero,166
    209c:	000023c0 	call	23c <_start+0x18>
    20a0:	000021d8 	cmpnei	zero,zero,135
    20a4:	000021d8 	cmpnei	zero,zero,135
    20a8:	000029a0 	cmpeqi	zero,zero,166
    20ac:	000021d8 	cmpnei	zero,zero,135
    20b0:	00002664 	muli	zero,zero,153
    20b4:	00002624 	muli	zero,zero,152
    20b8:	00002924 	muli	zero,zero,164
    20bc:	00002918 	cmpnei	zero,zero,164
    20c0:	000021d8 	cmpnei	zero,zero,135
    20c4:	00002364 	muli	zero,zero,141
    20c8:	000021d8 	cmpnei	zero,zero,135
    20cc:	00002324 	muli	zero,zero,140
    20d0:	000021d8 	cmpnei	zero,zero,135
    20d4:	000021d8 	cmpnei	zero,zero,135
    20d8:	000022dc 	xori	zero,zero,139
    20dc:	d9000517 	ldw	r4,20(sp)
    20e0:	980b883a 	mov	r5,r19
    20e4:	00040a80 	call	40a8 <__swsetup_r>
    20e8:	1007561e 	bne	r2,zero,3e44 <___vfprintf_internal_r+0x2060>
    20ec:	9880030b 	ldhu	r2,12(r19)
    20f0:	1080068c 	andi	r2,r2,26
    20f4:	10800298 	cmpnei	r2,r2,10
    20f8:	103f631e 	bne	r2,zero,1e88 <___vfprintf_internal_r+0xa4>
    20fc:	9880038f 	ldh	r2,14(r19)
    2100:	103f6116 	blt	r2,zero,1e88 <___vfprintf_internal_r+0xa4>
    2104:	d9c00617 	ldw	r7,24(sp)
    2108:	d9000517 	ldw	r4,20(sp)
    210c:	a00d883a 	mov	r6,r20
    2110:	980b883a 	mov	r5,r19
    2114:	0003f840 	call	3f84 <__sbprintf>
    2118:	d8800415 	stw	r2,16(sp)
    211c:	00001306 	br	216c <___vfprintf_internal_r+0x388>
    2120:	8da5c83a 	sub	r18,r17,r22
    2124:	903f8226 	beq	r18,zero,1f30 <___vfprintf_internal_r+0x14c>
    2128:	003f7106 	br	1ef0 <___vfprintf_internal_r+0x10c>
    212c:	d9000517 	ldw	r4,20(sp)
    2130:	d9801c04 	addi	r6,sp,112
    2134:	980b883a 	mov	r5,r19
    2138:	00082bc0 	call	82bc <__sprint_r>
    213c:	1000081e 	bne	r2,zero,2160 <___vfprintf_internal_r+0x37c>
    2140:	b811883a 	mov	r8,r23
    2144:	003f7506 	br	1f1c <___vfprintf_internal_r+0x138>
    2148:	d8801e17 	ldw	r2,120(sp)
    214c:	10000426 	beq	r2,zero,2160 <___vfprintf_internal_r+0x37c>
    2150:	d9000517 	ldw	r4,20(sp)
    2154:	d9801c04 	addi	r6,sp,112
    2158:	980b883a 	mov	r5,r19
    215c:	00082bc0 	call	82bc <__sprint_r>
    2160:	9880030b 	ldhu	r2,12(r19)
    2164:	1080100c 	andi	r2,r2,64
    2168:	1007361e 	bne	r2,zero,3e44 <___vfprintf_internal_r+0x2060>
    216c:	d8800417 	ldw	r2,16(sp)
    2170:	dfc04217 	ldw	ra,264(sp)
    2174:	df004117 	ldw	fp,260(sp)
    2178:	ddc04017 	ldw	r23,256(sp)
    217c:	dd803f17 	ldw	r22,252(sp)
    2180:	dd403e17 	ldw	r21,248(sp)
    2184:	dd003d17 	ldw	r20,244(sp)
    2188:	dcc03c17 	ldw	r19,240(sp)
    218c:	dc803b17 	ldw	r18,236(sp)
    2190:	dc403a17 	ldw	r17,232(sp)
    2194:	dc003917 	ldw	r16,228(sp)
    2198:	dec04304 	addi	sp,sp,268
    219c:	f800283a 	ret
    21a0:	0021883a 	mov	r16,zero
    21a4:	e0fff404 	addi	r3,fp,-48
    21a8:	800490ba 	slli	r2,r16,2
    21ac:	b5800044 	addi	r22,r22,1
    21b0:	b73fffc7 	ldb	fp,-1(r22)
    21b4:	1421883a 	add	r16,r2,r16
    21b8:	8421883a 	add	r16,r16,r16
    21bc:	1c21883a 	add	r16,r3,r16
    21c0:	e0fff404 	addi	r3,fp,-48
    21c4:	188002b0 	cmpltui	r2,r3,10
    21c8:	103ff71e 	bne	r2,zero,21a8 <___vfprintf_internal_r+0x3c4>
    21cc:	e0bff804 	addi	r2,fp,-32
    21d0:	10c01668 	cmpgeui	r3,r2,89
    21d4:	183f6326 	beq	r3,zero,1f64 <___vfprintf_internal_r+0x180>
    21d8:	21003fcc 	andi	r4,r4,255
    21dc:	2006741e 	bne	r4,zero,3bb0 <___vfprintf_internal_r+0x1dcc>
    21e0:	e03fd926 	beq	fp,zero,2148 <___vfprintf_internal_r+0x364>
    21e4:	df001f05 	stb	fp,124(sp)
    21e8:	d8001545 	stb	zero,85(sp)
    21ec:	05400044 	movi	r21,1
    21f0:	05000044 	movi	r20,1
    21f4:	dc401f04 	addi	r17,sp,124
    21f8:	00009706 	br	2458 <___vfprintf_internal_r+0x674>
    21fc:	63002014 	ori	r12,r12,128
    2200:	b2800007 	ldb	r10,0(r22)
    2204:	003f5206 	br	1f50 <___vfprintf_internal_r+0x16c>
    2208:	b7000007 	ldb	fp,0(r22)
    220c:	b0800044 	addi	r2,r22,1
    2210:	e0c00aa0 	cmpeqi	r3,fp,42
    2214:	1807491e 	bne	r3,zero,3f3c <___vfprintf_internal_r+0x2158>
    2218:	e0fff404 	addi	r3,fp,-48
    221c:	198002b0 	cmpltui	r6,r3,10
    2220:	102d883a 	mov	r22,r2
    2224:	0017883a 	mov	r11,zero
    2228:	303f4b26 	beq	r6,zero,1f58 <___vfprintf_internal_r+0x174>
    222c:	580490ba 	slli	r2,r11,2
    2230:	b5800044 	addi	r22,r22,1
    2234:	b73fffc7 	ldb	fp,-1(r22)
    2238:	12d7883a 	add	r11,r2,r11
    223c:	5ad7883a 	add	r11,r11,r11
    2240:	58d7883a 	add	r11,r11,r3
    2244:	e0fff404 	addi	r3,fp,-48
    2248:	188002b0 	cmpltui	r2,r3,10
    224c:	103ff71e 	bne	r2,zero,222c <___vfprintf_internal_r+0x448>
    2250:	003f4106 	br	1f58 <___vfprintf_internal_r+0x174>
    2254:	b7000003 	ldbu	fp,0(r22)
    2258:	e2803fcc 	andi	r10,fp,255
    225c:	5280201c 	xori	r10,r10,128
    2260:	63000114 	ori	r12,r12,4
    2264:	52bfe004 	addi	r10,r10,-128
    2268:	003f3906 	br	1f50 <___vfprintf_internal_r+0x16c>
    226c:	01000044 	movi	r4,1
    2270:	01400ac4 	movi	r5,43
    2274:	b2800007 	ldb	r10,0(r22)
    2278:	003f3506 	br	1f50 <___vfprintf_internal_r+0x16c>
    227c:	d8800617 	ldw	r2,24(sp)
    2280:	b7000003 	ldbu	fp,0(r22)
    2284:	14000017 	ldw	r16,0(r2)
    2288:	10800104 	addi	r2,r2,4
    228c:	8004da16 	blt	r16,zero,35f8 <___vfprintf_internal_r+0x1814>
    2290:	d8800615 	stw	r2,24(sp)
    2294:	e2803fcc 	andi	r10,fp,255
    2298:	5280201c 	xori	r10,r10,128
    229c:	52bfe004 	addi	r10,r10,-128
    22a0:	003f2b06 	br	1f50 <___vfprintf_internal_r+0x16c>
    22a4:	63000054 	ori	r12,r12,1
    22a8:	b2800007 	ldb	r10,0(r22)
    22ac:	003f2806 	br	1f50 <___vfprintf_internal_r+0x16c>
    22b0:	28803fcc 	andi	r2,r5,255
    22b4:	1080201c 	xori	r2,r2,128
    22b8:	10bfe004 	addi	r2,r2,-128
    22bc:	b7000003 	ldbu	fp,0(r22)
    22c0:	103ff41e 	bne	r2,zero,2294 <___vfprintf_internal_r+0x4b0>
    22c4:	e2803fcc 	andi	r10,fp,255
    22c8:	5280201c 	xori	r10,r10,128
    22cc:	01000044 	movi	r4,1
    22d0:	01400804 	movi	r5,32
    22d4:	52bfe004 	addi	r10,r10,-128
    22d8:	003f1d06 	br	1f50 <___vfprintf_internal_r+0x16c>
    22dc:	21003fcc 	andi	r4,r4,255
    22e0:	2006b81e 	bne	r4,zero,3dc4 <___vfprintf_internal_r+0x1fe0>
    22e4:	00800074 	movhi	r2,1
    22e8:	10bf1804 	addi	r2,r2,-928
    22ec:	d8800c15 	stw	r2,48(sp)
    22f0:	6080080c 	andi	r2,r12,32
    22f4:	10017026 	beq	r2,zero,28b8 <___vfprintf_internal_r+0xad4>
    22f8:	d8800617 	ldw	r2,24(sp)
    22fc:	15400017 	ldw	r21,0(r2)
    2300:	15000117 	ldw	r20,4(r2)
    2304:	10800204 	addi	r2,r2,8
    2308:	d8800615 	stw	r2,24(sp)
    230c:	6080004c 	andi	r2,r12,1
    2310:	10000226 	beq	r2,zero,231c <___vfprintf_internal_r+0x538>
    2314:	ad04b03a 	or	r2,r21,r20
    2318:	1004aa1e 	bne	r2,zero,35c4 <___vfprintf_internal_r+0x17e0>
    231c:	00800084 	movi	r2,2
    2320:	00018f06 	br	2960 <___vfprintf_internal_r+0xb7c>
    2324:	21003fcc 	andi	r4,r4,255
    2328:	2006a41e 	bne	r4,zero,3dbc <___vfprintf_internal_r+0x1fd8>
    232c:	6080080c 	andi	r2,r12,32
    2330:	1001b41e 	bne	r2,zero,2a04 <___vfprintf_internal_r+0xc20>
    2334:	d8800617 	ldw	r2,24(sp)
    2338:	60c0040c 	andi	r3,r12,16
    233c:	15400017 	ldw	r21,0(r2)
    2340:	10800104 	addi	r2,r2,4
    2344:	18016e1e 	bne	r3,zero,2900 <___vfprintf_internal_r+0xb1c>
    2348:	60c0100c 	andi	r3,r12,64
    234c:	1805a526 	beq	r3,zero,39e4 <___vfprintf_internal_r+0x1c00>
    2350:	d8800615 	stw	r2,24(sp)
    2354:	ad7fffcc 	andi	r21,r21,65535
    2358:	0029883a 	mov	r20,zero
    235c:	00800044 	movi	r2,1
    2360:	00017f06 	br	2960 <___vfprintf_internal_r+0xb7c>
    2364:	d8800617 	ldw	r2,24(sp)
    2368:	d8001545 	stb	zero,85(sp)
    236c:	14400017 	ldw	r17,0(r2)
    2370:	14800104 	addi	r18,r2,4
    2374:	8804ca26 	beq	r17,zero,36a0 <___vfprintf_internal_r+0x18bc>
    2378:	da000e15 	stw	r8,56(sp)
    237c:	db000715 	stw	r12,28(sp)
    2380:	58bfffe0 	cmpeqi	r2,r11,-1
    2384:	10056c1e 	bne	r2,zero,3938 <___vfprintf_internal_r+0x1b54>
    2388:	580d883a 	mov	r6,r11
    238c:	000b883a 	mov	r5,zero
    2390:	8809883a 	mov	r4,r17
    2394:	dac00615 	stw	r11,24(sp)
    2398:	00013400 	call	1340 <memchr>
    239c:	dac00617 	ldw	r11,24(sp)
    23a0:	db000717 	ldw	r12,28(sp)
    23a4:	da000e17 	ldw	r8,56(sp)
    23a8:	10066c26 	beq	r2,zero,3d5c <___vfprintf_internal_r+0x1f78>
    23ac:	1469c83a 	sub	r20,r2,r17
    23b0:	a02b883a 	mov	r21,r20
    23b4:	a005fc16 	blt	r20,zero,3ba8 <___vfprintf_internal_r+0x1dc4>
    23b8:	dc800615 	stw	r18,24(sp)
    23bc:	00002606 	br	2458 <___vfprintf_internal_r+0x674>
    23c0:	21003fcc 	andi	r4,r4,255
    23c4:	20067b1e 	bne	r4,zero,3db4 <___vfprintf_internal_r+0x1fd0>
    23c8:	6080080c 	andi	r2,r12,32
    23cc:	10017f1e 	bne	r2,zero,29cc <___vfprintf_internal_r+0xbe8>
    23d0:	d8800617 	ldw	r2,24(sp)
    23d4:	60c0040c 	andi	r3,r12,16
    23d8:	10800104 	addi	r2,r2,4
    23dc:	1801001e 	bne	r3,zero,27e0 <___vfprintf_internal_r+0x9fc>
    23e0:	60c0100c 	andi	r3,r12,64
    23e4:	1800fe26 	beq	r3,zero,27e0 <___vfprintf_internal_r+0x9fc>
    23e8:	d8c00617 	ldw	r3,24(sp)
    23ec:	d8800615 	stw	r2,24(sp)
    23f0:	1d40000f 	ldh	r21,0(r3)
    23f4:	a829d7fa 	srai	r20,r21,31
    23f8:	a005883a 	mov	r2,r20
    23fc:	1000fe16 	blt	r2,zero,27f8 <___vfprintf_internal_r+0xa14>
    2400:	58bfffd8 	cmpnei	r2,r11,-1
    2404:	db401543 	ldbu	r13,85(sp)
    2408:	10018526 	beq	r2,zero,2a20 <___vfprintf_internal_r+0xc3c>
    240c:	00ffdfc4 	movi	r3,-129
    2410:	ad04b03a 	or	r2,r21,r20
    2414:	60d8703a 	and	r12,r12,r3
    2418:	1001811e 	bne	r2,zero,2a20 <___vfprintf_internal_r+0xc3c>
    241c:	5801831e 	bne	r11,zero,2a2c <___vfprintf_internal_r+0xc48>
    2420:	6025883a 	mov	r18,r12
    2424:	0017883a 	mov	r11,zero
    2428:	0029883a 	mov	r20,zero
    242c:	b823883a 	mov	r17,r23
    2430:	00018306 	br	2a40 <___vfprintf_internal_r+0xc5c>
    2434:	d8c00617 	ldw	r3,24(sp)
    2438:	d8001545 	stb	zero,85(sp)
    243c:	05400044 	movi	r21,1
    2440:	18800017 	ldw	r2,0(r3)
    2444:	18c00104 	addi	r3,r3,4
    2448:	d8c00615 	stw	r3,24(sp)
    244c:	d8801f05 	stb	r2,124(sp)
    2450:	05000044 	movi	r20,1
    2454:	dc401f04 	addi	r17,sp,124
    2458:	6025883a 	mov	r18,r12
    245c:	0017883a 	mov	r11,zero
    2460:	d8000715 	stw	zero,28(sp)
    2464:	9380008c 	andi	r14,r18,2
    2468:	70000126 	beq	r14,zero,2470 <___vfprintf_internal_r+0x68c>
    246c:	ad400084 	addi	r21,r21,2
    2470:	9340210c 	andi	r13,r18,132
    2474:	d8c01e17 	ldw	r3,120(sp)
    2478:	6800021e 	bne	r13,zero,2484 <___vfprintf_internal_r+0x6a0>
    247c:	854fc83a 	sub	r7,r16,r21
    2480:	01c2ce16 	blt	zero,r7,2fbc <___vfprintf_internal_r+0x11d8>
    2484:	d8801547 	ldb	r2,85(sp)
    2488:	10000c26 	beq	r2,zero,24bc <___vfprintf_internal_r+0x6d8>
    248c:	d8801d17 	ldw	r2,116(sp)
    2490:	d9001544 	addi	r4,sp,85
    2494:	18c00044 	addi	r3,r3,1
    2498:	10800044 	addi	r2,r2,1
    249c:	41000015 	stw	r4,0(r8)
    24a0:	01000044 	movi	r4,1
    24a4:	d8801d15 	stw	r2,116(sp)
    24a8:	41000115 	stw	r4,4(r8)
    24ac:	d8c01e15 	stw	r3,120(sp)
    24b0:	10800208 	cmpgei	r2,r2,8
    24b4:	1002fb1e 	bne	r2,zero,30a4 <___vfprintf_internal_r+0x12c0>
    24b8:	42000204 	addi	r8,r8,8
    24bc:	70000c26 	beq	r14,zero,24f0 <___vfprintf_internal_r+0x70c>
    24c0:	d8801d17 	ldw	r2,116(sp)
    24c4:	d9001584 	addi	r4,sp,86
    24c8:	18c00084 	addi	r3,r3,2
    24cc:	10800044 	addi	r2,r2,1
    24d0:	41000015 	stw	r4,0(r8)
    24d4:	01000084 	movi	r4,2
    24d8:	d8801d15 	stw	r2,116(sp)
    24dc:	41000115 	stw	r4,4(r8)
    24e0:	d8c01e15 	stw	r3,120(sp)
    24e4:	10800208 	cmpgei	r2,r2,8
    24e8:	1002fc1e 	bne	r2,zero,30dc <___vfprintf_internal_r+0x12f8>
    24ec:	42000204 	addi	r8,r8,8
    24f0:	6b402018 	cmpnei	r13,r13,128
    24f4:	6801cf26 	beq	r13,zero,2c34 <___vfprintf_internal_r+0xe50>
    24f8:	5d0fc83a 	sub	r7,r11,r20
    24fc:	01c20616 	blt	zero,r7,2d18 <___vfprintf_internal_r+0xf34>
    2500:	9080400c 	andi	r2,r18,256
    2504:	10017c1e 	bne	r2,zero,2af8 <___vfprintf_internal_r+0xd14>
    2508:	d8801d17 	ldw	r2,116(sp)
    250c:	1d07883a 	add	r3,r3,r20
    2510:	44400015 	stw	r17,0(r8)
    2514:	10800044 	addi	r2,r2,1
    2518:	d8801d15 	stw	r2,116(sp)
    251c:	45000115 	stw	r20,4(r8)
    2520:	d8c01e15 	stw	r3,120(sp)
    2524:	10800208 	cmpgei	r2,r2,8
    2528:	1002571e 	bne	r2,zero,2e88 <___vfprintf_internal_r+0x10a4>
    252c:	42000204 	addi	r8,r8,8
    2530:	9480010c 	andi	r18,r18,4
    2534:	90000226 	beq	r18,zero,2540 <___vfprintf_internal_r+0x75c>
    2538:	8563c83a 	sub	r17,r16,r21
    253c:	04400916 	blt	zero,r17,2564 <___vfprintf_internal_r+0x780>
    2540:	8540010e 	bge	r16,r21,2548 <___vfprintf_internal_r+0x764>
    2544:	a821883a 	mov	r16,r21
    2548:	d8800417 	ldw	r2,16(sp)
    254c:	1405883a 	add	r2,r2,r16
    2550:	d8800415 	stw	r2,16(sp)
    2554:	1802241e 	bne	r3,zero,2de8 <___vfprintf_internal_r+0x1004>
    2558:	d8001d15 	stw	zero,116(sp)
    255c:	b811883a 	mov	r8,r23
    2560:	003e5506 	br	1eb8 <___vfprintf_internal_r+0xd4>
    2564:	03000074 	movhi	r12,1
    2568:	89000450 	cmplti	r4,r17,17
    256c:	633f2384 	addi	r12,r12,-882
    2570:	d8801d17 	ldw	r2,116(sp)
    2574:	20001c1e 	bne	r4,zero,25e8 <___vfprintf_internal_r+0x804>
    2578:	04800404 	movi	r18,16
    257c:	dd000517 	ldw	r20,20(sp)
    2580:	6039883a 	mov	fp,r12
    2584:	00000406 	br	2598 <___vfprintf_internal_r+0x7b4>
    2588:	8c7ffc04 	addi	r17,r17,-16
    258c:	89000448 	cmpgei	r4,r17,17
    2590:	42000204 	addi	r8,r8,8
    2594:	20001326 	beq	r4,zero,25e4 <___vfprintf_internal_r+0x800>
    2598:	10800044 	addi	r2,r2,1
    259c:	18c00404 	addi	r3,r3,16
    25a0:	47000015 	stw	fp,0(r8)
    25a4:	44800115 	stw	r18,4(r8)
    25a8:	d8c01e15 	stw	r3,120(sp)
    25ac:	d8801d15 	stw	r2,116(sp)
    25b0:	11000208 	cmpgei	r4,r2,8
    25b4:	203ff426 	beq	r4,zero,2588 <___vfprintf_internal_r+0x7a4>
    25b8:	d9801c04 	addi	r6,sp,112
    25bc:	980b883a 	mov	r5,r19
    25c0:	a009883a 	mov	r4,r20
    25c4:	00082bc0 	call	82bc <__sprint_r>
    25c8:	103ee51e 	bne	r2,zero,2160 <___vfprintf_internal_r+0x37c>
    25cc:	8c7ffc04 	addi	r17,r17,-16
    25d0:	89000448 	cmpgei	r4,r17,17
    25d4:	d8c01e17 	ldw	r3,120(sp)
    25d8:	d8801d17 	ldw	r2,116(sp)
    25dc:	b811883a 	mov	r8,r23
    25e0:	203fed1e 	bne	r4,zero,2598 <___vfprintf_internal_r+0x7b4>
    25e4:	e019883a 	mov	r12,fp
    25e8:	10800044 	addi	r2,r2,1
    25ec:	1c47883a 	add	r3,r3,r17
    25f0:	d8801d15 	stw	r2,116(sp)
    25f4:	43000015 	stw	r12,0(r8)
    25f8:	44400115 	stw	r17,4(r8)
    25fc:	d8c01e15 	stw	r3,120(sp)
    2600:	10800210 	cmplti	r2,r2,8
    2604:	103fce1e 	bne	r2,zero,2540 <___vfprintf_internal_r+0x75c>
    2608:	d9000517 	ldw	r4,20(sp)
    260c:	d9801c04 	addi	r6,sp,112
    2610:	980b883a 	mov	r5,r19
    2614:	00082bc0 	call	82bc <__sprint_r>
    2618:	103ed11e 	bne	r2,zero,2160 <___vfprintf_internal_r+0x37c>
    261c:	d8c01e17 	ldw	r3,120(sp)
    2620:	003fc706 	br	2540 <___vfprintf_internal_r+0x75c>
    2624:	21003fcc 	andi	r4,r4,255
    2628:	2005de1e 	bne	r4,zero,3da4 <___vfprintf_internal_r+0x1fc0>
    262c:	6080080c 	andi	r2,r12,32
    2630:	1000ed1e 	bne	r2,zero,29e8 <___vfprintf_internal_r+0xc04>
    2634:	d8800617 	ldw	r2,24(sp)
    2638:	60c0040c 	andi	r3,r12,16
    263c:	15400017 	ldw	r21,0(r2)
    2640:	10800104 	addi	r2,r2,4
    2644:	18001e1e 	bne	r3,zero,26c0 <___vfprintf_internal_r+0x8dc>
    2648:	60c0100c 	andi	r3,r12,64
    264c:	1804e126 	beq	r3,zero,39d4 <___vfprintf_internal_r+0x1bf0>
    2650:	d8800615 	stw	r2,24(sp)
    2654:	ad7fffcc 	andi	r21,r21,65535
    2658:	0029883a 	mov	r20,zero
    265c:	0005883a 	mov	r2,zero
    2660:	0000bf06 	br	2960 <___vfprintf_internal_r+0xb7c>
    2664:	21003fcc 	andi	r4,r4,255
    2668:	2005d01e 	bne	r4,zero,3dac <___vfprintf_internal_r+0x1fc8>
    266c:	d9000617 	ldw	r4,24(sp)
    2670:	6080080c 	andi	r2,r12,32
    2674:	20c00104 	addi	r3,r4,4
    2678:	1003d81e 	bne	r2,zero,35dc <___vfprintf_internal_r+0x17f8>
    267c:	6080040c 	andi	r2,r12,16
    2680:	1004321e 	bne	r2,zero,374c <___vfprintf_internal_r+0x1968>
    2684:	6300100c 	andi	r12,r12,64
    2688:	60043026 	beq	r12,zero,374c <___vfprintf_internal_r+0x1968>
    268c:	d8800617 	ldw	r2,24(sp)
    2690:	d8c00615 	stw	r3,24(sp)
    2694:	d8c00417 	ldw	r3,16(sp)
    2698:	10800017 	ldw	r2,0(r2)
    269c:	10c0000d 	sth	r3,0(r2)
    26a0:	003e0506 	br	1eb8 <___vfprintf_internal_r+0xd4>
    26a4:	21003fcc 	andi	r4,r4,255
    26a8:	2005c81e 	bne	r4,zero,3dcc <___vfprintf_internal_r+0x1fe8>
    26ac:	6080080c 	andi	r2,r12,32
    26b0:	63000414 	ori	r12,r12,16
    26b4:	1000cc1e 	bne	r2,zero,29e8 <___vfprintf_internal_r+0xc04>
    26b8:	d8800617 	ldw	r2,24(sp)
    26bc:	10800104 	addi	r2,r2,4
    26c0:	d8c00617 	ldw	r3,24(sp)
    26c4:	0029883a 	mov	r20,zero
    26c8:	d8800615 	stw	r2,24(sp)
    26cc:	1d400017 	ldw	r21,0(r3)
    26d0:	0005883a 	mov	r2,zero
    26d4:	0000a206 	br	2960 <___vfprintf_internal_r+0xb7c>
    26d8:	63000214 	ori	r12,r12,8
    26dc:	b2800007 	ldb	r10,0(r22)
    26e0:	003e1b06 	br	1f50 <___vfprintf_internal_r+0x16c>
    26e4:	21003fcc 	andi	r4,r4,255
    26e8:	2005bc1e 	bne	r4,zero,3ddc <___vfprintf_internal_r+0x1ff8>
    26ec:	d8c00617 	ldw	r3,24(sp)
    26f0:	00a00034 	movhi	r2,32768
    26f4:	10bfffc4 	addi	r2,r2,-1
    26f8:	1d000117 	ldw	r20,4(r3)
    26fc:	1c800017 	ldw	r18,0(r3)
    2700:	01dffc34 	movhi	r7,32752
    2704:	a0a2703a 	and	r17,r20,r2
    2708:	01bfffc4 	movi	r6,-1
    270c:	18800204 	addi	r2,r3,8
    2710:	39ffffc4 	addi	r7,r7,-1
    2714:	9009883a 	mov	r4,r18
    2718:	880b883a 	mov	r5,r17
    271c:	da000f15 	stw	r8,60(sp)
    2720:	dac00e15 	stw	r11,56(sp)
    2724:	db000715 	stw	r12,28(sp)
    2728:	dd000a15 	stw	r20,40(sp)
    272c:	dc800915 	stw	r18,36(sp)
    2730:	d8800615 	stw	r2,24(sp)
    2734:	000d3100 	call	d310 <__unorddf2>
    2738:	db000717 	ldw	r12,28(sp)
    273c:	dac00e17 	ldw	r11,56(sp)
    2740:	da000f17 	ldw	r8,60(sp)
    2744:	1003191e 	bne	r2,zero,33ac <___vfprintf_internal_r+0x15c8>
    2748:	01dffc34 	movhi	r7,32752
    274c:	01bfffc4 	movi	r6,-1
    2750:	39ffffc4 	addi	r7,r7,-1
    2754:	9009883a 	mov	r4,r18
    2758:	880b883a 	mov	r5,r17
    275c:	000c0d40 	call	c0d4 <__ledf2>
    2760:	db000717 	ldw	r12,28(sp)
    2764:	dac00e17 	ldw	r11,56(sp)
    2768:	da000f17 	ldw	r8,60(sp)
    276c:	00830f0e 	bge	zero,r2,33ac <___vfprintf_internal_r+0x15c8>
    2770:	000d883a 	mov	r6,zero
    2774:	000f883a 	mov	r7,zero
    2778:	9009883a 	mov	r4,r18
    277c:	a00b883a 	mov	r5,r20
    2780:	da000e15 	stw	r8,56(sp)
    2784:	000c0d40 	call	c0d4 <__ledf2>
    2788:	db000717 	ldw	r12,28(sp)
    278c:	da000e17 	ldw	r8,56(sp)
    2790:	1004e716 	blt	r2,zero,3b30 <___vfprintf_internal_r+0x1d4c>
    2794:	db401543 	ldbu	r13,85(sp)
    2798:	e0801210 	cmplti	r2,fp,72
    279c:	1004d11e 	bne	r2,zero,3ae4 <___vfprintf_internal_r+0x1d00>
    27a0:	04400074 	movhi	r17,1
    27a4:	8c7f1004 	addi	r17,r17,-960
    27a8:	04bfdfc4 	movi	r18,-129
    27ac:	64a4703a 	and	r18,r12,r18
    27b0:	054000c4 	movi	r21,3
    27b4:	050000c4 	movi	r20,3
    27b8:	0017883a 	mov	r11,zero
    27bc:	d8000715 	stw	zero,28(sp)
    27c0:	0000a306 	br	2a50 <___vfprintf_internal_r+0xc6c>
    27c4:	21003fcc 	andi	r4,r4,255
    27c8:	2005821e 	bne	r4,zero,3dd4 <___vfprintf_internal_r+0x1ff0>
    27cc:	6080080c 	andi	r2,r12,32
    27d0:	63000414 	ori	r12,r12,16
    27d4:	10007d1e 	bne	r2,zero,29cc <___vfprintf_internal_r+0xbe8>
    27d8:	d8800617 	ldw	r2,24(sp)
    27dc:	10800104 	addi	r2,r2,4
    27e0:	d8c00617 	ldw	r3,24(sp)
    27e4:	1d400017 	ldw	r21,0(r3)
    27e8:	d8800615 	stw	r2,24(sp)
    27ec:	a829d7fa 	srai	r20,r21,31
    27f0:	a005883a 	mov	r2,r20
    27f4:	103f020e 	bge	r2,zero,2400 <___vfprintf_internal_r+0x61c>
    27f8:	056bc83a 	sub	r21,zero,r21
    27fc:	a804c03a 	cmpne	r2,r21,zero
    2800:	0529c83a 	sub	r20,zero,r20
    2804:	a0a9c83a 	sub	r20,r20,r2
    2808:	00800b44 	movi	r2,45
    280c:	d8801545 	stb	r2,85(sp)
    2810:	58ffffe0 	cmpeqi	r3,r11,-1
    2814:	03400b44 	movi	r13,45
    2818:	00800044 	movi	r2,1
    281c:	18005426 	beq	r3,zero,2970 <___vfprintf_internal_r+0xb8c>
    2820:	10c00060 	cmpeqi	r3,r2,1
    2824:	18007e1e 	bne	r3,zero,2a20 <___vfprintf_internal_r+0xc3c>
    2828:	108000a0 	cmpeqi	r2,r2,2
    282c:	1002371e 	bne	r2,zero,310c <___vfprintf_internal_r+0x1328>
    2830:	b807883a 	mov	r3,r23
    2834:	00000106 	br	283c <___vfprintf_internal_r+0xa58>
    2838:	8807883a 	mov	r3,r17
    283c:	a808d0fa 	srli	r4,r21,3
    2840:	a00a977a 	slli	r5,r20,29
    2844:	a028d0fa 	srli	r20,r20,3
    2848:	ad4001cc 	andi	r21,r21,7
    284c:	a8800c04 	addi	r2,r21,48
    2850:	292ab03a 	or	r21,r5,r4
    2854:	18bfffc5 	stb	r2,-1(r3)
    2858:	ad08b03a 	or	r4,r21,r20
    285c:	1c7fffc4 	addi	r17,r3,-1
    2860:	203ff51e 	bne	r4,zero,2838 <___vfprintf_internal_r+0xa54>
    2864:	6100004c 	andi	r4,r12,1
    2868:	2000a026 	beq	r4,zero,2aec <___vfprintf_internal_r+0xd08>
    286c:	10803fcc 	andi	r2,r2,255
    2870:	1080201c 	xori	r2,r2,128
    2874:	10bfe004 	addi	r2,r2,-128
    2878:	10800c18 	cmpnei	r2,r2,48
    287c:	10009b26 	beq	r2,zero,2aec <___vfprintf_internal_r+0xd08>
    2880:	18ffff84 	addi	r3,r3,-2
    2884:	00800c04 	movi	r2,48
    2888:	88bfffc5 	stb	r2,-1(r17)
    288c:	b8e9c83a 	sub	r20,r23,r3
    2890:	6025883a 	mov	r18,r12
    2894:	1823883a 	mov	r17,r3
    2898:	00006906 	br	2a40 <___vfprintf_internal_r+0xc5c>
    289c:	21003fcc 	andi	r4,r4,255
    28a0:	20053e1e 	bne	r4,zero,3d9c <___vfprintf_internal_r+0x1fb8>
    28a4:	00800074 	movhi	r2,1
    28a8:	10bf1304 	addi	r2,r2,-948
    28ac:	d8800c15 	stw	r2,48(sp)
    28b0:	6080080c 	andi	r2,r12,32
    28b4:	103e901e 	bne	r2,zero,22f8 <___vfprintf_internal_r+0x514>
    28b8:	d8c00617 	ldw	r3,24(sp)
    28bc:	6080040c 	andi	r2,r12,16
    28c0:	1d400017 	ldw	r21,0(r3)
    28c4:	18c00104 	addi	r3,r3,4
    28c8:	d8c00615 	stw	r3,24(sp)
    28cc:	1002b11e 	bne	r2,zero,3394 <___vfprintf_internal_r+0x15b0>
    28d0:	6080100c 	andi	r2,r12,64
    28d4:	1002af26 	beq	r2,zero,3394 <___vfprintf_internal_r+0x15b0>
    28d8:	ad7fffcc 	andi	r21,r21,65535
    28dc:	0029883a 	mov	r20,zero
    28e0:	003e8a06 	br	230c <___vfprintf_internal_r+0x528>
    28e4:	21003fcc 	andi	r4,r4,255
    28e8:	20053e1e 	bne	r4,zero,3de4 <___vfprintf_internal_r+0x2000>
    28ec:	6080080c 	andi	r2,r12,32
    28f0:	63000414 	ori	r12,r12,16
    28f4:	1000431e 	bne	r2,zero,2a04 <___vfprintf_internal_r+0xc20>
    28f8:	d8800617 	ldw	r2,24(sp)
    28fc:	10800104 	addi	r2,r2,4
    2900:	d8c00617 	ldw	r3,24(sp)
    2904:	0029883a 	mov	r20,zero
    2908:	d8800615 	stw	r2,24(sp)
    290c:	1d400017 	ldw	r21,0(r3)
    2910:	00800044 	movi	r2,1
    2914:	00001206 	br	2960 <___vfprintf_internal_r+0xb7c>
    2918:	63000814 	ori	r12,r12,32
    291c:	b2800007 	ldb	r10,0(r22)
    2920:	003d8b06 	br	1f50 <___vfprintf_internal_r+0x16c>
    2924:	d8c00617 	ldw	r3,24(sp)
    2928:	00800c04 	movi	r2,48
    292c:	d8801585 	stb	r2,86(sp)
    2930:	00801e04 	movi	r2,120
    2934:	01000074 	movhi	r4,1
    2938:	d88015c5 	stb	r2,87(sp)
    293c:	1d400017 	ldw	r21,0(r3)
    2940:	18800104 	addi	r2,r3,4
    2944:	d8800615 	stw	r2,24(sp)
    2948:	20bf1804 	addi	r2,r4,-928
    294c:	d8800c15 	stw	r2,48(sp)
    2950:	0029883a 	mov	r20,zero
    2954:	63000094 	ori	r12,r12,2
    2958:	00800084 	movi	r2,2
    295c:	07001e04 	movi	fp,120
    2960:	d8001545 	stb	zero,85(sp)
    2964:	58ffffe0 	cmpeqi	r3,r11,-1
    2968:	001b883a 	mov	r13,zero
    296c:	183fac1e 	bne	r3,zero,2820 <___vfprintf_internal_r+0xa3c>
    2970:	04bfdfc4 	movi	r18,-129
    2974:	ad06b03a 	or	r3,r21,r20
    2978:	64a4703a 	and	r18,r12,r18
    297c:	18018d1e 	bne	r3,zero,2fb4 <___vfprintf_internal_r+0x11d0>
    2980:	5803bb1e 	bne	r11,zero,3870 <___vfprintf_internal_r+0x1a8c>
    2984:	103ea71e 	bne	r2,zero,2424 <___vfprintf_internal_r+0x640>
    2988:	6500004c 	andi	r20,r12,1
    298c:	a0028526 	beq	r20,zero,33a4 <___vfprintf_internal_r+0x15c0>
    2990:	00800c04 	movi	r2,48
    2994:	d88028c5 	stb	r2,163(sp)
    2998:	dc4028c4 	addi	r17,sp,163
    299c:	00002806 	br	2a40 <___vfprintf_internal_r+0xc5c>
    29a0:	b2800007 	ldb	r10,0(r22)
    29a4:	50801b18 	cmpnei	r2,r10,108
    29a8:	10032c26 	beq	r2,zero,365c <___vfprintf_internal_r+0x1878>
    29ac:	63000414 	ori	r12,r12,16
    29b0:	003d6706 	br	1f50 <___vfprintf_internal_r+0x16c>
    29b4:	63001014 	ori	r12,r12,64
    29b8:	b2800007 	ldb	r10,0(r22)
    29bc:	003d6406 	br	1f50 <___vfprintf_internal_r+0x16c>
    29c0:	d9000517 	ldw	r4,20(sp)
    29c4:	00009ac0 	call	9ac <__sinit>
    29c8:	003d1f06 	br	1e48 <___vfprintf_internal_r+0x64>
    29cc:	d8c00617 	ldw	r3,24(sp)
    29d0:	18800117 	ldw	r2,4(r3)
    29d4:	1d400017 	ldw	r21,0(r3)
    29d8:	18c00204 	addi	r3,r3,8
    29dc:	d8c00615 	stw	r3,24(sp)
    29e0:	1029883a 	mov	r20,r2
    29e4:	003e8506 	br	23fc <___vfprintf_internal_r+0x618>
    29e8:	d8c00617 	ldw	r3,24(sp)
    29ec:	0005883a 	mov	r2,zero
    29f0:	1d400017 	ldw	r21,0(r3)
    29f4:	1d000117 	ldw	r20,4(r3)
    29f8:	18c00204 	addi	r3,r3,8
    29fc:	d8c00615 	stw	r3,24(sp)
    2a00:	003fd706 	br	2960 <___vfprintf_internal_r+0xb7c>
    2a04:	d8c00617 	ldw	r3,24(sp)
    2a08:	00800044 	movi	r2,1
    2a0c:	1d400017 	ldw	r21,0(r3)
    2a10:	1d000117 	ldw	r20,4(r3)
    2a14:	18c00204 	addi	r3,r3,8
    2a18:	d8c00615 	stw	r3,24(sp)
    2a1c:	003fd006 	br	2960 <___vfprintf_internal_r+0xb7c>
    2a20:	a000111e 	bne	r20,zero,2a68 <___vfprintf_internal_r+0xc84>
    2a24:	a88002a8 	cmpgeui	r2,r21,10
    2a28:	10000f1e 	bne	r2,zero,2a68 <___vfprintf_internal_r+0xc84>
    2a2c:	ad400c04 	addi	r21,r21,48
    2a30:	dd4028c5 	stb	r21,163(sp)
    2a34:	6025883a 	mov	r18,r12
    2a38:	05000044 	movi	r20,1
    2a3c:	dc4028c4 	addi	r17,sp,163
    2a40:	582b883a 	mov	r21,r11
    2a44:	5d00010e 	bge	r11,r20,2a4c <___vfprintf_internal_r+0xc68>
    2a48:	a02b883a 	mov	r21,r20
    2a4c:	d8000715 	stw	zero,28(sp)
    2a50:	6b403fcc 	andi	r13,r13,255
    2a54:	6b40201c 	xori	r13,r13,128
    2a58:	6b7fe004 	addi	r13,r13,-128
    2a5c:	683e8126 	beq	r13,zero,2464 <___vfprintf_internal_r+0x680>
    2a60:	ad400044 	addi	r21,r21,1
    2a64:	003e7f06 	br	2464 <___vfprintf_internal_r+0x680>
    2a68:	dc000e15 	stw	r16,56(sp)
    2a6c:	b823883a 	mov	r17,r23
    2a70:	a021883a 	mov	r16,r20
    2a74:	db000715 	stw	r12,28(sp)
    2a78:	9829883a 	mov	r20,r19
    2a7c:	dac00f15 	stw	r11,60(sp)
    2a80:	4025883a 	mov	r18,r8
    2a84:	6827883a 	mov	r19,r13
    2a88:	00000206 	br	2a94 <___vfprintf_internal_r+0xcb0>
    2a8c:	102b883a 	mov	r21,r2
    2a90:	1821883a 	mov	r16,r3
    2a94:	a809883a 	mov	r4,r21
    2a98:	800b883a 	mov	r5,r16
    2a9c:	01800284 	movi	r6,10
    2aa0:	000f883a 	mov	r7,zero
    2aa4:	000a4b80 	call	a4b8 <__umoddi3>
    2aa8:	10800c04 	addi	r2,r2,48
    2aac:	8c7fffc4 	addi	r17,r17,-1
    2ab0:	a809883a 	mov	r4,r21
    2ab4:	800b883a 	mov	r5,r16
    2ab8:	88800005 	stb	r2,0(r17)
    2abc:	01800284 	movi	r6,10
    2ac0:	000f883a 	mov	r7,zero
    2ac4:	0009e9c0 	call	9e9c <__udivdi3>
    2ac8:	803ff01e 	bne	r16,zero,2a8c <___vfprintf_internal_r+0xca8>
    2acc:	ad4002a8 	cmpgeui	r21,r21,10
    2ad0:	a83fee1e 	bne	r21,zero,2a8c <___vfprintf_internal_r+0xca8>
    2ad4:	db000717 	ldw	r12,28(sp)
    2ad8:	dc000e17 	ldw	r16,56(sp)
    2adc:	dac00f17 	ldw	r11,60(sp)
    2ae0:	981b883a 	mov	r13,r19
    2ae4:	9011883a 	mov	r8,r18
    2ae8:	a027883a 	mov	r19,r20
    2aec:	bc69c83a 	sub	r20,r23,r17
    2af0:	6025883a 	mov	r18,r12
    2af4:	003fd206 	br	2a40 <___vfprintf_internal_r+0xc5c>
    2af8:	e2801990 	cmplti	r10,fp,102
    2afc:	5000ea1e 	bne	r10,zero,2ea8 <___vfprintf_internal_r+0x10c4>
    2b00:	d9000917 	ldw	r4,36(sp)
    2b04:	d9400a17 	ldw	r5,40(sp)
    2b08:	000d883a 	mov	r6,zero
    2b0c:	000f883a 	mov	r7,zero
    2b10:	da000f15 	stw	r8,60(sp)
    2b14:	d8c00e15 	stw	r3,56(sp)
    2b18:	000bf640 	call	bf64 <__eqdf2>
    2b1c:	d8c00e17 	ldw	r3,56(sp)
    2b20:	da000f17 	ldw	r8,60(sp)
    2b24:	1001891e 	bne	r2,zero,314c <___vfprintf_internal_r+0x1368>
    2b28:	d8801d17 	ldw	r2,116(sp)
    2b2c:	01000074 	movhi	r4,1
    2b30:	213f1f04 	addi	r4,r4,-900
    2b34:	10800044 	addi	r2,r2,1
    2b38:	18c00044 	addi	r3,r3,1
    2b3c:	41000015 	stw	r4,0(r8)
    2b40:	01000044 	movi	r4,1
    2b44:	d8801d15 	stw	r2,116(sp)
    2b48:	41000115 	stw	r4,4(r8)
    2b4c:	d8c01e15 	stw	r3,120(sp)
    2b50:	10800208 	cmpgei	r2,r2,8
    2b54:	1003351e 	bne	r2,zero,382c <___vfprintf_internal_r+0x1a48>
    2b58:	42000204 	addi	r8,r8,8
    2b5c:	d8801617 	ldw	r2,88(sp)
    2b60:	d8c00817 	ldw	r3,32(sp)
    2b64:	10c00416 	blt	r2,r3,2b78 <___vfprintf_internal_r+0xd94>
    2b68:	9080004c 	andi	r2,r18,1
    2b6c:	1000021e 	bne	r2,zero,2b78 <___vfprintf_internal_r+0xd94>
    2b70:	d8c01e17 	ldw	r3,120(sp)
    2b74:	003e6e06 	br	2530 <___vfprintf_internal_r+0x74c>
    2b78:	d8800d17 	ldw	r2,52(sp)
    2b7c:	d8c01e17 	ldw	r3,120(sp)
    2b80:	d9000b17 	ldw	r4,44(sp)
    2b84:	40800015 	stw	r2,0(r8)
    2b88:	d8801d17 	ldw	r2,116(sp)
    2b8c:	20c7883a 	add	r3,r4,r3
    2b90:	41000115 	stw	r4,4(r8)
    2b94:	10800044 	addi	r2,r2,1
    2b98:	d8801d15 	stw	r2,116(sp)
    2b9c:	d8c01e15 	stw	r3,120(sp)
    2ba0:	10800208 	cmpgei	r2,r2,8
    2ba4:	1002b41e 	bne	r2,zero,3678 <___vfprintf_internal_r+0x1894>
    2ba8:	42000204 	addi	r8,r8,8
    2bac:	d8800817 	ldw	r2,32(sp)
    2bb0:	147fffc4 	addi	r17,r2,-1
    2bb4:	047e5e0e 	bge	zero,r17,2530 <___vfprintf_internal_r+0x74c>
    2bb8:	03000074 	movhi	r12,1
    2bbc:	89000450 	cmplti	r4,r17,17
    2bc0:	633f1f84 	addi	r12,r12,-898
    2bc4:	d8801d17 	ldw	r2,116(sp)
    2bc8:	2003791e 	bne	r4,zero,39b0 <___vfprintf_internal_r+0x1bcc>
    2bcc:	dc000715 	stw	r16,28(sp)
    2bd0:	05000404 	movi	r20,16
    2bd4:	df000517 	ldw	fp,20(sp)
    2bd8:	6021883a 	mov	r16,r12
    2bdc:	00000406 	br	2bf0 <___vfprintf_internal_r+0xe0c>
    2be0:	42000204 	addi	r8,r8,8
    2be4:	8c7ffc04 	addi	r17,r17,-16
    2be8:	89000448 	cmpgei	r4,r17,17
    2bec:	20036e26 	beq	r4,zero,39a8 <___vfprintf_internal_r+0x1bc4>
    2bf0:	10800044 	addi	r2,r2,1
    2bf4:	18c00404 	addi	r3,r3,16
    2bf8:	44000015 	stw	r16,0(r8)
    2bfc:	45000115 	stw	r20,4(r8)
    2c00:	d8c01e15 	stw	r3,120(sp)
    2c04:	d8801d15 	stw	r2,116(sp)
    2c08:	11000208 	cmpgei	r4,r2,8
    2c0c:	203ff426 	beq	r4,zero,2be0 <___vfprintf_internal_r+0xdfc>
    2c10:	d9801c04 	addi	r6,sp,112
    2c14:	980b883a 	mov	r5,r19
    2c18:	e009883a 	mov	r4,fp
    2c1c:	00082bc0 	call	82bc <__sprint_r>
    2c20:	103d4f1e 	bne	r2,zero,2160 <___vfprintf_internal_r+0x37c>
    2c24:	d8c01e17 	ldw	r3,120(sp)
    2c28:	d8801d17 	ldw	r2,116(sp)
    2c2c:	b811883a 	mov	r8,r23
    2c30:	003fec06 	br	2be4 <___vfprintf_internal_r+0xe00>
    2c34:	854fc83a 	sub	r7,r16,r21
    2c38:	01fe2f0e 	bge	zero,r7,24f8 <___vfprintf_internal_r+0x714>
    2c3c:	03000074 	movhi	r12,1
    2c40:	39000450 	cmplti	r4,r7,17
    2c44:	633f1f84 	addi	r12,r12,-898
    2c48:	d8801d17 	ldw	r2,116(sp)
    2c4c:	2000271e 	bne	r4,zero,2cec <___vfprintf_internal_r+0xf08>
    2c50:	dc400e15 	stw	r17,56(sp)
    2c54:	dc800f15 	stw	r18,60(sp)
    2c58:	dc001015 	stw	r16,64(sp)
    2c5c:	03400404 	movi	r13,16
    2c60:	3821883a 	mov	r16,r7
    2c64:	dac01215 	stw	r11,72(sp)
    2c68:	dc400517 	ldw	r17,20(sp)
    2c6c:	6025883a 	mov	r18,r12
    2c70:	00000406 	br	2c84 <___vfprintf_internal_r+0xea0>
    2c74:	843ffc04 	addi	r16,r16,-16
    2c78:	81000448 	cmpgei	r4,r16,17
    2c7c:	42000204 	addi	r8,r8,8
    2c80:	20001426 	beq	r4,zero,2cd4 <___vfprintf_internal_r+0xef0>
    2c84:	10800044 	addi	r2,r2,1
    2c88:	18c00404 	addi	r3,r3,16
    2c8c:	44800015 	stw	r18,0(r8)
    2c90:	43400115 	stw	r13,4(r8)
    2c94:	d8c01e15 	stw	r3,120(sp)
    2c98:	d8801d15 	stw	r2,116(sp)
    2c9c:	11000208 	cmpgei	r4,r2,8
    2ca0:	203ff426 	beq	r4,zero,2c74 <___vfprintf_internal_r+0xe90>
    2ca4:	d9801c04 	addi	r6,sp,112
    2ca8:	980b883a 	mov	r5,r19
    2cac:	8809883a 	mov	r4,r17
    2cb0:	00082bc0 	call	82bc <__sprint_r>
    2cb4:	103d2a1e 	bne	r2,zero,2160 <___vfprintf_internal_r+0x37c>
    2cb8:	843ffc04 	addi	r16,r16,-16
    2cbc:	81000448 	cmpgei	r4,r16,17
    2cc0:	d8c01e17 	ldw	r3,120(sp)
    2cc4:	d8801d17 	ldw	r2,116(sp)
    2cc8:	b811883a 	mov	r8,r23
    2ccc:	03400404 	movi	r13,16
    2cd0:	203fec1e 	bne	r4,zero,2c84 <___vfprintf_internal_r+0xea0>
    2cd4:	800f883a 	mov	r7,r16
    2cd8:	9019883a 	mov	r12,r18
    2cdc:	dc400e17 	ldw	r17,56(sp)
    2ce0:	dc001017 	ldw	r16,64(sp)
    2ce4:	dac01217 	ldw	r11,72(sp)
    2ce8:	dc800f17 	ldw	r18,60(sp)
    2cec:	10800044 	addi	r2,r2,1
    2cf0:	19c7883a 	add	r3,r3,r7
    2cf4:	d8801d15 	stw	r2,116(sp)
    2cf8:	43000015 	stw	r12,0(r8)
    2cfc:	41c00115 	stw	r7,4(r8)
    2d00:	d8c01e15 	stw	r3,120(sp)
    2d04:	10800208 	cmpgei	r2,r2,8
    2d08:	1002cf1e 	bne	r2,zero,3848 <___vfprintf_internal_r+0x1a64>
    2d0c:	5d0fc83a 	sub	r7,r11,r20
    2d10:	42000204 	addi	r8,r8,8
    2d14:	01fdfa0e 	bge	zero,r7,2500 <___vfprintf_internal_r+0x71c>
    2d18:	03000074 	movhi	r12,1
    2d1c:	39000450 	cmplti	r4,r7,17
    2d20:	633f1f84 	addi	r12,r12,-898
    2d24:	d8801d17 	ldw	r2,116(sp)
    2d28:	2000251e 	bne	r4,zero,2dc0 <___vfprintf_internal_r+0xfdc>
    2d2c:	dc400e15 	stw	r17,56(sp)
    2d30:	dc800f15 	stw	r18,60(sp)
    2d34:	dc001015 	stw	r16,64(sp)
    2d38:	02c00404 	movi	r11,16
    2d3c:	3821883a 	mov	r16,r7
    2d40:	dc400517 	ldw	r17,20(sp)
    2d44:	6025883a 	mov	r18,r12
    2d48:	00000406 	br	2d5c <___vfprintf_internal_r+0xf78>
    2d4c:	843ffc04 	addi	r16,r16,-16
    2d50:	81000448 	cmpgei	r4,r16,17
    2d54:	42000204 	addi	r8,r8,8
    2d58:	20001426 	beq	r4,zero,2dac <___vfprintf_internal_r+0xfc8>
    2d5c:	10800044 	addi	r2,r2,1
    2d60:	18c00404 	addi	r3,r3,16
    2d64:	44800015 	stw	r18,0(r8)
    2d68:	42c00115 	stw	r11,4(r8)
    2d6c:	d8c01e15 	stw	r3,120(sp)
    2d70:	d8801d15 	stw	r2,116(sp)
    2d74:	11000208 	cmpgei	r4,r2,8
    2d78:	203ff426 	beq	r4,zero,2d4c <___vfprintf_internal_r+0xf68>
    2d7c:	d9801c04 	addi	r6,sp,112
    2d80:	980b883a 	mov	r5,r19
    2d84:	8809883a 	mov	r4,r17
    2d88:	00082bc0 	call	82bc <__sprint_r>
    2d8c:	103cf41e 	bne	r2,zero,2160 <___vfprintf_internal_r+0x37c>
    2d90:	843ffc04 	addi	r16,r16,-16
    2d94:	81000448 	cmpgei	r4,r16,17
    2d98:	d8c01e17 	ldw	r3,120(sp)
    2d9c:	d8801d17 	ldw	r2,116(sp)
    2da0:	b811883a 	mov	r8,r23
    2da4:	02c00404 	movi	r11,16
    2da8:	203fec1e 	bne	r4,zero,2d5c <___vfprintf_internal_r+0xf78>
    2dac:	800f883a 	mov	r7,r16
    2db0:	9019883a 	mov	r12,r18
    2db4:	dc400e17 	ldw	r17,56(sp)
    2db8:	dc001017 	ldw	r16,64(sp)
    2dbc:	dc800f17 	ldw	r18,60(sp)
    2dc0:	10800044 	addi	r2,r2,1
    2dc4:	19c7883a 	add	r3,r3,r7
    2dc8:	d8801d15 	stw	r2,116(sp)
    2dcc:	43000015 	stw	r12,0(r8)
    2dd0:	41c00115 	stw	r7,4(r8)
    2dd4:	d8c01e15 	stw	r3,120(sp)
    2dd8:	10800208 	cmpgei	r2,r2,8
    2ddc:	1001651e 	bne	r2,zero,3374 <___vfprintf_internal_r+0x1590>
    2de0:	42000204 	addi	r8,r8,8
    2de4:	003dc606 	br	2500 <___vfprintf_internal_r+0x71c>
    2de8:	d9000517 	ldw	r4,20(sp)
    2dec:	d9801c04 	addi	r6,sp,112
    2df0:	980b883a 	mov	r5,r19
    2df4:	00082bc0 	call	82bc <__sprint_r>
    2df8:	103dd726 	beq	r2,zero,2558 <___vfprintf_internal_r+0x774>
    2dfc:	003cd806 	br	2160 <___vfprintf_internal_r+0x37c>
    2e00:	d9000517 	ldw	r4,20(sp)
    2e04:	d9801c04 	addi	r6,sp,112
    2e08:	980b883a 	mov	r5,r19
    2e0c:	00082bc0 	call	82bc <__sprint_r>
    2e10:	103cd31e 	bne	r2,zero,2160 <___vfprintf_internal_r+0x37c>
    2e14:	d9001617 	ldw	r4,88(sp)
    2e18:	d8c01e17 	ldw	r3,120(sp)
    2e1c:	b811883a 	mov	r8,r23
    2e20:	2002971e 	bne	r4,zero,3880 <___vfprintf_internal_r+0x1a9c>
    2e24:	d9000817 	ldw	r4,32(sp)
    2e28:	9080004c 	andi	r2,r18,1
    2e2c:	1104b03a 	or	r2,r2,r4
    2e30:	103dbf26 	beq	r2,zero,2530 <___vfprintf_internal_r+0x74c>
    2e34:	d8800d17 	ldw	r2,52(sp)
    2e38:	d9000b17 	ldw	r4,44(sp)
    2e3c:	40800015 	stw	r2,0(r8)
    2e40:	d8801d17 	ldw	r2,116(sp)
    2e44:	20c7883a 	add	r3,r4,r3
    2e48:	41000115 	stw	r4,4(r8)
    2e4c:	10800044 	addi	r2,r2,1
    2e50:	d8c01e15 	stw	r3,120(sp)
    2e54:	d8801d15 	stw	r2,116(sp)
    2e58:	11000208 	cmpgei	r4,r2,8
    2e5c:	2003691e 	bne	r4,zero,3c04 <___vfprintf_internal_r+0x1e20>
    2e60:	42000204 	addi	r8,r8,8
    2e64:	d9000817 	ldw	r4,32(sp)
    2e68:	10800044 	addi	r2,r2,1
    2e6c:	d8801d15 	stw	r2,116(sp)
    2e70:	20c7883a 	add	r3,r4,r3
    2e74:	44400015 	stw	r17,0(r8)
    2e78:	41000115 	stw	r4,4(r8)
    2e7c:	d8c01e15 	stw	r3,120(sp)
    2e80:	10800208 	cmpgei	r2,r2,8
    2e84:	103da926 	beq	r2,zero,252c <___vfprintf_internal_r+0x748>
    2e88:	d9000517 	ldw	r4,20(sp)
    2e8c:	d9801c04 	addi	r6,sp,112
    2e90:	980b883a 	mov	r5,r19
    2e94:	00082bc0 	call	82bc <__sprint_r>
    2e98:	103cb11e 	bne	r2,zero,2160 <___vfprintf_internal_r+0x37c>
    2e9c:	d8c01e17 	ldw	r3,120(sp)
    2ea0:	b811883a 	mov	r8,r23
    2ea4:	003da206 	br	2530 <___vfprintf_internal_r+0x74c>
    2ea8:	d8800817 	ldw	r2,32(sp)
    2eac:	da801d17 	ldw	r10,116(sp)
    2eb0:	18c00044 	addi	r3,r3,1
    2eb4:	10800088 	cmpgei	r2,r2,2
    2eb8:	55000044 	addi	r20,r10,1
    2ebc:	47000204 	addi	fp,r8,8
    2ec0:	1000fb26 	beq	r2,zero,32b0 <___vfprintf_internal_r+0x14cc>
    2ec4:	00800044 	movi	r2,1
    2ec8:	40800115 	stw	r2,4(r8)
    2ecc:	44400015 	stw	r17,0(r8)
    2ed0:	d8c01e15 	stw	r3,120(sp)
    2ed4:	dd001d15 	stw	r20,116(sp)
    2ed8:	a0800210 	cmplti	r2,r20,8
    2edc:	10022e26 	beq	r2,zero,3798 <___vfprintf_internal_r+0x19b4>
    2ee0:	d8800b17 	ldw	r2,44(sp)
    2ee4:	d9000d17 	ldw	r4,52(sp)
    2ee8:	a5000044 	addi	r20,r20,1
    2eec:	1887883a 	add	r3,r3,r2
    2ef0:	e0800115 	stw	r2,4(fp)
    2ef4:	e1000015 	stw	r4,0(fp)
    2ef8:	d8c01e15 	stw	r3,120(sp)
    2efc:	dd001d15 	stw	r20,116(sp)
    2f00:	a0800208 	cmpgei	r2,r20,8
    2f04:	10021b1e 	bne	r2,zero,3774 <___vfprintf_internal_r+0x1990>
    2f08:	e7000204 	addi	fp,fp,8
    2f0c:	d8800817 	ldw	r2,32(sp)
    2f10:	d9000917 	ldw	r4,36(sp)
    2f14:	d9400a17 	ldw	r5,40(sp)
    2f18:	a2800044 	addi	r10,r20,1
    2f1c:	e2000204 	addi	r8,fp,8
    2f20:	12ffffc4 	addi	r11,r2,-1
    2f24:	000d883a 	mov	r6,zero
    2f28:	000f883a 	mov	r7,zero
    2f2c:	d8c01215 	stw	r3,72(sp)
    2f30:	da801015 	stw	r10,64(sp)
    2f34:	da800f15 	stw	r10,60(sp)
    2f38:	da000e15 	stw	r8,56(sp)
    2f3c:	dac00715 	stw	r11,28(sp)
    2f40:	000bf640 	call	bf64 <__eqdf2>
    2f44:	dac00717 	ldw	r11,28(sp)
    2f48:	da000e17 	ldw	r8,56(sp)
    2f4c:	db400f17 	ldw	r13,60(sp)
    2f50:	da801017 	ldw	r10,64(sp)
    2f54:	d8c01217 	ldw	r3,72(sp)
    2f58:	1000e126 	beq	r2,zero,32e0 <___vfprintf_internal_r+0x14fc>
    2f5c:	8c400044 	addi	r17,r17,1
    2f60:	1ac7883a 	add	r3,r3,r11
    2f64:	da801d15 	stw	r10,116(sp)
    2f68:	e4400015 	stw	r17,0(fp)
    2f6c:	e2c00115 	stw	r11,4(fp)
    2f70:	d8c01e15 	stw	r3,120(sp)
    2f74:	52800208 	cmpgei	r10,r10,8
    2f78:	5001ad1e 	bne	r10,zero,3630 <___vfprintf_internal_r+0x184c>
    2f7c:	e0800404 	addi	r2,fp,16
    2f80:	a2800084 	addi	r10,r20,2
    2f84:	4039883a 	mov	fp,r8
    2f88:	1011883a 	mov	r8,r2
    2f8c:	d9001117 	ldw	r4,68(sp)
    2f90:	d8801844 	addi	r2,sp,97
    2f94:	da801d15 	stw	r10,116(sp)
    2f98:	20c7883a 	add	r3,r4,r3
    2f9c:	e0800015 	stw	r2,0(fp)
    2fa0:	e1000115 	stw	r4,4(fp)
    2fa4:	d8c01e15 	stw	r3,120(sp)
    2fa8:	52800210 	cmplti	r10,r10,8
    2fac:	503d601e 	bne	r10,zero,2530 <___vfprintf_internal_r+0x74c>
    2fb0:	003fb506 	br	2e88 <___vfprintf_internal_r+0x10a4>
    2fb4:	9019883a 	mov	r12,r18
    2fb8:	003e1906 	br	2820 <___vfprintf_internal_r+0xa3c>
    2fbc:	03000074 	movhi	r12,1
    2fc0:	39000450 	cmplti	r4,r7,17
    2fc4:	633f2384 	addi	r12,r12,-882
    2fc8:	d8801d17 	ldw	r2,116(sp)
    2fcc:	20002b1e 	bne	r4,zero,307c <___vfprintf_internal_r+0x1298>
    2fd0:	dc401015 	stw	r17,64(sp)
    2fd4:	dc801215 	stw	r18,72(sp)
    2fd8:	dc001315 	stw	r16,76(sp)
    2fdc:	03c00404 	movi	r15,16
    2fe0:	db800e15 	stw	r14,56(sp)
    2fe4:	db400f15 	stw	r13,60(sp)
    2fe8:	dac01415 	stw	r11,80(sp)
    2fec:	3821883a 	mov	r16,r7
    2ff0:	dc400517 	ldw	r17,20(sp)
    2ff4:	6025883a 	mov	r18,r12
    2ff8:	00000406 	br	300c <___vfprintf_internal_r+0x1228>
    2ffc:	843ffc04 	addi	r16,r16,-16
    3000:	81000448 	cmpgei	r4,r16,17
    3004:	42000204 	addi	r8,r8,8
    3008:	20001426 	beq	r4,zero,305c <___vfprintf_internal_r+0x1278>
    300c:	10800044 	addi	r2,r2,1
    3010:	18c00404 	addi	r3,r3,16
    3014:	44800015 	stw	r18,0(r8)
    3018:	43c00115 	stw	r15,4(r8)
    301c:	d8c01e15 	stw	r3,120(sp)
    3020:	d8801d15 	stw	r2,116(sp)
    3024:	11000208 	cmpgei	r4,r2,8
    3028:	203ff426 	beq	r4,zero,2ffc <___vfprintf_internal_r+0x1218>
    302c:	d9801c04 	addi	r6,sp,112
    3030:	980b883a 	mov	r5,r19
    3034:	8809883a 	mov	r4,r17
    3038:	00082bc0 	call	82bc <__sprint_r>
    303c:	103c481e 	bne	r2,zero,2160 <___vfprintf_internal_r+0x37c>
    3040:	843ffc04 	addi	r16,r16,-16
    3044:	81000448 	cmpgei	r4,r16,17
    3048:	d8c01e17 	ldw	r3,120(sp)
    304c:	d8801d17 	ldw	r2,116(sp)
    3050:	b811883a 	mov	r8,r23
    3054:	03c00404 	movi	r15,16
    3058:	203fec1e 	bne	r4,zero,300c <___vfprintf_internal_r+0x1228>
    305c:	800f883a 	mov	r7,r16
    3060:	9019883a 	mov	r12,r18
    3064:	db800e17 	ldw	r14,56(sp)
    3068:	db400f17 	ldw	r13,60(sp)
    306c:	dc401017 	ldw	r17,64(sp)
    3070:	dac01417 	ldw	r11,80(sp)
    3074:	dc001317 	ldw	r16,76(sp)
    3078:	dc801217 	ldw	r18,72(sp)
    307c:	10800044 	addi	r2,r2,1
    3080:	19c7883a 	add	r3,r3,r7
    3084:	d8801d15 	stw	r2,116(sp)
    3088:	43000015 	stw	r12,0(r8)
    308c:	41c00115 	stw	r7,4(r8)
    3090:	d8c01e15 	stw	r3,120(sp)
    3094:	10800208 	cmpgei	r2,r2,8
    3098:	1001d61e 	bne	r2,zero,37f4 <___vfprintf_internal_r+0x1a10>
    309c:	42000204 	addi	r8,r8,8
    30a0:	003cf806 	br	2484 <___vfprintf_internal_r+0x6a0>
    30a4:	d9000517 	ldw	r4,20(sp)
    30a8:	d9801c04 	addi	r6,sp,112
    30ac:	980b883a 	mov	r5,r19
    30b0:	dac01015 	stw	r11,64(sp)
    30b4:	db400f15 	stw	r13,60(sp)
    30b8:	db800e15 	stw	r14,56(sp)
    30bc:	00082bc0 	call	82bc <__sprint_r>
    30c0:	103c271e 	bne	r2,zero,2160 <___vfprintf_internal_r+0x37c>
    30c4:	d8c01e17 	ldw	r3,120(sp)
    30c8:	b811883a 	mov	r8,r23
    30cc:	dac01017 	ldw	r11,64(sp)
    30d0:	db400f17 	ldw	r13,60(sp)
    30d4:	db800e17 	ldw	r14,56(sp)
    30d8:	003cf806 	br	24bc <___vfprintf_internal_r+0x6d8>
    30dc:	d9000517 	ldw	r4,20(sp)
    30e0:	d9801c04 	addi	r6,sp,112
    30e4:	980b883a 	mov	r5,r19
    30e8:	dac00f15 	stw	r11,60(sp)
    30ec:	db400e15 	stw	r13,56(sp)
    30f0:	00082bc0 	call	82bc <__sprint_r>
    30f4:	103c1a1e 	bne	r2,zero,2160 <___vfprintf_internal_r+0x37c>
    30f8:	d8c01e17 	ldw	r3,120(sp)
    30fc:	b811883a 	mov	r8,r23
    3100:	dac00f17 	ldw	r11,60(sp)
    3104:	db400e17 	ldw	r13,56(sp)
    3108:	003cf906 	br	24f0 <___vfprintf_internal_r+0x70c>
    310c:	d9000c17 	ldw	r4,48(sp)
    3110:	b823883a 	mov	r17,r23
    3114:	a88003cc 	andi	r2,r21,15
    3118:	a006973a 	slli	r3,r20,28
    311c:	2085883a 	add	r2,r4,r2
    3120:	a82ad13a 	srli	r21,r21,4
    3124:	10800003 	ldbu	r2,0(r2)
    3128:	a028d13a 	srli	r20,r20,4
    312c:	8c7fffc4 	addi	r17,r17,-1
    3130:	1d6ab03a 	or	r21,r3,r21
    3134:	88800005 	stb	r2,0(r17)
    3138:	ad04b03a 	or	r2,r21,r20
    313c:	103ff51e 	bne	r2,zero,3114 <___vfprintf_internal_r+0x1330>
    3140:	bc69c83a 	sub	r20,r23,r17
    3144:	6025883a 	mov	r18,r12
    3148:	003e3d06 	br	2a40 <___vfprintf_internal_r+0xc5c>
    314c:	d9001617 	ldw	r4,88(sp)
    3150:	01019a0e 	bge	zero,r4,37bc <___vfprintf_internal_r+0x19d8>
    3154:	d8800717 	ldw	r2,28(sp)
    3158:	d9000817 	ldw	r4,32(sp)
    315c:	1039883a 	mov	fp,r2
    3160:	20812816 	blt	r4,r2,3604 <___vfprintf_internal_r+0x1820>
    3164:	07000a0e 	bge	zero,fp,3190 <___vfprintf_internal_r+0x13ac>
    3168:	d8801d17 	ldw	r2,116(sp)
    316c:	1f07883a 	add	r3,r3,fp
    3170:	44400015 	stw	r17,0(r8)
    3174:	10800044 	addi	r2,r2,1
    3178:	d8801d15 	stw	r2,116(sp)
    317c:	47000115 	stw	fp,4(r8)
    3180:	d8c01e15 	stw	r3,120(sp)
    3184:	10800208 	cmpgei	r2,r2,8
    3188:	1002de1e 	bne	r2,zero,3d04 <___vfprintf_internal_r+0x1f20>
    318c:	42000204 	addi	r8,r8,8
    3190:	e0014116 	blt	fp,zero,3698 <___vfprintf_internal_r+0x18b4>
    3194:	d8800717 	ldw	r2,28(sp)
    3198:	1739c83a 	sub	fp,r2,fp
    319c:	07014816 	blt	zero,fp,36c0 <___vfprintf_internal_r+0x18dc>
    31a0:	d9001617 	ldw	r4,88(sp)
    31a4:	d8800817 	ldw	r2,32(sp)
    31a8:	2081190e 	bge	r4,r2,3610 <___vfprintf_internal_r+0x182c>
    31ac:	d8800d17 	ldw	r2,52(sp)
    31b0:	d9400b17 	ldw	r5,44(sp)
    31b4:	40800015 	stw	r2,0(r8)
    31b8:	d8801d17 	ldw	r2,116(sp)
    31bc:	1947883a 	add	r3,r3,r5
    31c0:	41400115 	stw	r5,4(r8)
    31c4:	10800044 	addi	r2,r2,1
    31c8:	d8801d15 	stw	r2,116(sp)
    31cc:	d8c01e15 	stw	r3,120(sp)
    31d0:	10800208 	cmpgei	r2,r2,8
    31d4:	1002651e 	bne	r2,zero,3b6c <___vfprintf_internal_r+0x1d88>
    31d8:	42000204 	addi	r8,r8,8
    31dc:	d8800817 	ldw	r2,32(sp)
    31e0:	d9400717 	ldw	r5,28(sp)
    31e4:	1105c83a 	sub	r2,r2,r4
    31e8:	29015e0e 	bge	r5,r4,3764 <___vfprintf_internal_r+0x1980>
    31ec:	1039883a 	mov	fp,r2
    31f0:	07000c0e 	bge	zero,fp,3224 <___vfprintf_internal_r+0x1440>
    31f4:	d9000717 	ldw	r4,28(sp)
    31f8:	1f07883a 	add	r3,r3,fp
    31fc:	47000115 	stw	fp,4(r8)
    3200:	8923883a 	add	r17,r17,r4
    3204:	d9001d17 	ldw	r4,116(sp)
    3208:	44400015 	stw	r17,0(r8)
    320c:	d8c01e15 	stw	r3,120(sp)
    3210:	21000044 	addi	r4,r4,1
    3214:	d9001d15 	stw	r4,116(sp)
    3218:	21000208 	cmpgei	r4,r4,8
    321c:	2002c41e 	bne	r4,zero,3d30 <___vfprintf_internal_r+0x1f4c>
    3220:	42000204 	addi	r8,r8,8
    3224:	e000010e 	bge	fp,zero,322c <___vfprintf_internal_r+0x1448>
    3228:	0039883a 	mov	fp,zero
    322c:	1739c83a 	sub	fp,r2,fp
    3230:	073cbf0e 	bge	zero,fp,2530 <___vfprintf_internal_r+0x74c>
    3234:	03000074 	movhi	r12,1
    3238:	e1000450 	cmplti	r4,fp,17
    323c:	633f1f84 	addi	r12,r12,-898
    3240:	d8801d17 	ldw	r2,116(sp)
    3244:	2002401e 	bne	r4,zero,3b48 <___vfprintf_internal_r+0x1d64>
    3248:	dc000715 	stw	r16,28(sp)
    324c:	05000404 	movi	r20,16
    3250:	dc400517 	ldw	r17,20(sp)
    3254:	6021883a 	mov	r16,r12
    3258:	00000406 	br	326c <___vfprintf_internal_r+0x1488>
    325c:	42000204 	addi	r8,r8,8
    3260:	e73ffc04 	addi	fp,fp,-16
    3264:	e1000448 	cmpgei	r4,fp,17
    3268:	20023526 	beq	r4,zero,3b40 <___vfprintf_internal_r+0x1d5c>
    326c:	10800044 	addi	r2,r2,1
    3270:	18c00404 	addi	r3,r3,16
    3274:	44000015 	stw	r16,0(r8)
    3278:	45000115 	stw	r20,4(r8)
    327c:	d8c01e15 	stw	r3,120(sp)
    3280:	d8801d15 	stw	r2,116(sp)
    3284:	11000208 	cmpgei	r4,r2,8
    3288:	203ff426 	beq	r4,zero,325c <___vfprintf_internal_r+0x1478>
    328c:	d9801c04 	addi	r6,sp,112
    3290:	980b883a 	mov	r5,r19
    3294:	8809883a 	mov	r4,r17
    3298:	00082bc0 	call	82bc <__sprint_r>
    329c:	103bb01e 	bne	r2,zero,2160 <___vfprintf_internal_r+0x37c>
    32a0:	d8c01e17 	ldw	r3,120(sp)
    32a4:	d8801d17 	ldw	r2,116(sp)
    32a8:	b811883a 	mov	r8,r23
    32ac:	003fec06 	br	3260 <___vfprintf_internal_r+0x147c>
    32b0:	9080004c 	andi	r2,r18,1
    32b4:	103f031e 	bne	r2,zero,2ec4 <___vfprintf_internal_r+0x10e0>
    32b8:	00800044 	movi	r2,1
    32bc:	dd001d15 	stw	r20,116(sp)
    32c0:	44400015 	stw	r17,0(r8)
    32c4:	40800115 	stw	r2,4(r8)
    32c8:	d8c01e15 	stw	r3,120(sp)
    32cc:	a5000208 	cmpgei	r20,r20,8
    32d0:	a000d71e 	bne	r20,zero,3630 <___vfprintf_internal_r+0x184c>
    32d4:	52800084 	addi	r10,r10,2
    32d8:	42000404 	addi	r8,r8,16
    32dc:	003f2b06 	br	2f8c <___vfprintf_internal_r+0x11a8>
    32e0:	02ff2a0e 	bge	zero,r11,2f8c <___vfprintf_internal_r+0x11a8>
    32e4:	58800450 	cmplti	r2,r11,17
    32e8:	03000074 	movhi	r12,1
    32ec:	1002fe1e 	bne	r2,zero,3ee8 <___vfprintf_internal_r+0x2104>
    32f0:	633f1f84 	addi	r12,r12,-898
    32f4:	dd400715 	stw	r21,28(sp)
    32f8:	dc800e15 	stw	r18,56(sp)
    32fc:	e005883a 	mov	r2,fp
    3300:	04400404 	movi	r17,16
    3304:	b039883a 	mov	fp,r22
    3308:	5825883a 	mov	r18,r11
    330c:	802d883a 	mov	r22,r16
    3310:	602b883a 	mov	r21,r12
    3314:	dc000517 	ldw	r16,20(sp)
    3318:	6829883a 	mov	r20,r13
    331c:	00000506 	br	3334 <___vfprintf_internal_r+0x1550>
    3320:	10800204 	addi	r2,r2,8
    3324:	94bffc04 	addi	r18,r18,-16
    3328:	91000448 	cmpgei	r4,r18,17
    332c:	20018a26 	beq	r4,zero,3958 <___vfprintf_internal_r+0x1b74>
    3330:	a5000044 	addi	r20,r20,1
    3334:	18c00404 	addi	r3,r3,16
    3338:	15400015 	stw	r21,0(r2)
    333c:	14400115 	stw	r17,4(r2)
    3340:	d8c01e15 	stw	r3,120(sp)
    3344:	dd001d15 	stw	r20,116(sp)
    3348:	a1000208 	cmpgei	r4,r20,8
    334c:	203ff426 	beq	r4,zero,3320 <___vfprintf_internal_r+0x153c>
    3350:	d9801c04 	addi	r6,sp,112
    3354:	980b883a 	mov	r5,r19
    3358:	8009883a 	mov	r4,r16
    335c:	00082bc0 	call	82bc <__sprint_r>
    3360:	103b7f1e 	bne	r2,zero,2160 <___vfprintf_internal_r+0x37c>
    3364:	dd001d17 	ldw	r20,116(sp)
    3368:	d8c01e17 	ldw	r3,120(sp)
    336c:	b805883a 	mov	r2,r23
    3370:	003fec06 	br	3324 <___vfprintf_internal_r+0x1540>
    3374:	d9000517 	ldw	r4,20(sp)
    3378:	d9801c04 	addi	r6,sp,112
    337c:	980b883a 	mov	r5,r19
    3380:	00082bc0 	call	82bc <__sprint_r>
    3384:	103b761e 	bne	r2,zero,2160 <___vfprintf_internal_r+0x37c>
    3388:	d8c01e17 	ldw	r3,120(sp)
    338c:	b811883a 	mov	r8,r23
    3390:	003c5b06 	br	2500 <___vfprintf_internal_r+0x71c>
    3394:	0029883a 	mov	r20,zero
    3398:	003bdc06 	br	230c <___vfprintf_internal_r+0x528>
    339c:	b023883a 	mov	r17,r22
    33a0:	003ae306 	br	1f30 <___vfprintf_internal_r+0x14c>
    33a4:	b823883a 	mov	r17,r23
    33a8:	003da506 	br	2a40 <___vfprintf_internal_r+0xc5c>
    33ac:	d9000917 	ldw	r4,36(sp)
    33b0:	d9400a17 	ldw	r5,40(sp)
    33b4:	da000f15 	stw	r8,60(sp)
    33b8:	200d883a 	mov	r6,r4
    33bc:	280f883a 	mov	r7,r5
    33c0:	dac00e15 	stw	r11,56(sp)
    33c4:	db000715 	stw	r12,28(sp)
    33c8:	000d3100 	call	d310 <__unorddf2>
    33cc:	db000717 	ldw	r12,28(sp)
    33d0:	dac00e17 	ldw	r11,56(sp)
    33d4:	da000f17 	ldw	r8,60(sp)
    33d8:	1002b21e 	bne	r2,zero,3ea4 <___vfprintf_internal_r+0x20c0>
    33dc:	00fff7c4 	movi	r3,-33
    33e0:	e0c6703a 	and	r3,fp,r3
    33e4:	58bfffe0 	cmpeqi	r2,r11,-1
    33e8:	d8c00715 	stw	r3,28(sp)
    33ec:	10024e1e 	bne	r2,zero,3d28 <___vfprintf_internal_r+0x1f44>
    33f0:	188011d8 	cmpnei	r2,r3,71
    33f4:	10020026 	beq	r2,zero,3bf8 <___vfprintf_internal_r+0x1e14>
    33f8:	d8800a17 	ldw	r2,40(sp)
    33fc:	64804014 	ori	r18,r12,256
    3400:	1001e316 	blt	r2,zero,3b90 <___vfprintf_internal_r+0x1dac>
    3404:	dd400a17 	ldw	r21,40(sp)
    3408:	d8000e05 	stb	zero,56(sp)
    340c:	e08019a0 	cmpeqi	r2,fp,102
    3410:	d8800f15 	stw	r2,60(sp)
    3414:	1001771e 	bne	r2,zero,39f4 <___vfprintf_internal_r+0x1c10>
    3418:	e08011a0 	cmpeqi	r2,fp,70
    341c:	1001751e 	bne	r2,zero,39f4 <___vfprintf_internal_r+0x1c10>
    3420:	d8800717 	ldw	r2,28(sp)
    3424:	da001215 	stw	r8,72(sp)
    3428:	db001015 	stw	r12,64(sp)
    342c:	10801158 	cmpnei	r2,r2,69
    3430:	10020726 	beq	r2,zero,3c50 <___vfprintf_internal_r+0x1e6c>
    3434:	d8801a04 	addi	r2,sp,104
    3438:	d8800315 	stw	r2,12(sp)
    343c:	d9400917 	ldw	r5,36(sp)
    3440:	d8801704 	addi	r2,sp,92
    3444:	d9000517 	ldw	r4,20(sp)
    3448:	d8800215 	stw	r2,8(sp)
    344c:	d8801604 	addi	r2,sp,88
    3450:	dac00015 	stw	r11,0(sp)
    3454:	d8800115 	stw	r2,4(sp)
    3458:	01c00084 	movi	r7,2
    345c:	a80d883a 	mov	r6,r21
    3460:	dac00815 	stw	r11,32(sp)
    3464:	00044940 	call	4494 <_dtoa_r>
    3468:	dac00817 	ldw	r11,32(sp)
    346c:	1023883a 	mov	r17,r2
    3470:	e08019d8 	cmpnei	r2,fp,103
    3474:	db001017 	ldw	r12,64(sp)
    3478:	da001217 	ldw	r8,72(sp)
    347c:	5829883a 	mov	r20,r11
    3480:	1002051e 	bne	r2,zero,3c98 <___vfprintf_internal_r+0x1eb4>
    3484:	6080004c 	andi	r2,r12,1
    3488:	1002051e 	bne	r2,zero,3ca0 <___vfprintf_internal_r+0x1ebc>
    348c:	d8c01617 	ldw	r3,88(sp)
    3490:	d8800717 	ldw	r2,28(sp)
    3494:	d8c00715 	stw	r3,28(sp)
    3498:	d8c01a17 	ldw	r3,104(sp)
    349c:	108011e0 	cmpeqi	r2,r2,71
    34a0:	1c47c83a 	sub	r3,r3,r17
    34a4:	d8c00815 	stw	r3,32(sp)
    34a8:	10000526 	beq	r2,zero,34c0 <___vfprintf_internal_r+0x16dc>
    34ac:	d8c00717 	ldw	r3,28(sp)
    34b0:	18bfff50 	cmplti	r2,r3,-3
    34b4:	1000011e 	bne	r2,zero,34bc <___vfprintf_internal_r+0x16d8>
    34b8:	58c2070e 	bge	r11,r3,3cd8 <___vfprintf_internal_r+0x1ef4>
    34bc:	e73fff84 	addi	fp,fp,-2
    34c0:	d8800717 	ldw	r2,28(sp)
    34c4:	df001845 	stb	fp,97(sp)
    34c8:	153fffc4 	addi	r20,r2,-1
    34cc:	dd001615 	stw	r20,88(sp)
    34d0:	a0027c16 	blt	r20,zero,3ec4 <___vfprintf_internal_r+0x20e0>
    34d4:	00800ac4 	movi	r2,43
    34d8:	d8801885 	stb	r2,98(sp)
    34dc:	a0800290 	cmplti	r2,r20,10
    34e0:	10025b1e 	bne	r2,zero,3e50 <___vfprintf_internal_r+0x206c>
    34e4:	dc000f15 	stw	r16,60(sp)
    34e8:	dd401bc4 	addi	r21,sp,111
    34ec:	a021883a 	mov	r16,r20
    34f0:	db000715 	stw	r12,28(sp)
    34f4:	9829883a 	mov	r20,r19
    34f8:	4027883a 	mov	r19,r8
    34fc:	00000206 	br	3508 <___vfprintf_internal_r+0x1724>
    3500:	202b883a 	mov	r21,r4
    3504:	1021883a 	mov	r16,r2
    3508:	8009883a 	mov	r4,r16
    350c:	01400284 	movi	r5,10
    3510:	000ab000 	call	ab00 <__modsi3>
    3514:	10800c04 	addi	r2,r2,48
    3518:	8009883a 	mov	r4,r16
    351c:	a8bfffc5 	stb	r2,-1(r21)
    3520:	01400284 	movi	r5,10
    3524:	000aa800 	call	aa80 <__divsi3>
    3528:	80c01908 	cmpgei	r3,r16,100
    352c:	a93fffc4 	addi	r4,r21,-1
    3530:	183ff31e 	bne	r3,zero,3500 <___vfprintf_internal_r+0x171c>
    3534:	10800c04 	addi	r2,r2,48
    3538:	20bfffc5 	stb	r2,-1(r4)
    353c:	a8ffff84 	addi	r3,r21,-2
    3540:	d9001bc4 	addi	r4,sp,111
    3544:	9811883a 	mov	r8,r19
    3548:	db000717 	ldw	r12,28(sp)
    354c:	dc000f17 	ldw	r16,60(sp)
    3550:	a027883a 	mov	r19,r20
    3554:	1902762e 	bgeu	r3,r4,3f30 <___vfprintf_internal_r+0x214c>
    3558:	d90018c4 	addi	r4,sp,99
    355c:	00000106 	br	3564 <___vfprintf_internal_r+0x1780>
    3560:	18800003 	ldbu	r2,0(r3)
    3564:	21000044 	addi	r4,r4,1
    3568:	20bfffc5 	stb	r2,-1(r4)
    356c:	18c00044 	addi	r3,r3,1
    3570:	d8801bc4 	addi	r2,sp,111
    3574:	18bffa1e 	bne	r3,r2,3560 <___vfprintf_internal_r+0x177c>
    3578:	d8801c44 	addi	r2,sp,113
    357c:	d8c018c4 	addi	r3,sp,99
    3580:	1545c83a 	sub	r2,r2,r21
    3584:	1885883a 	add	r2,r3,r2
    3588:	d8c01844 	addi	r3,sp,97
    358c:	10c5c83a 	sub	r2,r2,r3
    3590:	d8801115 	stw	r2,68(sp)
    3594:	d8c00817 	ldw	r3,32(sp)
    3598:	d9001117 	ldw	r4,68(sp)
    359c:	18800088 	cmpgei	r2,r3,2
    35a0:	1929883a 	add	r20,r3,r4
    35a4:	10024c26 	beq	r2,zero,3ed8 <___vfprintf_internal_r+0x20f4>
    35a8:	d8800b17 	ldw	r2,44(sp)
    35ac:	a0a9883a 	add	r20,r20,r2
    35b0:	a02b883a 	mov	r21,r20
    35b4:	a000010e 	bge	r20,zero,35bc <___vfprintf_internal_r+0x17d8>
    35b8:	002b883a 	mov	r21,zero
    35bc:	d8000715 	stw	zero,28(sp)
    35c0:	00014206 	br	3acc <___vfprintf_internal_r+0x1ce8>
    35c4:	00800c04 	movi	r2,48
    35c8:	d8801585 	stb	r2,86(sp)
    35cc:	df0015c5 	stb	fp,87(sp)
    35d0:	63000094 	ori	r12,r12,2
    35d4:	00800084 	movi	r2,2
    35d8:	003ce106 	br	2960 <___vfprintf_internal_r+0xb7c>
    35dc:	d9400417 	ldw	r5,16(sp)
    35e0:	20800017 	ldw	r2,0(r4)
    35e4:	d8c00615 	stw	r3,24(sp)
    35e8:	2809d7fa 	srai	r4,r5,31
    35ec:	11400015 	stw	r5,0(r2)
    35f0:	11000115 	stw	r4,4(r2)
    35f4:	003a3006 	br	1eb8 <___vfprintf_internal_r+0xd4>
    35f8:	0421c83a 	sub	r16,zero,r16
    35fc:	d8800615 	stw	r2,24(sp)
    3600:	003b1506 	br	2258 <___vfprintf_internal_r+0x474>
    3604:	2039883a 	mov	fp,r4
    3608:	073ed716 	blt	zero,fp,3168 <___vfprintf_internal_r+0x1384>
    360c:	003ee006 	br	3190 <___vfprintf_internal_r+0x13ac>
    3610:	9080004c 	andi	r2,r18,1
    3614:	103ee51e 	bne	r2,zero,31ac <___vfprintf_internal_r+0x13c8>
    3618:	d8800817 	ldw	r2,32(sp)
    361c:	d9400717 	ldw	r5,28(sp)
    3620:	1105c83a 	sub	r2,r2,r4
    3624:	29004f0e 	bge	r5,r4,3764 <___vfprintf_internal_r+0x1980>
    3628:	1039883a 	mov	fp,r2
    362c:	003efd06 	br	3224 <___vfprintf_internal_r+0x1440>
    3630:	d9000517 	ldw	r4,20(sp)
    3634:	d9801c04 	addi	r6,sp,112
    3638:	980b883a 	mov	r5,r19
    363c:	00082bc0 	call	82bc <__sprint_r>
    3640:	103ac71e 	bne	r2,zero,2160 <___vfprintf_internal_r+0x37c>
    3644:	da801d17 	ldw	r10,116(sp)
    3648:	d8c01e17 	ldw	r3,120(sp)
    364c:	da002b04 	addi	r8,sp,172
    3650:	52800044 	addi	r10,r10,1
    3654:	b839883a 	mov	fp,r23
    3658:	003e4c06 	br	2f8c <___vfprintf_internal_r+0x11a8>
    365c:	b7000043 	ldbu	fp,1(r22)
    3660:	63000814 	ori	r12,r12,32
    3664:	b5800044 	addi	r22,r22,1
    3668:	e2803fcc 	andi	r10,fp,255
    366c:	5280201c 	xori	r10,r10,128
    3670:	52bfe004 	addi	r10,r10,-128
    3674:	003a3606 	br	1f50 <___vfprintf_internal_r+0x16c>
    3678:	d9000517 	ldw	r4,20(sp)
    367c:	d9801c04 	addi	r6,sp,112
    3680:	980b883a 	mov	r5,r19
    3684:	00082bc0 	call	82bc <__sprint_r>
    3688:	103ab51e 	bne	r2,zero,2160 <___vfprintf_internal_r+0x37c>
    368c:	d8c01e17 	ldw	r3,120(sp)
    3690:	b811883a 	mov	r8,r23
    3694:	003d4506 	br	2bac <___vfprintf_internal_r+0xdc8>
    3698:	0039883a 	mov	fp,zero
    369c:	003ebd06 	br	3194 <___vfprintf_internal_r+0x13b0>
    36a0:	588001f0 	cmpltui	r2,r11,7
    36a4:	5829883a 	mov	r20,r11
    36a8:	10013d26 	beq	r2,zero,3ba0 <___vfprintf_internal_r+0x1dbc>
    36ac:	04400074 	movhi	r17,1
    36b0:	a02b883a 	mov	r21,r20
    36b4:	dc800615 	stw	r18,24(sp)
    36b8:	8c7f1d04 	addi	r17,r17,-908
    36bc:	003b6606 	br	2458 <___vfprintf_internal_r+0x674>
    36c0:	03000074 	movhi	r12,1
    36c4:	e1000450 	cmplti	r4,fp,17
    36c8:	633f1f84 	addi	r12,r12,-898
    36cc:	d8801d17 	ldw	r2,116(sp)
    36d0:	20010d1e 	bne	r4,zero,3b08 <___vfprintf_internal_r+0x1d24>
    36d4:	dc400e15 	stw	r17,56(sp)
    36d8:	dc800f15 	stw	r18,60(sp)
    36dc:	e023883a 	mov	r17,fp
    36e0:	05000404 	movi	r20,16
    36e4:	b039883a 	mov	fp,r22
    36e8:	6025883a 	mov	r18,r12
    36ec:	802d883a 	mov	r22,r16
    36f0:	dc000517 	ldw	r16,20(sp)
    36f4:	00000406 	br	3708 <___vfprintf_internal_r+0x1924>
    36f8:	42000204 	addi	r8,r8,8
    36fc:	8c7ffc04 	addi	r17,r17,-16
    3700:	89000448 	cmpgei	r4,r17,17
    3704:	2000fa26 	beq	r4,zero,3af0 <___vfprintf_internal_r+0x1d0c>
    3708:	10800044 	addi	r2,r2,1
    370c:	18c00404 	addi	r3,r3,16
    3710:	44800015 	stw	r18,0(r8)
    3714:	45000115 	stw	r20,4(r8)
    3718:	d8c01e15 	stw	r3,120(sp)
    371c:	d8801d15 	stw	r2,116(sp)
    3720:	11000208 	cmpgei	r4,r2,8
    3724:	203ff426 	beq	r4,zero,36f8 <___vfprintf_internal_r+0x1914>
    3728:	d9801c04 	addi	r6,sp,112
    372c:	980b883a 	mov	r5,r19
    3730:	8009883a 	mov	r4,r16
    3734:	00082bc0 	call	82bc <__sprint_r>
    3738:	103a891e 	bne	r2,zero,2160 <___vfprintf_internal_r+0x37c>
    373c:	d8c01e17 	ldw	r3,120(sp)
    3740:	d8801d17 	ldw	r2,116(sp)
    3744:	b811883a 	mov	r8,r23
    3748:	003fec06 	br	36fc <___vfprintf_internal_r+0x1918>
    374c:	d8800617 	ldw	r2,24(sp)
    3750:	10800017 	ldw	r2,0(r2)
    3754:	d8c00615 	stw	r3,24(sp)
    3758:	d8c00417 	ldw	r3,16(sp)
    375c:	10c00015 	stw	r3,0(r2)
    3760:	0039d506 	br	1eb8 <___vfprintf_internal_r+0xd4>
    3764:	d9000817 	ldw	r4,32(sp)
    3768:	d9400717 	ldw	r5,28(sp)
    376c:	2179c83a 	sub	fp,r4,r5
    3770:	003e9f06 	br	31f0 <___vfprintf_internal_r+0x140c>
    3774:	d9000517 	ldw	r4,20(sp)
    3778:	d9801c04 	addi	r6,sp,112
    377c:	980b883a 	mov	r5,r19
    3780:	00082bc0 	call	82bc <__sprint_r>
    3784:	103a761e 	bne	r2,zero,2160 <___vfprintf_internal_r+0x37c>
    3788:	d8c01e17 	ldw	r3,120(sp)
    378c:	dd001d17 	ldw	r20,116(sp)
    3790:	b839883a 	mov	fp,r23
    3794:	003ddd06 	br	2f0c <___vfprintf_internal_r+0x1128>
    3798:	d9000517 	ldw	r4,20(sp)
    379c:	d9801c04 	addi	r6,sp,112
    37a0:	980b883a 	mov	r5,r19
    37a4:	00082bc0 	call	82bc <__sprint_r>
    37a8:	103a6d1e 	bne	r2,zero,2160 <___vfprintf_internal_r+0x37c>
    37ac:	d8c01e17 	ldw	r3,120(sp)
    37b0:	dd001d17 	ldw	r20,116(sp)
    37b4:	b839883a 	mov	fp,r23
    37b8:	003dc906 	br	2ee0 <___vfprintf_internal_r+0x10fc>
    37bc:	d8801d17 	ldw	r2,116(sp)
    37c0:	01400074 	movhi	r5,1
    37c4:	297f1f04 	addi	r5,r5,-900
    37c8:	10800044 	addi	r2,r2,1
    37cc:	18c00044 	addi	r3,r3,1
    37d0:	41400015 	stw	r5,0(r8)
    37d4:	01400044 	movi	r5,1
    37d8:	d8801d15 	stw	r2,116(sp)
    37dc:	41400115 	stw	r5,4(r8)
    37e0:	d8c01e15 	stw	r3,120(sp)
    37e4:	10800208 	cmpgei	r2,r2,8
    37e8:	103d851e 	bne	r2,zero,2e00 <___vfprintf_internal_r+0x101c>
    37ec:	42000204 	addi	r8,r8,8
    37f0:	003d8b06 	br	2e20 <___vfprintf_internal_r+0x103c>
    37f4:	d9000517 	ldw	r4,20(sp)
    37f8:	d9801c04 	addi	r6,sp,112
    37fc:	980b883a 	mov	r5,r19
    3800:	dac01015 	stw	r11,64(sp)
    3804:	db400f15 	stw	r13,60(sp)
    3808:	db800e15 	stw	r14,56(sp)
    380c:	00082bc0 	call	82bc <__sprint_r>
    3810:	103a531e 	bne	r2,zero,2160 <___vfprintf_internal_r+0x37c>
    3814:	d8c01e17 	ldw	r3,120(sp)
    3818:	b811883a 	mov	r8,r23
    381c:	dac01017 	ldw	r11,64(sp)
    3820:	db400f17 	ldw	r13,60(sp)
    3824:	db800e17 	ldw	r14,56(sp)
    3828:	003b1606 	br	2484 <___vfprintf_internal_r+0x6a0>
    382c:	d9000517 	ldw	r4,20(sp)
    3830:	d9801c04 	addi	r6,sp,112
    3834:	980b883a 	mov	r5,r19
    3838:	00082bc0 	call	82bc <__sprint_r>
    383c:	103a481e 	bne	r2,zero,2160 <___vfprintf_internal_r+0x37c>
    3840:	b811883a 	mov	r8,r23
    3844:	003cc506 	br	2b5c <___vfprintf_internal_r+0xd78>
    3848:	d9000517 	ldw	r4,20(sp)
    384c:	d9801c04 	addi	r6,sp,112
    3850:	980b883a 	mov	r5,r19
    3854:	dac00e15 	stw	r11,56(sp)
    3858:	00082bc0 	call	82bc <__sprint_r>
    385c:	103a401e 	bne	r2,zero,2160 <___vfprintf_internal_r+0x37c>
    3860:	d8c01e17 	ldw	r3,120(sp)
    3864:	b811883a 	mov	r8,r23
    3868:	dac00e17 	ldw	r11,56(sp)
    386c:	003b2206 	br	24f8 <___vfprintf_internal_r+0x714>
    3870:	10c00060 	cmpeqi	r3,r2,1
    3874:	9019883a 	mov	r12,r18
    3878:	183beb26 	beq	r3,zero,2828 <___vfprintf_internal_r+0xa44>
    387c:	003c6b06 	br	2a2c <___vfprintf_internal_r+0xc48>
    3880:	d8800d17 	ldw	r2,52(sp)
    3884:	d9400b17 	ldw	r5,44(sp)
    3888:	40800015 	stw	r2,0(r8)
    388c:	d8801d17 	ldw	r2,116(sp)
    3890:	28c7883a 	add	r3,r5,r3
    3894:	41400115 	stw	r5,4(r8)
    3898:	10800044 	addi	r2,r2,1
    389c:	d8c01e15 	stw	r3,120(sp)
    38a0:	d8801d15 	stw	r2,116(sp)
    38a4:	11400208 	cmpgei	r5,r2,8
    38a8:	2800d61e 	bne	r5,zero,3c04 <___vfprintf_internal_r+0x1e20>
    38ac:	42000204 	addi	r8,r8,8
    38b0:	203d6c0e 	bge	r4,zero,2e64 <___vfprintf_internal_r+0x1080>
    38b4:	03000074 	movhi	r12,1
    38b8:	217ffc08 	cmpgei	r5,r4,-16
    38bc:	633f1f84 	addi	r12,r12,-898
    38c0:	0129c83a 	sub	r20,zero,r4
    38c4:	28014e1e 	bne	r5,zero,3e00 <___vfprintf_internal_r+0x201c>
    38c8:	8009883a 	mov	r4,r16
    38cc:	dc400715 	stw	r17,28(sp)
    38d0:	a021883a 	mov	r16,r20
    38d4:	07000404 	movi	fp,16
    38d8:	6023883a 	mov	r17,r12
    38dc:	2029883a 	mov	r20,r4
    38e0:	00000406 	br	38f4 <___vfprintf_internal_r+0x1b10>
    38e4:	42000204 	addi	r8,r8,8
    38e8:	843ffc04 	addi	r16,r16,-16
    38ec:	81000448 	cmpgei	r4,r16,17
    38f0:	20013e26 	beq	r4,zero,3dec <___vfprintf_internal_r+0x2008>
    38f4:	10800044 	addi	r2,r2,1
    38f8:	18c00404 	addi	r3,r3,16
    38fc:	44400015 	stw	r17,0(r8)
    3900:	47000115 	stw	fp,4(r8)
    3904:	d8c01e15 	stw	r3,120(sp)
    3908:	d8801d15 	stw	r2,116(sp)
    390c:	11000208 	cmpgei	r4,r2,8
    3910:	203ff426 	beq	r4,zero,38e4 <___vfprintf_internal_r+0x1b00>
    3914:	d9000517 	ldw	r4,20(sp)
    3918:	d9801c04 	addi	r6,sp,112
    391c:	980b883a 	mov	r5,r19
    3920:	00082bc0 	call	82bc <__sprint_r>
    3924:	103a0e1e 	bne	r2,zero,2160 <___vfprintf_internal_r+0x37c>
    3928:	d8c01e17 	ldw	r3,120(sp)
    392c:	d8801d17 	ldw	r2,116(sp)
    3930:	b811883a 	mov	r8,r23
    3934:	003fec06 	br	38e8 <___vfprintf_internal_r+0x1b04>
    3938:	8809883a 	mov	r4,r17
    393c:	0001adc0 	call	1adc <strlen>
    3940:	1029883a 	mov	r20,r2
    3944:	102b883a 	mov	r21,r2
    3948:	dc800615 	stw	r18,24(sp)
    394c:	db000717 	ldw	r12,28(sp)
    3950:	da000e17 	ldw	r8,56(sp)
    3954:	003ac006 	br	2458 <___vfprintf_internal_r+0x674>
    3958:	9017883a 	mov	r11,r18
    395c:	a819883a 	mov	r12,r21
    3960:	dc800e17 	ldw	r18,56(sp)
    3964:	dd400717 	ldw	r21,28(sp)
    3968:	b021883a 	mov	r16,r22
    396c:	a2800044 	addi	r10,r20,1
    3970:	e02d883a 	mov	r22,fp
    3974:	1039883a 	mov	fp,r2
    3978:	10800204 	addi	r2,r2,8
    397c:	1ac7883a 	add	r3,r3,r11
    3980:	e3000015 	stw	r12,0(fp)
    3984:	e2c00115 	stw	r11,4(fp)
    3988:	d8c01e15 	stw	r3,120(sp)
    398c:	da801d15 	stw	r10,116(sp)
    3990:	51000208 	cmpgei	r4,r10,8
    3994:	203f261e 	bne	r4,zero,3630 <___vfprintf_internal_r+0x184c>
    3998:	52800044 	addi	r10,r10,1
    399c:	12000204 	addi	r8,r2,8
    39a0:	1039883a 	mov	fp,r2
    39a4:	003d7906 	br	2f8c <___vfprintf_internal_r+0x11a8>
    39a8:	8019883a 	mov	r12,r16
    39ac:	dc000717 	ldw	r16,28(sp)
    39b0:	10800044 	addi	r2,r2,1
    39b4:	1c47883a 	add	r3,r3,r17
    39b8:	d8801d15 	stw	r2,116(sp)
    39bc:	43000015 	stw	r12,0(r8)
    39c0:	44400115 	stw	r17,4(r8)
    39c4:	d8c01e15 	stw	r3,120(sp)
    39c8:	10800208 	cmpgei	r2,r2,8
    39cc:	103ad726 	beq	r2,zero,252c <___vfprintf_internal_r+0x748>
    39d0:	003d2d06 	br	2e88 <___vfprintf_internal_r+0x10a4>
    39d4:	d8800615 	stw	r2,24(sp)
    39d8:	0029883a 	mov	r20,zero
    39dc:	0005883a 	mov	r2,zero
    39e0:	003bdf06 	br	2960 <___vfprintf_internal_r+0xb7c>
    39e4:	d8800615 	stw	r2,24(sp)
    39e8:	0029883a 	mov	r20,zero
    39ec:	00800044 	movi	r2,1
    39f0:	003bdb06 	br	2960 <___vfprintf_internal_r+0xb7c>
    39f4:	d8801a04 	addi	r2,sp,104
    39f8:	d8800315 	stw	r2,12(sp)
    39fc:	d9400917 	ldw	r5,36(sp)
    3a00:	d8801704 	addi	r2,sp,92
    3a04:	d9000517 	ldw	r4,20(sp)
    3a08:	d8800215 	stw	r2,8(sp)
    3a0c:	d8801604 	addi	r2,sp,88
    3a10:	dac00015 	stw	r11,0(sp)
    3a14:	d8800115 	stw	r2,4(sp)
    3a18:	01c000c4 	movi	r7,3
    3a1c:	a80d883a 	mov	r6,r21
    3a20:	da001215 	stw	r8,72(sp)
    3a24:	db001015 	stw	r12,64(sp)
    3a28:	dac00815 	stw	r11,32(sp)
    3a2c:	00044940 	call	4494 <_dtoa_r>
    3a30:	dac00817 	ldw	r11,32(sp)
    3a34:	1023883a 	mov	r17,r2
    3a38:	db001017 	ldw	r12,64(sp)
    3a3c:	12e9883a 	add	r20,r2,r11
    3a40:	88800007 	ldb	r2,0(r17)
    3a44:	da001217 	ldw	r8,72(sp)
    3a48:	10800c20 	cmpeqi	r2,r2,48
    3a4c:	10005a1e 	bne	r2,zero,3bb8 <___vfprintf_internal_r+0x1dd4>
    3a50:	d8801617 	ldw	r2,88(sp)
    3a54:	a0a9883a 	add	r20,r20,r2
    3a58:	d9000917 	ldw	r4,36(sp)
    3a5c:	000d883a 	mov	r6,zero
    3a60:	000f883a 	mov	r7,zero
    3a64:	a80b883a 	mov	r5,r21
    3a68:	da001215 	stw	r8,72(sp)
    3a6c:	dac01015 	stw	r11,64(sp)
    3a70:	db000815 	stw	r12,32(sp)
    3a74:	000bf640 	call	bf64 <__eqdf2>
    3a78:	db000817 	ldw	r12,32(sp)
    3a7c:	dac01017 	ldw	r11,64(sp)
    3a80:	da001217 	ldw	r8,72(sp)
    3a84:	1000881e 	bne	r2,zero,3ca8 <___vfprintf_internal_r+0x1ec4>
    3a88:	a005883a 	mov	r2,r20
    3a8c:	1445c83a 	sub	r2,r2,r17
    3a90:	d8c00717 	ldw	r3,28(sp)
    3a94:	d8800815 	stw	r2,32(sp)
    3a98:	d8801617 	ldw	r2,88(sp)
    3a9c:	18c011d8 	cmpnei	r3,r3,71
    3aa0:	d8800715 	stw	r2,28(sp)
    3aa4:	183e8126 	beq	r3,zero,34ac <___vfprintf_internal_r+0x16c8>
    3aa8:	d8800f17 	ldw	r2,60(sp)
    3aac:	103e8426 	beq	r2,zero,34c0 <___vfprintf_internal_r+0x16dc>
    3ab0:	d8c00717 	ldw	r3,28(sp)
    3ab4:	6080004c 	andi	r2,r12,1
    3ab8:	12c4b03a 	or	r2,r2,r11
    3abc:	00c10d0e 	bge	zero,r3,3ef4 <___vfprintf_internal_r+0x2110>
    3ac0:	1000f11e 	bne	r2,zero,3e88 <___vfprintf_internal_r+0x20a4>
    3ac4:	dd000717 	ldw	r20,28(sp)
    3ac8:	a02b883a 	mov	r21,r20
    3acc:	d8800e07 	ldb	r2,56(sp)
    3ad0:	10007e26 	beq	r2,zero,3ccc <___vfprintf_internal_r+0x1ee8>
    3ad4:	00800b44 	movi	r2,45
    3ad8:	d8801545 	stb	r2,85(sp)
    3adc:	0017883a 	mov	r11,zero
    3ae0:	003bdf06 	br	2a60 <___vfprintf_internal_r+0xc7c>
    3ae4:	04400074 	movhi	r17,1
    3ae8:	8c7f0f04 	addi	r17,r17,-964
    3aec:	003b2e06 	br	27a8 <___vfprintf_internal_r+0x9c4>
    3af0:	b021883a 	mov	r16,r22
    3af4:	9019883a 	mov	r12,r18
    3af8:	e02d883a 	mov	r22,fp
    3afc:	dc800f17 	ldw	r18,60(sp)
    3b00:	8839883a 	mov	fp,r17
    3b04:	dc400e17 	ldw	r17,56(sp)
    3b08:	10800044 	addi	r2,r2,1
    3b0c:	1f07883a 	add	r3,r3,fp
    3b10:	d8801d15 	stw	r2,116(sp)
    3b14:	43000015 	stw	r12,0(r8)
    3b18:	47000115 	stw	fp,4(r8)
    3b1c:	d8c01e15 	stw	r3,120(sp)
    3b20:	10800208 	cmpgei	r2,r2,8
    3b24:	1000421e 	bne	r2,zero,3c30 <___vfprintf_internal_r+0x1e4c>
    3b28:	42000204 	addi	r8,r8,8
    3b2c:	003d9c06 	br	31a0 <___vfprintf_internal_r+0x13bc>
    3b30:	00800b44 	movi	r2,45
    3b34:	d8801545 	stb	r2,85(sp)
    3b38:	03400b44 	movi	r13,45
    3b3c:	003b1606 	br	2798 <___vfprintf_internal_r+0x9b4>
    3b40:	8019883a 	mov	r12,r16
    3b44:	dc000717 	ldw	r16,28(sp)
    3b48:	10800044 	addi	r2,r2,1
    3b4c:	1f07883a 	add	r3,r3,fp
    3b50:	d8801d15 	stw	r2,116(sp)
    3b54:	43000015 	stw	r12,0(r8)
    3b58:	47000115 	stw	fp,4(r8)
    3b5c:	d8c01e15 	stw	r3,120(sp)
    3b60:	10800208 	cmpgei	r2,r2,8
    3b64:	103a7126 	beq	r2,zero,252c <___vfprintf_internal_r+0x748>
    3b68:	003cc706 	br	2e88 <___vfprintf_internal_r+0x10a4>
    3b6c:	d9000517 	ldw	r4,20(sp)
    3b70:	d9801c04 	addi	r6,sp,112
    3b74:	980b883a 	mov	r5,r19
    3b78:	00082bc0 	call	82bc <__sprint_r>
    3b7c:	1039781e 	bne	r2,zero,2160 <___vfprintf_internal_r+0x37c>
    3b80:	d9001617 	ldw	r4,88(sp)
    3b84:	d8c01e17 	ldw	r3,120(sp)
    3b88:	b811883a 	mov	r8,r23
    3b8c:	003d9306 	br	31dc <___vfprintf_internal_r+0x13f8>
    3b90:	1560003c 	xorhi	r21,r2,32768
    3b94:	00800b44 	movi	r2,45
    3b98:	d8800e05 	stb	r2,56(sp)
    3b9c:	003e1b06 	br	340c <___vfprintf_internal_r+0x1628>
    3ba0:	05000184 	movi	r20,6
    3ba4:	003ec106 	br	36ac <___vfprintf_internal_r+0x18c8>
    3ba8:	002b883a 	mov	r21,zero
    3bac:	003a0206 	br	23b8 <___vfprintf_internal_r+0x5d4>
    3bb0:	d9401545 	stb	r5,85(sp)
    3bb4:	00398a06 	br	21e0 <___vfprintf_internal_r+0x3fc>
    3bb8:	d9000917 	ldw	r4,36(sp)
    3bbc:	000d883a 	mov	r6,zero
    3bc0:	000f883a 	mov	r7,zero
    3bc4:	a80b883a 	mov	r5,r21
    3bc8:	da001215 	stw	r8,72(sp)
    3bcc:	dac01015 	stw	r11,64(sp)
    3bd0:	db000815 	stw	r12,32(sp)
    3bd4:	000bf640 	call	bf64 <__eqdf2>
    3bd8:	db000817 	ldw	r12,32(sp)
    3bdc:	dac01017 	ldw	r11,64(sp)
    3be0:	da001217 	ldw	r8,72(sp)
    3be4:	103f9a26 	beq	r2,zero,3a50 <___vfprintf_internal_r+0x1c6c>
    3be8:	00800044 	movi	r2,1
    3bec:	12c5c83a 	sub	r2,r2,r11
    3bf0:	d8801615 	stw	r2,88(sp)
    3bf4:	003f9706 	br	3a54 <___vfprintf_internal_r+0x1c70>
    3bf8:	583dff1e 	bne	r11,zero,33f8 <___vfprintf_internal_r+0x1614>
    3bfc:	02c00044 	movi	r11,1
    3c00:	003dfd06 	br	33f8 <___vfprintf_internal_r+0x1614>
    3c04:	d9000517 	ldw	r4,20(sp)
    3c08:	d9801c04 	addi	r6,sp,112
    3c0c:	980b883a 	mov	r5,r19
    3c10:	00082bc0 	call	82bc <__sprint_r>
    3c14:	1039521e 	bne	r2,zero,2160 <___vfprintf_internal_r+0x37c>
    3c18:	d9001617 	ldw	r4,88(sp)
    3c1c:	d8c01e17 	ldw	r3,120(sp)
    3c20:	d8801d17 	ldw	r2,116(sp)
    3c24:	b811883a 	mov	r8,r23
    3c28:	203c8e0e 	bge	r4,zero,2e64 <___vfprintf_internal_r+0x1080>
    3c2c:	003f2106 	br	38b4 <___vfprintf_internal_r+0x1ad0>
    3c30:	d9000517 	ldw	r4,20(sp)
    3c34:	d9801c04 	addi	r6,sp,112
    3c38:	980b883a 	mov	r5,r19
    3c3c:	00082bc0 	call	82bc <__sprint_r>
    3c40:	1039471e 	bne	r2,zero,2160 <___vfprintf_internal_r+0x37c>
    3c44:	d8c01e17 	ldw	r3,120(sp)
    3c48:	b811883a 	mov	r8,r23
    3c4c:	003d5406 	br	31a0 <___vfprintf_internal_r+0x13bc>
    3c50:	d8801a04 	addi	r2,sp,104
    3c54:	d8800315 	stw	r2,12(sp)
    3c58:	d9400917 	ldw	r5,36(sp)
    3c5c:	d8801704 	addi	r2,sp,92
    3c60:	d9000517 	ldw	r4,20(sp)
    3c64:	5d000044 	addi	r20,r11,1
    3c68:	d8800215 	stw	r2,8(sp)
    3c6c:	d8801604 	addi	r2,sp,88
    3c70:	d8800115 	stw	r2,4(sp)
    3c74:	dd000015 	stw	r20,0(sp)
    3c78:	01c00084 	movi	r7,2
    3c7c:	a80d883a 	mov	r6,r21
    3c80:	dac00815 	stw	r11,32(sp)
    3c84:	00044940 	call	4494 <_dtoa_r>
    3c88:	dac00817 	ldw	r11,32(sp)
    3c8c:	db001017 	ldw	r12,64(sp)
    3c90:	da001217 	ldw	r8,72(sp)
    3c94:	1023883a 	mov	r17,r2
    3c98:	e08011d8 	cmpnei	r2,fp,71
    3c9c:	103df926 	beq	r2,zero,3484 <___vfprintf_internal_r+0x16a0>
    3ca0:	8d29883a 	add	r20,r17,r20
    3ca4:	003f6c06 	br	3a58 <___vfprintf_internal_r+0x1c74>
    3ca8:	d8801a17 	ldw	r2,104(sp)
    3cac:	01000c04 	movi	r4,48
    3cb0:	153f762e 	bgeu	r2,r20,3a8c <___vfprintf_internal_r+0x1ca8>
    3cb4:	10c00044 	addi	r3,r2,1
    3cb8:	d8c01a15 	stw	r3,104(sp)
    3cbc:	11000005 	stb	r4,0(r2)
    3cc0:	d8801a17 	ldw	r2,104(sp)
    3cc4:	153ffb36 	bltu	r2,r20,3cb4 <___vfprintf_internal_r+0x1ed0>
    3cc8:	003f7006 	br	3a8c <___vfprintf_internal_r+0x1ca8>
    3ccc:	db401543 	ldbu	r13,85(sp)
    3cd0:	0017883a 	mov	r11,zero
    3cd4:	003b5e06 	br	2a50 <___vfprintf_internal_r+0xc6c>
    3cd8:	d8800717 	ldw	r2,28(sp)
    3cdc:	d8c00817 	ldw	r3,32(sp)
    3ce0:	10c02216 	blt	r2,r3,3d6c <___vfprintf_internal_r+0x1f88>
    3ce4:	6300004c 	andi	r12,r12,1
    3ce8:	6000601e 	bne	r12,zero,3e6c <___vfprintf_internal_r+0x2088>
    3cec:	102b883a 	mov	r21,r2
    3cf0:	1000010e 	bge	r2,zero,3cf8 <___vfprintf_internal_r+0x1f14>
    3cf4:	002b883a 	mov	r21,zero
    3cf8:	dd000717 	ldw	r20,28(sp)
    3cfc:	070019c4 	movi	fp,103
    3d00:	003f7206 	br	3acc <___vfprintf_internal_r+0x1ce8>
    3d04:	d9000517 	ldw	r4,20(sp)
    3d08:	d9801c04 	addi	r6,sp,112
    3d0c:	980b883a 	mov	r5,r19
    3d10:	00082bc0 	call	82bc <__sprint_r>
    3d14:	1039121e 	bne	r2,zero,2160 <___vfprintf_internal_r+0x37c>
    3d18:	d8c01e17 	ldw	r3,120(sp)
    3d1c:	b811883a 	mov	r8,r23
    3d20:	e03d1c0e 	bge	fp,zero,3194 <___vfprintf_internal_r+0x13b0>
    3d24:	003e5c06 	br	3698 <___vfprintf_internal_r+0x18b4>
    3d28:	02c00184 	movi	r11,6
    3d2c:	003db206 	br	33f8 <___vfprintf_internal_r+0x1614>
    3d30:	d9000517 	ldw	r4,20(sp)
    3d34:	d9801c04 	addi	r6,sp,112
    3d38:	980b883a 	mov	r5,r19
    3d3c:	00082bc0 	call	82bc <__sprint_r>
    3d40:	1039071e 	bne	r2,zero,2160 <___vfprintf_internal_r+0x37c>
    3d44:	d8801617 	ldw	r2,88(sp)
    3d48:	d9000817 	ldw	r4,32(sp)
    3d4c:	d8c01e17 	ldw	r3,120(sp)
    3d50:	b811883a 	mov	r8,r23
    3d54:	2085c83a 	sub	r2,r4,r2
    3d58:	003d3206 	br	3224 <___vfprintf_internal_r+0x1440>
    3d5c:	582b883a 	mov	r21,r11
    3d60:	dc800615 	stw	r18,24(sp)
    3d64:	5829883a 	mov	r20,r11
    3d68:	0039bb06 	br	2458 <___vfprintf_internal_r+0x674>
    3d6c:	d8800817 	ldw	r2,32(sp)
    3d70:	d8c00b17 	ldw	r3,44(sp)
    3d74:	10e9883a 	add	r20,r2,r3
    3d78:	d8800717 	ldw	r2,28(sp)
    3d7c:	00800316 	blt	zero,r2,3d8c <___vfprintf_internal_r+0x1fa8>
    3d80:	d8800717 	ldw	r2,28(sp)
    3d84:	a0b9c83a 	sub	fp,r20,r2
    3d88:	e5000044 	addi	r20,fp,1
    3d8c:	a02b883a 	mov	r21,r20
    3d90:	a0003b16 	blt	r20,zero,3e80 <___vfprintf_internal_r+0x209c>
    3d94:	070019c4 	movi	fp,103
    3d98:	003f4c06 	br	3acc <___vfprintf_internal_r+0x1ce8>
    3d9c:	d9401545 	stb	r5,85(sp)
    3da0:	003ac006 	br	28a4 <___vfprintf_internal_r+0xac0>
    3da4:	d9401545 	stb	r5,85(sp)
    3da8:	003a2006 	br	262c <___vfprintf_internal_r+0x848>
    3dac:	d9401545 	stb	r5,85(sp)
    3db0:	003a2e06 	br	266c <___vfprintf_internal_r+0x888>
    3db4:	d9401545 	stb	r5,85(sp)
    3db8:	00398306 	br	23c8 <___vfprintf_internal_r+0x5e4>
    3dbc:	d9401545 	stb	r5,85(sp)
    3dc0:	00395a06 	br	232c <___vfprintf_internal_r+0x548>
    3dc4:	d9401545 	stb	r5,85(sp)
    3dc8:	00394606 	br	22e4 <___vfprintf_internal_r+0x500>
    3dcc:	d9401545 	stb	r5,85(sp)
    3dd0:	003a3606 	br	26ac <___vfprintf_internal_r+0x8c8>
    3dd4:	d9401545 	stb	r5,85(sp)
    3dd8:	003a7c06 	br	27cc <___vfprintf_internal_r+0x9e8>
    3ddc:	d9401545 	stb	r5,85(sp)
    3de0:	003a4206 	br	26ec <___vfprintf_internal_r+0x908>
    3de4:	d9401545 	stb	r5,85(sp)
    3de8:	003ac006 	br	28ec <___vfprintf_internal_r+0xb08>
    3dec:	8819883a 	mov	r12,r17
    3df0:	dc400717 	ldw	r17,28(sp)
    3df4:	a009883a 	mov	r4,r20
    3df8:	8029883a 	mov	r20,r16
    3dfc:	2021883a 	mov	r16,r4
    3e00:	10800044 	addi	r2,r2,1
    3e04:	1d07883a 	add	r3,r3,r20
    3e08:	43000015 	stw	r12,0(r8)
    3e0c:	45000115 	stw	r20,4(r8)
    3e10:	d8c01e15 	stw	r3,120(sp)
    3e14:	d8801d15 	stw	r2,116(sp)
    3e18:	11000208 	cmpgei	r4,r2,8
    3e1c:	203c1026 	beq	r4,zero,2e60 <___vfprintf_internal_r+0x107c>
    3e20:	d9000517 	ldw	r4,20(sp)
    3e24:	d9801c04 	addi	r6,sp,112
    3e28:	980b883a 	mov	r5,r19
    3e2c:	00082bc0 	call	82bc <__sprint_r>
    3e30:	1038cb1e 	bne	r2,zero,2160 <___vfprintf_internal_r+0x37c>
    3e34:	d8c01e17 	ldw	r3,120(sp)
    3e38:	d8801d17 	ldw	r2,116(sp)
    3e3c:	b811883a 	mov	r8,r23
    3e40:	003c0806 	br	2e64 <___vfprintf_internal_r+0x1080>
    3e44:	00bfffc4 	movi	r2,-1
    3e48:	d8800415 	stw	r2,16(sp)
    3e4c:	0038c706 	br	216c <___vfprintf_internal_r+0x388>
    3e50:	00800c04 	movi	r2,48
    3e54:	a0c00c04 	addi	r3,r20,48
    3e58:	d88018c5 	stb	r2,99(sp)
    3e5c:	00800104 	movi	r2,4
    3e60:	d8c01905 	stb	r3,100(sp)
    3e64:	d8801115 	stw	r2,68(sp)
    3e68:	003dca06 	br	3594 <___vfprintf_internal_r+0x17b0>
    3e6c:	d8800717 	ldw	r2,28(sp)
    3e70:	d8c00b17 	ldw	r3,44(sp)
    3e74:	10e9883a 	add	r20,r2,r3
    3e78:	a02b883a 	mov	r21,r20
    3e7c:	a03fc50e 	bge	r20,zero,3d94 <___vfprintf_internal_r+0x1fb0>
    3e80:	002b883a 	mov	r21,zero
    3e84:	003fc306 	br	3d94 <___vfprintf_internal_r+0x1fb0>
    3e88:	d8800b17 	ldw	r2,44(sp)
    3e8c:	1885883a 	add	r2,r3,r2
    3e90:	12e9883a 	add	r20,r2,r11
    3e94:	a02b883a 	mov	r21,r20
    3e98:	a03f0c0e 	bge	r20,zero,3acc <___vfprintf_internal_r+0x1ce8>
    3e9c:	002b883a 	mov	r21,zero
    3ea0:	003f0a06 	br	3acc <___vfprintf_internal_r+0x1ce8>
    3ea4:	d8800a17 	ldw	r2,40(sp)
    3ea8:	10001d16 	blt	r2,zero,3f20 <___vfprintf_internal_r+0x213c>
    3eac:	db401543 	ldbu	r13,85(sp)
    3eb0:	e0801210 	cmplti	r2,fp,72
    3eb4:	1000171e 	bne	r2,zero,3f14 <___vfprintf_internal_r+0x2130>
    3eb8:	04400074 	movhi	r17,1
    3ebc:	8c7f1204 	addi	r17,r17,-952
    3ec0:	003a3906 	br	27a8 <___vfprintf_internal_r+0x9c4>
    3ec4:	00c00044 	movi	r3,1
    3ec8:	18a9c83a 	sub	r20,r3,r2
    3ecc:	00800b44 	movi	r2,45
    3ed0:	d8801885 	stb	r2,98(sp)
    3ed4:	003d8106 	br	34dc <___vfprintf_internal_r+0x16f8>
    3ed8:	6080004c 	andi	r2,r12,1
    3edc:	d8800715 	stw	r2,28(sp)
    3ee0:	103db11e 	bne	r2,zero,35a8 <___vfprintf_internal_r+0x17c4>
    3ee4:	003feb06 	br	3e94 <___vfprintf_internal_r+0x20b0>
    3ee8:	4005883a 	mov	r2,r8
    3eec:	633f1f84 	addi	r12,r12,-898
    3ef0:	003ea206 	br	397c <___vfprintf_internal_r+0x1b98>
    3ef4:	1000031e 	bne	r2,zero,3f04 <___vfprintf_internal_r+0x2120>
    3ef8:	05400044 	movi	r21,1
    3efc:	05000044 	movi	r20,1
    3f00:	003ef206 	br	3acc <___vfprintf_internal_r+0x1ce8>
    3f04:	d8800b17 	ldw	r2,44(sp)
    3f08:	10800044 	addi	r2,r2,1
    3f0c:	12e9883a 	add	r20,r2,r11
    3f10:	003fe006 	br	3e94 <___vfprintf_internal_r+0x20b0>
    3f14:	04400074 	movhi	r17,1
    3f18:	8c7f1104 	addi	r17,r17,-956
    3f1c:	003a2206 	br	27a8 <___vfprintf_internal_r+0x9c4>
    3f20:	00800b44 	movi	r2,45
    3f24:	d8801545 	stb	r2,85(sp)
    3f28:	03400b44 	movi	r13,45
    3f2c:	003fe006 	br	3eb0 <___vfprintf_internal_r+0x20cc>
    3f30:	00800084 	movi	r2,2
    3f34:	d8801115 	stw	r2,68(sp)
    3f38:	003d9606 	br	3594 <___vfprintf_internal_r+0x17b0>
    3f3c:	d8c00617 	ldw	r3,24(sp)
    3f40:	1ac00017 	ldw	r11,0(r3)
    3f44:	18c00104 	addi	r3,r3,4
    3f48:	5800010e 	bge	r11,zero,3f50 <___vfprintf_internal_r+0x216c>
    3f4c:	02ffffc4 	movi	r11,-1
    3f50:	b7000043 	ldbu	fp,1(r22)
    3f54:	d8c00615 	stw	r3,24(sp)
    3f58:	102d883a 	mov	r22,r2
    3f5c:	e2803fcc 	andi	r10,fp,255
    3f60:	5280201c 	xori	r10,r10,128
    3f64:	52bfe004 	addi	r10,r10,-128
    3f68:	0037f906 	br	1f50 <___vfprintf_internal_r+0x16c>

00003f6c <__vfprintf_internal>:
    3f6c:	00800074 	movhi	r2,1
    3f70:	300f883a 	mov	r7,r6
    3f74:	280d883a 	mov	r6,r5
    3f78:	200b883a 	mov	r5,r4
    3f7c:	11077c17 	ldw	r4,7664(r2)
    3f80:	0001de41 	jmpi	1de4 <___vfprintf_internal_r>

00003f84 <__sbprintf>:
    3f84:	2880030b 	ldhu	r2,12(r5)
    3f88:	2b001917 	ldw	r12,100(r5)
    3f8c:	2ac0038b 	ldhu	r11,14(r5)
    3f90:	2a800717 	ldw	r10,28(r5)
    3f94:	2a400917 	ldw	r9,36(r5)
    3f98:	defee204 	addi	sp,sp,-1144
    3f9c:	da001a04 	addi	r8,sp,104
    3fa0:	00c10004 	movi	r3,1024
    3fa4:	dc011a15 	stw	r16,1128(sp)
    3fa8:	10bfff4c 	andi	r2,r2,65533
    3fac:	2821883a 	mov	r16,r5
    3fb0:	d80b883a 	mov	r5,sp
    3fb4:	dc811c15 	stw	r18,1136(sp)
    3fb8:	dc411b15 	stw	r17,1132(sp)
    3fbc:	dfc11d15 	stw	ra,1140(sp)
    3fc0:	2025883a 	mov	r18,r4
    3fc4:	d880030d 	sth	r2,12(sp)
    3fc8:	db001915 	stw	r12,100(sp)
    3fcc:	dac0038d 	sth	r11,14(sp)
    3fd0:	da800715 	stw	r10,28(sp)
    3fd4:	da400915 	stw	r9,36(sp)
    3fd8:	da000015 	stw	r8,0(sp)
    3fdc:	da000415 	stw	r8,16(sp)
    3fe0:	d8c00215 	stw	r3,8(sp)
    3fe4:	d8c00515 	stw	r3,20(sp)
    3fe8:	d8000615 	stw	zero,24(sp)
    3fec:	0001de40 	call	1de4 <___vfprintf_internal_r>
    3ff0:	1023883a 	mov	r17,r2
    3ff4:	10000d0e 	bge	r2,zero,402c <__sbprintf+0xa8>
    3ff8:	d880030b 	ldhu	r2,12(sp)
    3ffc:	1080100c 	andi	r2,r2,64
    4000:	10000326 	beq	r2,zero,4010 <__sbprintf+0x8c>
    4004:	8080030b 	ldhu	r2,12(r16)
    4008:	10801014 	ori	r2,r2,64
    400c:	8080030d 	sth	r2,12(r16)
    4010:	8805883a 	mov	r2,r17
    4014:	dfc11d17 	ldw	ra,1140(sp)
    4018:	dc811c17 	ldw	r18,1136(sp)
    401c:	dc411b17 	ldw	r17,1132(sp)
    4020:	dc011a17 	ldw	r16,1128(sp)
    4024:	dec11e04 	addi	sp,sp,1144
    4028:	f800283a 	ret
    402c:	d80b883a 	mov	r5,sp
    4030:	9009883a 	mov	r4,r18
    4034:	0005e8c0 	call	5e8c <_fflush_r>
    4038:	103fef26 	beq	r2,zero,3ff8 <__sbprintf+0x74>
    403c:	047fffc4 	movi	r17,-1
    4040:	003fed06 	br	3ff8 <__sbprintf+0x74>

00004044 <_write_r>:
    4044:	defffe04 	addi	sp,sp,-8
    4048:	2805883a 	mov	r2,r5
    404c:	dc000015 	stw	r16,0(sp)
    4050:	300b883a 	mov	r5,r6
    4054:	2021883a 	mov	r16,r4
    4058:	380d883a 	mov	r6,r7
    405c:	1009883a 	mov	r4,r2
    4060:	00800074 	movhi	r2,1
    4064:	dfc00115 	stw	ra,4(sp)
    4068:	100ea715 	stw	zero,15004(r2)
    406c:	000de300 	call	de30 <write>
    4070:	10ffffd8 	cmpnei	r3,r2,-1
    4074:	18000426 	beq	r3,zero,4088 <_write_r+0x44>
    4078:	dfc00117 	ldw	ra,4(sp)
    407c:	dc000017 	ldw	r16,0(sp)
    4080:	dec00204 	addi	sp,sp,8
    4084:	f800283a 	ret
    4088:	00c00074 	movhi	r3,1
    408c:	18cea717 	ldw	r3,15004(r3)
    4090:	183ff926 	beq	r3,zero,4078 <_write_r+0x34>
    4094:	80c00015 	stw	r3,0(r16)
    4098:	dfc00117 	ldw	ra,4(sp)
    409c:	dc000017 	ldw	r16,0(sp)
    40a0:	dec00204 	addi	sp,sp,8
    40a4:	f800283a 	ret

000040a8 <__swsetup_r>:
    40a8:	00800074 	movhi	r2,1
    40ac:	10877c17 	ldw	r2,7664(r2)
    40b0:	defffd04 	addi	sp,sp,-12
    40b4:	dc400115 	stw	r17,4(sp)
    40b8:	dc000015 	stw	r16,0(sp)
    40bc:	dfc00215 	stw	ra,8(sp)
    40c0:	2023883a 	mov	r17,r4
    40c4:	2821883a 	mov	r16,r5
    40c8:	10000226 	beq	r2,zero,40d4 <__swsetup_r+0x2c>
    40cc:	10c00e17 	ldw	r3,56(r2)
    40d0:	18002026 	beq	r3,zero,4154 <__swsetup_r+0xac>
    40d4:	8080030b 	ldhu	r2,12(r16)
    40d8:	10c0020c 	andi	r3,r2,8
    40dc:	1009883a 	mov	r4,r2
    40e0:	18002226 	beq	r3,zero,416c <__swsetup_r+0xc4>
    40e4:	80c00417 	ldw	r3,16(r16)
    40e8:	18002826 	beq	r3,zero,418c <__swsetup_r+0xe4>
    40ec:	1100004c 	andi	r4,r2,1
    40f0:	20000b1e 	bne	r4,zero,4120 <__swsetup_r+0x78>
    40f4:	1080008c 	andi	r2,r2,2
    40f8:	10002d1e 	bne	r2,zero,41b0 <__swsetup_r+0x108>
    40fc:	80800517 	ldw	r2,20(r16)
    4100:	80800215 	stw	r2,8(r16)
    4104:	18000b26 	beq	r3,zero,4134 <__swsetup_r+0x8c>
    4108:	0005883a 	mov	r2,zero
    410c:	dfc00217 	ldw	ra,8(sp)
    4110:	dc400117 	ldw	r17,4(sp)
    4114:	dc000017 	ldw	r16,0(sp)
    4118:	dec00304 	addi	sp,sp,12
    411c:	f800283a 	ret
    4120:	80800517 	ldw	r2,20(r16)
    4124:	80000215 	stw	zero,8(r16)
    4128:	0085c83a 	sub	r2,zero,r2
    412c:	80800615 	stw	r2,24(r16)
    4130:	183ff51e 	bne	r3,zero,4108 <__swsetup_r+0x60>
    4134:	80c0030b 	ldhu	r3,12(r16)
    4138:	0005883a 	mov	r2,zero
    413c:	1900200c 	andi	r4,r3,128
    4140:	203ff226 	beq	r4,zero,410c <__swsetup_r+0x64>
    4144:	18c01014 	ori	r3,r3,64
    4148:	80c0030d 	sth	r3,12(r16)
    414c:	00bfffc4 	movi	r2,-1
    4150:	003fee06 	br	410c <__swsetup_r+0x64>
    4154:	1009883a 	mov	r4,r2
    4158:	00009ac0 	call	9ac <__sinit>
    415c:	8080030b 	ldhu	r2,12(r16)
    4160:	10c0020c 	andi	r3,r2,8
    4164:	1009883a 	mov	r4,r2
    4168:	183fde1e 	bne	r3,zero,40e4 <__swsetup_r+0x3c>
    416c:	2080040c 	andi	r2,r4,16
    4170:	10001f26 	beq	r2,zero,41f0 <__swsetup_r+0x148>
    4174:	2080010c 	andi	r2,r4,4
    4178:	10000f1e 	bne	r2,zero,41b8 <__swsetup_r+0x110>
    417c:	80c00417 	ldw	r3,16(r16)
    4180:	20800214 	ori	r2,r4,8
    4184:	8080030d 	sth	r2,12(r16)
    4188:	183fd81e 	bne	r3,zero,40ec <__swsetup_r+0x44>
    418c:	1100a00c 	andi	r4,r2,640
    4190:	21008020 	cmpeqi	r4,r4,512
    4194:	203fd51e 	bne	r4,zero,40ec <__swsetup_r+0x44>
    4198:	800b883a 	mov	r5,r16
    419c:	8809883a 	mov	r4,r17
    41a0:	000691c0 	call	691c <__smakebuf_r>
    41a4:	8080030b 	ldhu	r2,12(r16)
    41a8:	80c00417 	ldw	r3,16(r16)
    41ac:	003fcf06 	br	40ec <__swsetup_r+0x44>
    41b0:	0005883a 	mov	r2,zero
    41b4:	003fd206 	br	4100 <__swsetup_r+0x58>
    41b8:	81400c17 	ldw	r5,48(r16)
    41bc:	28000626 	beq	r5,zero,41d8 <__swsetup_r+0x130>
    41c0:	80801004 	addi	r2,r16,64
    41c4:	28800326 	beq	r5,r2,41d4 <__swsetup_r+0x12c>
    41c8:	8809883a 	mov	r4,r17
    41cc:	00060300 	call	6030 <_free_r>
    41d0:	8100030b 	ldhu	r4,12(r16)
    41d4:	80000c15 	stw	zero,48(r16)
    41d8:	80c00417 	ldw	r3,16(r16)
    41dc:	00bff6c4 	movi	r2,-37
    41e0:	1108703a 	and	r4,r2,r4
    41e4:	80000115 	stw	zero,4(r16)
    41e8:	80c00015 	stw	r3,0(r16)
    41ec:	003fe406 	br	4180 <__swsetup_r+0xd8>
    41f0:	00800244 	movi	r2,9
    41f4:	88800015 	stw	r2,0(r17)
    41f8:	20801014 	ori	r2,r4,64
    41fc:	8080030d 	sth	r2,12(r16)
    4200:	00bfffc4 	movi	r2,-1
    4204:	003fc106 	br	410c <__swsetup_r+0x64>

00004208 <_close_r>:
    4208:	defffe04 	addi	sp,sp,-8
    420c:	dc000015 	stw	r16,0(sp)
    4210:	00800074 	movhi	r2,1
    4214:	2021883a 	mov	r16,r4
    4218:	2809883a 	mov	r4,r5
    421c:	dfc00115 	stw	ra,4(sp)
    4220:	100ea715 	stw	zero,15004(r2)
    4224:	000d5d80 	call	d5d8 <close>
    4228:	10ffffd8 	cmpnei	r3,r2,-1
    422c:	18000426 	beq	r3,zero,4240 <_close_r+0x38>
    4230:	dfc00117 	ldw	ra,4(sp)
    4234:	dc000017 	ldw	r16,0(sp)
    4238:	dec00204 	addi	sp,sp,8
    423c:	f800283a 	ret
    4240:	00c00074 	movhi	r3,1
    4244:	18cea717 	ldw	r3,15004(r3)
    4248:	183ff926 	beq	r3,zero,4230 <_close_r+0x28>
    424c:	80c00015 	stw	r3,0(r16)
    4250:	dfc00117 	ldw	ra,4(sp)
    4254:	dc000017 	ldw	r16,0(sp)
    4258:	dec00204 	addi	sp,sp,8
    425c:	f800283a 	ret

00004260 <quorem>:
    4260:	defff204 	addi	sp,sp,-56
    4264:	dc000415 	stw	r16,16(sp)
    4268:	20800417 	ldw	r2,16(r4)
    426c:	2c000417 	ldw	r16,16(r5)
    4270:	dfc00d15 	stw	ra,52(sp)
    4274:	df000c15 	stw	fp,48(sp)
    4278:	ddc00b15 	stw	r23,44(sp)
    427c:	dd800a15 	stw	r22,40(sp)
    4280:	dd400915 	stw	r21,36(sp)
    4284:	dd000815 	stw	r20,32(sp)
    4288:	dcc00715 	stw	r19,28(sp)
    428c:	dc800615 	stw	r18,24(sp)
    4290:	dc400515 	stw	r17,20(sp)
    4294:	14007d16 	blt	r2,r16,448c <quorem+0x22c>
    4298:	843fffc4 	addi	r16,r16,-1
    429c:	802c90ba 	slli	r22,r16,2
    42a0:	2f000504 	addi	fp,r5,20
    42a4:	24c00504 	addi	r19,r4,20
    42a8:	e5a5883a 	add	r18,fp,r22
    42ac:	9d85883a 	add	r2,r19,r22
    42b0:	95c00017 	ldw	r23,0(r18)
    42b4:	15000017 	ldw	r20,0(r2)
    42b8:	d9400215 	stw	r5,8(sp)
    42bc:	bdc00044 	addi	r23,r23,1
    42c0:	d9000115 	stw	r4,4(sp)
    42c4:	b80b883a 	mov	r5,r23
    42c8:	a009883a 	mov	r4,r20
    42cc:	dcc00015 	stw	r19,0(sp)
    42d0:	d8800315 	stw	r2,12(sp)
    42d4:	000ab780 	call	ab78 <__udivsi3>
    42d8:	1023883a 	mov	r17,r2
    42dc:	a5c03236 	bltu	r20,r23,43a8 <quorem+0x148>
    42e0:	e02d883a 	mov	r22,fp
    42e4:	9829883a 	mov	r20,r19
    42e8:	002b883a 	mov	r21,zero
    42ec:	002f883a 	mov	r23,zero
    42f0:	b5800104 	addi	r22,r22,4
    42f4:	b4ffff17 	ldw	r19,-4(r22)
    42f8:	880b883a 	mov	r5,r17
    42fc:	a5000104 	addi	r20,r20,4
    4300:	993fffcc 	andi	r4,r19,65535
    4304:	000ac380 	call	ac38 <__mulsi3>
    4308:	9808d43a 	srli	r4,r19,16
    430c:	880b883a 	mov	r5,r17
    4310:	156b883a 	add	r21,r2,r21
    4314:	000ac380 	call	ac38 <__mulsi3>
    4318:	a0ffff17 	ldw	r3,-4(r20)
    431c:	a80ad43a 	srli	r5,r21,16
    4320:	a93fffcc 	andi	r4,r21,65535
    4324:	b909c83a 	sub	r4,r23,r4
    4328:	19bfffcc 	andi	r6,r3,65535
    432c:	2189883a 	add	r4,r4,r6
    4330:	1806d43a 	srli	r3,r3,16
    4334:	116b883a 	add	r21,r2,r5
    4338:	2005d43a 	srai	r2,r4,16
    433c:	a97fffcc 	andi	r5,r21,65535
    4340:	1947c83a 	sub	r3,r3,r5
    4344:	1887883a 	add	r3,r3,r2
    4348:	1804943a 	slli	r2,r3,16
    434c:	213fffcc 	andi	r4,r4,65535
    4350:	a82ad43a 	srli	r21,r21,16
    4354:	1108b03a 	or	r4,r2,r4
    4358:	a13fff15 	stw	r4,-4(r20)
    435c:	182fd43a 	srai	r23,r3,16
    4360:	95bfe32e 	bgeu	r18,r22,42f0 <quorem+0x90>
    4364:	d8c00317 	ldw	r3,12(sp)
    4368:	18800017 	ldw	r2,0(r3)
    436c:	10000e1e 	bne	r2,zero,43a8 <quorem+0x148>
    4370:	d9000017 	ldw	r4,0(sp)
    4374:	18bfff04 	addi	r2,r3,-4
    4378:	2080092e 	bgeu	r4,r2,43a0 <quorem+0x140>
    437c:	18ffff17 	ldw	r3,-4(r3)
    4380:	18000326 	beq	r3,zero,4390 <quorem+0x130>
    4384:	00000606 	br	43a0 <quorem+0x140>
    4388:	10c00017 	ldw	r3,0(r2)
    438c:	1800041e 	bne	r3,zero,43a0 <quorem+0x140>
    4390:	d8c00017 	ldw	r3,0(sp)
    4394:	10bfff04 	addi	r2,r2,-4
    4398:	843fffc4 	addi	r16,r16,-1
    439c:	18bffa36 	bltu	r3,r2,4388 <quorem+0x128>
    43a0:	d8800117 	ldw	r2,4(sp)
    43a4:	14000415 	stw	r16,16(r2)
    43a8:	d9400217 	ldw	r5,8(sp)
    43ac:	d9000117 	ldw	r4,4(sp)
    43b0:	00074840 	call	7484 <__mcmp>
    43b4:	10002816 	blt	r2,zero,4458 <quorem+0x1f8>
    43b8:	d9800017 	ldw	r6,0(sp)
    43bc:	8c400044 	addi	r17,r17,1
    43c0:	0007883a 	mov	r3,zero
    43c4:	e7000104 	addi	fp,fp,4
    43c8:	e13fff17 	ldw	r4,-4(fp)
    43cc:	31400017 	ldw	r5,0(r6)
    43d0:	31800104 	addi	r6,r6,4
    43d4:	20bfffcc 	andi	r2,r4,65535
    43d8:	1887c83a 	sub	r3,r3,r2
    43dc:	28bfffcc 	andi	r2,r5,65535
    43e0:	1885883a 	add	r2,r3,r2
    43e4:	2008d43a 	srli	r4,r4,16
    43e8:	2806d43a 	srli	r3,r5,16
    43ec:	100fd43a 	srai	r7,r2,16
    43f0:	117fffcc 	andi	r5,r2,65535
    43f4:	1907c83a 	sub	r3,r3,r4
    43f8:	19c7883a 	add	r3,r3,r7
    43fc:	1804943a 	slli	r2,r3,16
    4400:	1807d43a 	srai	r3,r3,16
    4404:	1144b03a 	or	r2,r2,r5
    4408:	30bfff15 	stw	r2,-4(r6)
    440c:	973fed2e 	bgeu	r18,fp,43c4 <quorem+0x164>
    4410:	800690ba 	slli	r3,r16,2
    4414:	d9000017 	ldw	r4,0(sp)
    4418:	20c7883a 	add	r3,r4,r3
    441c:	18800017 	ldw	r2,0(r3)
    4420:	10000d1e 	bne	r2,zero,4458 <quorem+0x1f8>
    4424:	18bfff04 	addi	r2,r3,-4
    4428:	2080092e 	bgeu	r4,r2,4450 <quorem+0x1f0>
    442c:	18ffff17 	ldw	r3,-4(r3)
    4430:	18000326 	beq	r3,zero,4440 <quorem+0x1e0>
    4434:	00000606 	br	4450 <quorem+0x1f0>
    4438:	10c00017 	ldw	r3,0(r2)
    443c:	1800041e 	bne	r3,zero,4450 <quorem+0x1f0>
    4440:	d8c00017 	ldw	r3,0(sp)
    4444:	10bfff04 	addi	r2,r2,-4
    4448:	843fffc4 	addi	r16,r16,-1
    444c:	18bffa36 	bltu	r3,r2,4438 <quorem+0x1d8>
    4450:	d8800117 	ldw	r2,4(sp)
    4454:	14000415 	stw	r16,16(r2)
    4458:	8805883a 	mov	r2,r17
    445c:	dfc00d17 	ldw	ra,52(sp)
    4460:	df000c17 	ldw	fp,48(sp)
    4464:	ddc00b17 	ldw	r23,44(sp)
    4468:	dd800a17 	ldw	r22,40(sp)
    446c:	dd400917 	ldw	r21,36(sp)
    4470:	dd000817 	ldw	r20,32(sp)
    4474:	dcc00717 	ldw	r19,28(sp)
    4478:	dc800617 	ldw	r18,24(sp)
    447c:	dc400517 	ldw	r17,20(sp)
    4480:	dc000417 	ldw	r16,16(sp)
    4484:	dec00e04 	addi	sp,sp,56
    4488:	f800283a 	ret
    448c:	0005883a 	mov	r2,zero
    4490:	003ff206 	br	445c <quorem+0x1fc>

00004494 <_dtoa_r>:
    4494:	20801017 	ldw	r2,64(r4)
    4498:	deffe204 	addi	sp,sp,-120
    449c:	df001c15 	stw	fp,112(sp)
    44a0:	dcc01715 	stw	r19,92(sp)
    44a4:	dc401515 	stw	r17,84(sp)
    44a8:	dc001415 	stw	r16,80(sp)
    44ac:	dfc01d15 	stw	ra,116(sp)
    44b0:	ddc01b15 	stw	r23,108(sp)
    44b4:	dd801a15 	stw	r22,104(sp)
    44b8:	dd401915 	stw	r21,100(sp)
    44bc:	dd001815 	stw	r20,96(sp)
    44c0:	dc801615 	stw	r18,88(sp)
    44c4:	d9400115 	stw	r5,4(sp)
    44c8:	d9c00215 	stw	r7,8(sp)
    44cc:	2039883a 	mov	fp,r4
    44d0:	3027883a 	mov	r19,r6
    44d4:	dc002017 	ldw	r16,128(sp)
    44d8:	3023883a 	mov	r17,r6
    44dc:	10000826 	beq	r2,zero,4500 <_dtoa_r+0x6c>
    44e0:	21801117 	ldw	r6,68(r4)
    44e4:	00c00044 	movi	r3,1
    44e8:	100b883a 	mov	r5,r2
    44ec:	1986983a 	sll	r3,r3,r6
    44f0:	11800115 	stw	r6,4(r2)
    44f4:	10c00215 	stw	r3,8(r2)
    44f8:	0006c280 	call	6c28 <_Bfree>
    44fc:	e0001015 	stw	zero,64(fp)
    4500:	98018116 	blt	r19,zero,4b08 <_dtoa_r+0x674>
    4504:	80000015 	stw	zero,0(r16)
    4508:	989ffc2c 	andhi	r2,r19,32752
    450c:	00dffc34 	movhi	r3,32752
    4510:	10c18626 	beq	r2,r3,4b2c <_dtoa_r+0x698>
    4514:	d9000117 	ldw	r4,4(sp)
    4518:	000d883a 	mov	r6,zero
    451c:	000f883a 	mov	r7,zero
    4520:	880b883a 	mov	r5,r17
    4524:	000bf640 	call	bf64 <__eqdf2>
    4528:	1000191e 	bne	r2,zero,4590 <_dtoa_r+0xfc>
    452c:	d8c01f17 	ldw	r3,124(sp)
    4530:	00800044 	movi	r2,1
    4534:	18800015 	stw	r2,0(r3)
    4538:	d8802117 	ldw	r2,132(sp)
    453c:	10032426 	beq	r2,zero,51d0 <_dtoa_r+0xd3c>
    4540:	d9002117 	ldw	r4,132(sp)
    4544:	00800074 	movhi	r2,1
    4548:	10bf1f44 	addi	r2,r2,-899
    454c:	00c00074 	movhi	r3,1
    4550:	20800015 	stw	r2,0(r4)
    4554:	18bf1f04 	addi	r2,r3,-900
    4558:	d8800315 	stw	r2,12(sp)
    455c:	d8800317 	ldw	r2,12(sp)
    4560:	dfc01d17 	ldw	ra,116(sp)
    4564:	df001c17 	ldw	fp,112(sp)
    4568:	ddc01b17 	ldw	r23,108(sp)
    456c:	dd801a17 	ldw	r22,104(sp)
    4570:	dd401917 	ldw	r21,100(sp)
    4574:	dd001817 	ldw	r20,96(sp)
    4578:	dcc01717 	ldw	r19,92(sp)
    457c:	dc801617 	ldw	r18,88(sp)
    4580:	dc401517 	ldw	r17,84(sp)
    4584:	dc001417 	ldw	r16,80(sp)
    4588:	dec01e04 	addi	sp,sp,120
    458c:	f800283a 	ret
    4590:	dc800117 	ldw	r18,4(sp)
    4594:	d8801204 	addi	r2,sp,72
    4598:	9820d53a 	srli	r16,r19,20
    459c:	d8800015 	stw	r2,0(sp)
    45a0:	d9c01304 	addi	r7,sp,76
    45a4:	900b883a 	mov	r5,r18
    45a8:	880d883a 	mov	r6,r17
    45ac:	e009883a 	mov	r4,fp
    45b0:	00077f80 	call	77f8 <__d2b>
    45b4:	102b883a 	mov	r21,r2
    45b8:	8001701e 	bne	r16,zero,4b7c <_dtoa_r+0x6e8>
    45bc:	dc801217 	ldw	r18,72(sp)
    45c0:	dc001317 	ldw	r16,76(sp)
    45c4:	9421883a 	add	r16,r18,r16
    45c8:	80810c84 	addi	r2,r16,1074
    45cc:	10c00850 	cmplti	r3,r2,33
    45d0:	18030f1e 	bne	r3,zero,5210 <_dtoa_r+0xd7c>
    45d4:	01001004 	movi	r4,64
    45d8:	2085c83a 	sub	r2,r4,r2
    45dc:	98a6983a 	sll	r19,r19,r2
    45e0:	d8800117 	ldw	r2,4(sp)
    45e4:	81010484 	addi	r4,r16,1042
    45e8:	1108d83a 	srl	r4,r2,r4
    45ec:	9908b03a 	or	r4,r19,r4
    45f0:	000d4ac0 	call	d4ac <__floatunsidf>
    45f4:	1009883a 	mov	r4,r2
    45f8:	017f8434 	movhi	r5,65040
    45fc:	00800044 	movi	r2,1
    4600:	194b883a 	add	r5,r3,r5
    4604:	843fffc4 	addi	r16,r16,-1
    4608:	d8800a15 	stw	r2,40(sp)
    460c:	000d883a 	mov	r6,zero
    4610:	01cffe34 	movhi	r7,16376
    4614:	000c9a40 	call	c9a4 <__subdf3>
    4618:	0198dbf4 	movhi	r6,25455
    461c:	01cff4f4 	movhi	r7,16339
    4620:	3190d844 	addi	r6,r6,17249
    4624:	39e1e9c4 	addi	r7,r7,-30809
    4628:	1009883a 	mov	r4,r2
    462c:	180b883a 	mov	r5,r3
    4630:	000c1c40 	call	c1c4 <__muldf3>
    4634:	01a2d874 	movhi	r6,35681
    4638:	01cff1f4 	movhi	r7,16327
    463c:	31b22cc4 	addi	r6,r6,-14157
    4640:	39e28a04 	addi	r7,r7,-30168
    4644:	180b883a 	mov	r5,r3
    4648:	1009883a 	mov	r4,r2
    464c:	000ac600 	call	ac60 <__adddf3>
    4650:	8009883a 	mov	r4,r16
    4654:	1029883a 	mov	r20,r2
    4658:	1827883a 	mov	r19,r3
    465c:	000d3e40 	call	d3e4 <__floatsidf>
    4660:	019427f4 	movhi	r6,20639
    4664:	01cff4f4 	movhi	r7,16339
    4668:	319e7ec4 	addi	r6,r6,31227
    466c:	39d104c4 	addi	r7,r7,17427
    4670:	1009883a 	mov	r4,r2
    4674:	180b883a 	mov	r5,r3
    4678:	000c1c40 	call	c1c4 <__muldf3>
    467c:	100d883a 	mov	r6,r2
    4680:	180f883a 	mov	r7,r3
    4684:	a009883a 	mov	r4,r20
    4688:	980b883a 	mov	r5,r19
    468c:	000ac600 	call	ac60 <__adddf3>
    4690:	1009883a 	mov	r4,r2
    4694:	180b883a 	mov	r5,r3
    4698:	1029883a 	mov	r20,r2
    469c:	1827883a 	mov	r19,r3
    46a0:	000d3640 	call	d364 <__fixdfsi>
    46a4:	000d883a 	mov	r6,zero
    46a8:	000f883a 	mov	r7,zero
    46ac:	a009883a 	mov	r4,r20
    46b0:	980b883a 	mov	r5,r19
    46b4:	102d883a 	mov	r22,r2
    46b8:	000c0d40 	call	c0d4 <__ledf2>
    46bc:	1002ba16 	blt	r2,zero,51a8 <_dtoa_r+0xd14>
    46c0:	9421c83a 	sub	r16,r18,r16
    46c4:	b08005e8 	cmpgeui	r2,r22,23
    46c8:	853fffc4 	addi	r20,r16,-1
    46cc:	1002ae1e 	bne	r2,zero,5188 <_dtoa_r+0xcf4>
    46d0:	b00690fa 	slli	r3,r22,3
    46d4:	00800074 	movhi	r2,1
    46d8:	10bfe304 	addi	r2,r2,-116
    46dc:	10c5883a 	add	r2,r2,r3
    46e0:	11800017 	ldw	r6,0(r2)
    46e4:	11c00117 	ldw	r7,4(r2)
    46e8:	d9000117 	ldw	r4,4(sp)
    46ec:	880b883a 	mov	r5,r17
    46f0:	000c0d40 	call	c0d4 <__ledf2>
    46f4:	10026f0e 	bge	r2,zero,50b4 <_dtoa_r+0xc20>
    46f8:	d8000915 	stw	zero,36(sp)
    46fc:	b5bfffc4 	addi	r22,r22,-1
    4700:	a002a416 	blt	r20,zero,5194 <_dtoa_r+0xd00>
    4704:	d8000515 	stw	zero,20(sp)
    4708:	b0026d0e 	bge	r22,zero,50c0 <_dtoa_r+0xc2c>
    470c:	d8800517 	ldw	r2,20(sp)
    4710:	d8c00217 	ldw	r3,8(sp)
    4714:	dd800415 	stw	r22,16(sp)
    4718:	1585c83a 	sub	r2,r2,r22
    471c:	d8800515 	stw	r2,20(sp)
    4720:	0585c83a 	sub	r2,zero,r22
    4724:	d8800815 	stw	r2,32(sp)
    4728:	188002a8 	cmpgeui	r2,r3,10
    472c:	002d883a 	mov	r22,zero
    4730:	1002691e 	bne	r2,zero,50d8 <_dtoa_r+0xc44>
    4734:	18800190 	cmplti	r2,r3,6
    4738:	1002ba1e 	bne	r2,zero,5224 <_dtoa_r+0xd90>
    473c:	18bfff04 	addi	r2,r3,-4
    4740:	d8800215 	stw	r2,8(sp)
    4744:	0021883a 	mov	r16,zero
    4748:	d8c00217 	ldw	r3,8(sp)
    474c:	188000e0 	cmpeqi	r2,r3,3
    4750:	10039d1e 	bne	r2,zero,55c8 <_dtoa_r+0x1134>
    4754:	18800108 	cmpgei	r2,r3,4
    4758:	10027a26 	beq	r2,zero,5144 <_dtoa_r+0xcb0>
    475c:	d8c00217 	ldw	r3,8(sp)
    4760:	18800120 	cmpeqi	r2,r3,4
    4764:	10026926 	beq	r2,zero,510c <_dtoa_r+0xc78>
    4768:	00800044 	movi	r2,1
    476c:	d8800715 	stw	r2,28(sp)
    4770:	d8801e17 	ldw	r2,120(sp)
    4774:	0083670e 	bge	zero,r2,5514 <_dtoa_r+0x1080>
    4778:	d8800b15 	stw	r2,44(sp)
    477c:	d8800615 	stw	r2,24(sp)
    4780:	100d883a 	mov	r6,r2
    4784:	e0001115 	stw	zero,68(fp)
    4788:	30800610 	cmplti	r2,r6,24
    478c:	dc800617 	ldw	r18,24(sp)
    4790:	1004eb1e 	bne	r2,zero,5b40 <_dtoa_r+0x16ac>
    4794:	00c00044 	movi	r3,1
    4798:	00800104 	movi	r2,4
    479c:	1085883a 	add	r2,r2,r2
    47a0:	11000504 	addi	r4,r2,20
    47a4:	180b883a 	mov	r5,r3
    47a8:	18c00044 	addi	r3,r3,1
    47ac:	313ffb2e 	bgeu	r6,r4,479c <_dtoa_r+0x308>
    47b0:	e1401115 	stw	r5,68(fp)
    47b4:	e009883a 	mov	r4,fp
    47b8:	0006b840 	call	6b84 <_Balloc>
    47bc:	d8800315 	stw	r2,12(sp)
    47c0:	e0801015 	stw	r2,64(fp)
    47c4:	948003e8 	cmpgeui	r18,r18,15
    47c8:	9000fe1e 	bne	r18,zero,4bc4 <_dtoa_r+0x730>
    47cc:	8000fd26 	beq	r16,zero,4bc4 <_dtoa_r+0x730>
    47d0:	d9000417 	ldw	r4,16(sp)
    47d4:	0103c60e 	bge	zero,r4,56f0 <_dtoa_r+0x125c>
    47d8:	208003cc 	andi	r2,r4,15
    47dc:	100690fa 	slli	r3,r2,3
    47e0:	202fd13a 	srai	r23,r4,4
    47e4:	00800074 	movhi	r2,1
    47e8:	10bfe304 	addi	r2,r2,-116
    47ec:	10c5883a 	add	r2,r2,r3
    47f0:	b8c0040c 	andi	r3,r23,16
    47f4:	12800017 	ldw	r10,0(r2)
    47f8:	12400117 	ldw	r9,4(r2)
    47fc:	1803621e 	bne	r3,zero,5588 <_dtoa_r+0x10f4>
    4800:	d8800117 	ldw	r2,4(sp)
    4804:	8827883a 	mov	r19,r17
    4808:	04000084 	movi	r16,2
    480c:	d8800c15 	stw	r2,48(sp)
    4810:	04800074 	movhi	r18,1
    4814:	94bfd904 	addi	r18,r18,-156
    4818:	b8000f26 	beq	r23,zero,4858 <_dtoa_r+0x3c4>
    481c:	5005883a 	mov	r2,r10
    4820:	4807883a 	mov	r3,r9
    4824:	b980004c 	andi	r6,r23,1
    4828:	1009883a 	mov	r4,r2
    482c:	b82fd07a 	srai	r23,r23,1
    4830:	180b883a 	mov	r5,r3
    4834:	30000426 	beq	r6,zero,4848 <_dtoa_r+0x3b4>
    4838:	91800017 	ldw	r6,0(r18)
    483c:	91c00117 	ldw	r7,4(r18)
    4840:	84000044 	addi	r16,r16,1
    4844:	000c1c40 	call	c1c4 <__muldf3>
    4848:	94800204 	addi	r18,r18,8
    484c:	b83ff51e 	bne	r23,zero,4824 <_dtoa_r+0x390>
    4850:	1015883a 	mov	r10,r2
    4854:	1813883a 	mov	r9,r3
    4858:	d9000c17 	ldw	r4,48(sp)
    485c:	980b883a 	mov	r5,r19
    4860:	500d883a 	mov	r6,r10
    4864:	480f883a 	mov	r7,r9
    4868:	000b6000 	call	b600 <__divdf3>
    486c:	1025883a 	mov	r18,r2
    4870:	1827883a 	mov	r19,r3
    4874:	d8800917 	ldw	r2,36(sp)
    4878:	10000626 	beq	r2,zero,4894 <_dtoa_r+0x400>
    487c:	000d883a 	mov	r6,zero
    4880:	01cffc34 	movhi	r7,16368
    4884:	9009883a 	mov	r4,r18
    4888:	980b883a 	mov	r5,r19
    488c:	000c0d40 	call	c0d4 <__ledf2>
    4890:	10042616 	blt	r2,zero,592c <_dtoa_r+0x1498>
    4894:	8009883a 	mov	r4,r16
    4898:	000d3e40 	call	d3e4 <__floatsidf>
    489c:	900d883a 	mov	r6,r18
    48a0:	980f883a 	mov	r7,r19
    48a4:	1009883a 	mov	r4,r2
    48a8:	180b883a 	mov	r5,r3
    48ac:	000c1c40 	call	c1c4 <__muldf3>
    48b0:	000d883a 	mov	r6,zero
    48b4:	01d00734 	movhi	r7,16412
    48b8:	1009883a 	mov	r4,r2
    48bc:	180b883a 	mov	r5,r3
    48c0:	000ac600 	call	ac60 <__adddf3>
    48c4:	d8800c15 	stw	r2,48(sp)
    48c8:	00bf3034 	movhi	r2,64704
    48cc:	1885883a 	add	r2,r3,r2
    48d0:	d8800d15 	stw	r2,52(sp)
    48d4:	d8800617 	ldw	r2,24(sp)
    48d8:	10036d26 	beq	r2,zero,5690 <_dtoa_r+0x11fc>
    48dc:	d8800417 	ldw	r2,16(sp)
    48e0:	d8800f15 	stw	r2,60(sp)
    48e4:	d8800617 	ldw	r2,24(sp)
    48e8:	d8800e15 	stw	r2,56(sp)
    48ec:	980b883a 	mov	r5,r19
    48f0:	9009883a 	mov	r4,r18
    48f4:	000d3640 	call	d364 <__fixdfsi>
    48f8:	1009883a 	mov	r4,r2
    48fc:	102f883a 	mov	r23,r2
    4900:	000d3e40 	call	d3e4 <__floatsidf>
    4904:	100d883a 	mov	r6,r2
    4908:	180f883a 	mov	r7,r3
    490c:	9009883a 	mov	r4,r18
    4910:	980b883a 	mov	r5,r19
    4914:	000c9a40 	call	c9a4 <__subdf3>
    4918:	1025883a 	mov	r18,r2
    491c:	d8800e17 	ldw	r2,56(sp)
    4920:	1821883a 	mov	r16,r3
    4924:	ba400c04 	addi	r9,r23,48
    4928:	10bfffc4 	addi	r2,r2,-1
    492c:	100690fa 	slli	r3,r2,3
    4930:	00800074 	movhi	r2,1
    4934:	10bfe304 	addi	r2,r2,-116
    4938:	10c5883a 	add	r2,r2,r3
    493c:	11800017 	ldw	r6,0(r2)
    4940:	d8c00317 	ldw	r3,12(sp)
    4944:	11c00117 	ldw	r7,4(r2)
    4948:	d8800717 	ldw	r2,28(sp)
    494c:	4811883a 	mov	r8,r9
    4950:	da001015 	stw	r8,64(sp)
    4954:	1dc00044 	addi	r23,r3,1
    4958:	1003a226 	beq	r2,zero,57e4 <_dtoa_r+0x1350>
    495c:	0009883a 	mov	r4,zero
    4960:	014ff834 	movhi	r5,16352
    4964:	da401115 	stw	r9,68(sp)
    4968:	000b6000 	call	b600 <__divdf3>
    496c:	d9800c17 	ldw	r6,48(sp)
    4970:	d9c00d17 	ldw	r7,52(sp)
    4974:	1009883a 	mov	r4,r2
    4978:	180b883a 	mov	r5,r3
    497c:	000c9a40 	call	c9a4 <__subdf3>
    4980:	1827883a 	mov	r19,r3
    4984:	da401117 	ldw	r9,68(sp)
    4988:	d8c00317 	ldw	r3,12(sp)
    498c:	900d883a 	mov	r6,r18
    4990:	800f883a 	mov	r7,r16
    4994:	1a400005 	stb	r9,0(r3)
    4998:	1009883a 	mov	r4,r2
    499c:	980b883a 	mov	r5,r19
    49a0:	d8800c15 	stw	r2,48(sp)
    49a4:	000bfe40 	call	bfe4 <__gedf2>
    49a8:	da001017 	ldw	r8,64(sp)
    49ac:	00804816 	blt	zero,r2,4ad0 <_dtoa_r+0x63c>
    49b0:	900d883a 	mov	r6,r18
    49b4:	800f883a 	mov	r7,r16
    49b8:	0009883a 	mov	r4,zero
    49bc:	014ffc34 	movhi	r5,16368
    49c0:	da000d15 	stw	r8,52(sp)
    49c4:	000c9a40 	call	c9a4 <__subdf3>
    49c8:	d9000c17 	ldw	r4,48(sp)
    49cc:	100d883a 	mov	r6,r2
    49d0:	180f883a 	mov	r7,r3
    49d4:	980b883a 	mov	r5,r19
    49d8:	000bfe40 	call	bfe4 <__gedf2>
    49dc:	da000d17 	ldw	r8,52(sp)
    49e0:	00844e16 	blt	zero,r2,5b1c <_dtoa_r+0x1688>
    49e4:	d8c00e17 	ldw	r3,56(sp)
    49e8:	18800060 	cmpeqi	r2,r3,1
    49ec:	1000751e 	bne	r2,zero,4bc4 <_dtoa_r+0x730>
    49f0:	d8800317 	ldw	r2,12(sp)
    49f4:	dd800d15 	stw	r22,52(sp)
    49f8:	dd000e15 	stw	r20,56(sp)
    49fc:	10c5883a 	add	r2,r2,r3
    4a00:	dd000c17 	ldw	r20,48(sp)
    4a04:	102d883a 	mov	r22,r2
    4a08:	dc400c15 	stw	r17,48(sp)
    4a0c:	00000806 	br	4a30 <_dtoa_r+0x59c>
    4a10:	000c9a40 	call	c9a4 <__subdf3>
    4a14:	a00d883a 	mov	r6,r20
    4a18:	980f883a 	mov	r7,r19
    4a1c:	1009883a 	mov	r4,r2
    4a20:	180b883a 	mov	r5,r3
    4a24:	000c0d40 	call	c0d4 <__ledf2>
    4a28:	10042316 	blt	r2,zero,5ab8 <_dtoa_r+0x1624>
    4a2c:	bd806226 	beq	r23,r22,4bb8 <_dtoa_r+0x724>
    4a30:	a009883a 	mov	r4,r20
    4a34:	980b883a 	mov	r5,r19
    4a38:	000d883a 	mov	r6,zero
    4a3c:	01d00934 	movhi	r7,16420
    4a40:	000c1c40 	call	c1c4 <__muldf3>
    4a44:	000d883a 	mov	r6,zero
    4a48:	01d00934 	movhi	r7,16420
    4a4c:	9009883a 	mov	r4,r18
    4a50:	800b883a 	mov	r5,r16
    4a54:	1029883a 	mov	r20,r2
    4a58:	1827883a 	mov	r19,r3
    4a5c:	000c1c40 	call	c1c4 <__muldf3>
    4a60:	180b883a 	mov	r5,r3
    4a64:	1009883a 	mov	r4,r2
    4a68:	1821883a 	mov	r16,r3
    4a6c:	1025883a 	mov	r18,r2
    4a70:	000d3640 	call	d364 <__fixdfsi>
    4a74:	1009883a 	mov	r4,r2
    4a78:	1023883a 	mov	r17,r2
    4a7c:	000d3e40 	call	d3e4 <__floatsidf>
    4a80:	9009883a 	mov	r4,r18
    4a84:	800b883a 	mov	r5,r16
    4a88:	100d883a 	mov	r6,r2
    4a8c:	180f883a 	mov	r7,r3
    4a90:	000c9a40 	call	c9a4 <__subdf3>
    4a94:	bdc00044 	addi	r23,r23,1
    4a98:	8c400c04 	addi	r17,r17,48
    4a9c:	a00d883a 	mov	r6,r20
    4aa0:	980f883a 	mov	r7,r19
    4aa4:	1009883a 	mov	r4,r2
    4aa8:	180b883a 	mov	r5,r3
    4aac:	bc7fffc5 	stb	r17,-1(r23)
    4ab0:	1025883a 	mov	r18,r2
    4ab4:	1821883a 	mov	r16,r3
    4ab8:	000c0d40 	call	c0d4 <__ledf2>
    4abc:	900d883a 	mov	r6,r18
    4ac0:	800f883a 	mov	r7,r16
    4ac4:	0009883a 	mov	r4,zero
    4ac8:	014ffc34 	movhi	r5,16368
    4acc:	103fd00e 	bge	r2,zero,4a10 <_dtoa_r+0x57c>
    4ad0:	d8800f17 	ldw	r2,60(sp)
    4ad4:	10800044 	addi	r2,r2,1
    4ad8:	d8800415 	stw	r2,16(sp)
    4adc:	a80b883a 	mov	r5,r21
    4ae0:	e009883a 	mov	r4,fp
    4ae4:	0006c280 	call	6c28 <_Bfree>
    4ae8:	d8801f17 	ldw	r2,124(sp)
    4aec:	d8c00417 	ldw	r3,16(sp)
    4af0:	b8000005 	stb	zero,0(r23)
    4af4:	10c00015 	stw	r3,0(r2)
    4af8:	d8802117 	ldw	r2,132(sp)
    4afc:	103e9726 	beq	r2,zero,455c <_dtoa_r+0xc8>
    4b00:	15c00015 	stw	r23,0(r2)
    4b04:	003e9506 	br	455c <_dtoa_r+0xc8>
    4b08:	04600034 	movhi	r17,32768
    4b0c:	8c7fffc4 	addi	r17,r17,-1
    4b10:	9c62703a 	and	r17,r19,r17
    4b14:	00800044 	movi	r2,1
    4b18:	8827883a 	mov	r19,r17
    4b1c:	80800015 	stw	r2,0(r16)
    4b20:	00dffc34 	movhi	r3,32752
    4b24:	989ffc2c 	andhi	r2,r19,32752
    4b28:	10fe7a1e 	bne	r2,r3,4514 <_dtoa_r+0x80>
    4b2c:	00800434 	movhi	r2,16
    4b30:	d8c01f17 	ldw	r3,124(sp)
    4b34:	10bfffc4 	addi	r2,r2,-1
    4b38:	98a6703a 	and	r19,r19,r2
    4b3c:	0089c3c4 	movi	r2,9999
    4b40:	18800015 	stw	r2,0(r3)
    4b44:	d8800117 	ldw	r2,4(sp)
    4b48:	98aab03a 	or	r21,r19,r2
    4b4c:	a800141e 	bne	r21,zero,4ba0 <_dtoa_r+0x70c>
    4b50:	d8802117 	ldw	r2,132(sp)
    4b54:	1003f626 	beq	r2,zero,5b30 <_dtoa_r+0x169c>
    4b58:	00800074 	movhi	r2,1
    4b5c:	1007883a 	mov	r3,r2
    4b60:	18ffc904 	addi	r3,r3,-220
    4b64:	00800074 	movhi	r2,1
    4b68:	d8c00315 	stw	r3,12(sp)
    4b6c:	10bfcb04 	addi	r2,r2,-212
    4b70:	d8c02117 	ldw	r3,132(sp)
    4b74:	18800015 	stw	r2,0(r3)
    4b78:	003e7806 	br	455c <_dtoa_r+0xc8>
    4b7c:	01400434 	movhi	r5,16
    4b80:	297fffc4 	addi	r5,r5,-1
    4b84:	894a703a 	and	r5,r17,r5
    4b88:	9009883a 	mov	r4,r18
    4b8c:	294ffc34 	orhi	r5,r5,16368
    4b90:	843f0044 	addi	r16,r16,-1023
    4b94:	dc801217 	ldw	r18,72(sp)
    4b98:	d8000a15 	stw	zero,40(sp)
    4b9c:	003e9b06 	br	460c <_dtoa_r+0x178>
    4ba0:	d8802117 	ldw	r2,132(sp)
    4ba4:	1002461e 	bne	r2,zero,54c0 <_dtoa_r+0x102c>
    4ba8:	00800074 	movhi	r2,1
    4bac:	10bfc804 	addi	r2,r2,-224
    4bb0:	d8800315 	stw	r2,12(sp)
    4bb4:	003e6906 	br	455c <_dtoa_r+0xc8>
    4bb8:	dd800d17 	ldw	r22,52(sp)
    4bbc:	dd000e17 	ldw	r20,56(sp)
    4bc0:	dc400c17 	ldw	r17,48(sp)
    4bc4:	d8801317 	ldw	r2,76(sp)
    4bc8:	10009f16 	blt	r2,zero,4e48 <_dtoa_r+0x9b4>
    4bcc:	d9000417 	ldw	r4,16(sp)
    4bd0:	20c003c8 	cmpgei	r3,r4,15
    4bd4:	18009c1e 	bne	r3,zero,4e48 <_dtoa_r+0x9b4>
    4bd8:	200690fa 	slli	r3,r4,3
    4bdc:	00800074 	movhi	r2,1
    4be0:	10bfe304 	addi	r2,r2,-116
    4be4:	10c5883a 	add	r2,r2,r3
    4be8:	14000017 	ldw	r16,0(r2)
    4bec:	14800117 	ldw	r18,4(r2)
    4bf0:	d8801e17 	ldw	r2,120(sp)
    4bf4:	1000140e 	bge	r2,zero,4c48 <_dtoa_r+0x7b4>
    4bf8:	d8800617 	ldw	r2,24(sp)
    4bfc:	00801216 	blt	zero,r2,4c48 <_dtoa_r+0x7b4>
    4c00:	1002b81e 	bne	r2,zero,56e4 <_dtoa_r+0x1250>
    4c04:	8009883a 	mov	r4,r16
    4c08:	900b883a 	mov	r5,r18
    4c0c:	000d883a 	mov	r6,zero
    4c10:	01d00534 	movhi	r7,16404
    4c14:	000c1c40 	call	c1c4 <__muldf3>
    4c18:	d9800117 	ldw	r6,4(sp)
    4c1c:	880f883a 	mov	r7,r17
    4c20:	1009883a 	mov	r4,r2
    4c24:	180b883a 	mov	r5,r3
    4c28:	000bfe40 	call	bfe4 <__gedf2>
    4c2c:	0025883a 	mov	r18,zero
    4c30:	0021883a 	mov	r16,zero
    4c34:	1001fd16 	blt	r2,zero,542c <_dtoa_r+0xf98>
    4c38:	d8801e17 	ldw	r2,120(sp)
    4c3c:	ddc00317 	ldw	r23,12(sp)
    4c40:	00a2303a 	nor	r17,zero,r2
    4c44:	0001ff06 	br	5444 <_dtoa_r+0xfb0>
    4c48:	dcc00117 	ldw	r19,4(sp)
    4c4c:	800d883a 	mov	r6,r16
    4c50:	900f883a 	mov	r7,r18
    4c54:	880b883a 	mov	r5,r17
    4c58:	9809883a 	mov	r4,r19
    4c5c:	000b6000 	call	b600 <__divdf3>
    4c60:	180b883a 	mov	r5,r3
    4c64:	1009883a 	mov	r4,r2
    4c68:	000d3640 	call	d364 <__fixdfsi>
    4c6c:	1009883a 	mov	r4,r2
    4c70:	102d883a 	mov	r22,r2
    4c74:	000d3e40 	call	d3e4 <__floatsidf>
    4c78:	800d883a 	mov	r6,r16
    4c7c:	900f883a 	mov	r7,r18
    4c80:	1009883a 	mov	r4,r2
    4c84:	180b883a 	mov	r5,r3
    4c88:	000c1c40 	call	c1c4 <__muldf3>
    4c8c:	880b883a 	mov	r5,r17
    4c90:	100d883a 	mov	r6,r2
    4c94:	180f883a 	mov	r7,r3
    4c98:	9809883a 	mov	r4,r19
    4c9c:	000c9a40 	call	c9a4 <__subdf3>
    4ca0:	dc400317 	ldw	r17,12(sp)
    4ca4:	1009883a 	mov	r4,r2
    4ca8:	d9c00417 	ldw	r7,16(sp)
    4cac:	b0800c04 	addi	r2,r22,48
    4cb0:	88800005 	stb	r2,0(r17)
    4cb4:	d8800617 	ldw	r2,24(sp)
    4cb8:	39c00044 	addi	r7,r7,1
    4cbc:	d9c00415 	stw	r7,16(sp)
    4cc0:	11800060 	cmpeqi	r6,r2,1
    4cc4:	180b883a 	mov	r5,r3
    4cc8:	2005883a 	mov	r2,r4
    4ccc:	8dc00044 	addi	r23,r17,1
    4cd0:	3000391e 	bne	r6,zero,4db8 <_dtoa_r+0x924>
    4cd4:	01d00934 	movhi	r7,16420
    4cd8:	000c1c40 	call	c1c4 <__muldf3>
    4cdc:	000d883a 	mov	r6,zero
    4ce0:	000f883a 	mov	r7,zero
    4ce4:	1009883a 	mov	r4,r2
    4ce8:	180b883a 	mov	r5,r3
    4cec:	1027883a 	mov	r19,r2
    4cf0:	1829883a 	mov	r20,r3
    4cf4:	000bf640 	call	bf64 <__eqdf2>
    4cf8:	103f7826 	beq	r2,zero,4adc <_dtoa_r+0x648>
    4cfc:	d8c00617 	ldw	r3,24(sp)
    4d00:	8805883a 	mov	r2,r17
    4d04:	dd400115 	stw	r21,4(sp)
    4d08:	8c400084 	addi	r17,r17,2
    4d0c:	10ed883a 	add	r22,r2,r3
    4d10:	00000a06 	br	4d3c <_dtoa_r+0x8a8>
    4d14:	000c1c40 	call	c1c4 <__muldf3>
    4d18:	000d883a 	mov	r6,zero
    4d1c:	000f883a 	mov	r7,zero
    4d20:	1009883a 	mov	r4,r2
    4d24:	180b883a 	mov	r5,r3
    4d28:	1027883a 	mov	r19,r2
    4d2c:	1829883a 	mov	r20,r3
    4d30:	8c400044 	addi	r17,r17,1
    4d34:	000bf640 	call	bf64 <__eqdf2>
    4d38:	10029d26 	beq	r2,zero,57b0 <_dtoa_r+0x131c>
    4d3c:	800d883a 	mov	r6,r16
    4d40:	900f883a 	mov	r7,r18
    4d44:	9809883a 	mov	r4,r19
    4d48:	a00b883a 	mov	r5,r20
    4d4c:	000b6000 	call	b600 <__divdf3>
    4d50:	180b883a 	mov	r5,r3
    4d54:	1009883a 	mov	r4,r2
    4d58:	000d3640 	call	d364 <__fixdfsi>
    4d5c:	1009883a 	mov	r4,r2
    4d60:	102b883a 	mov	r21,r2
    4d64:	000d3e40 	call	d3e4 <__floatsidf>
    4d68:	800d883a 	mov	r6,r16
    4d6c:	900f883a 	mov	r7,r18
    4d70:	1009883a 	mov	r4,r2
    4d74:	180b883a 	mov	r5,r3
    4d78:	000c1c40 	call	c1c4 <__muldf3>
    4d7c:	100d883a 	mov	r6,r2
    4d80:	180f883a 	mov	r7,r3
    4d84:	9809883a 	mov	r4,r19
    4d88:	a00b883a 	mov	r5,r20
    4d8c:	000c9a40 	call	c9a4 <__subdf3>
    4d90:	aa400c04 	addi	r9,r21,48
    4d94:	8a7fffc5 	stb	r9,-1(r17)
    4d98:	000d883a 	mov	r6,zero
    4d9c:	01d00934 	movhi	r7,16420
    4da0:	1009883a 	mov	r4,r2
    4da4:	180b883a 	mov	r5,r3
    4da8:	882f883a 	mov	r23,r17
    4dac:	b47fd91e 	bne	r22,r17,4d14 <_dtoa_r+0x880>
    4db0:	a82d883a 	mov	r22,r21
    4db4:	dd400117 	ldw	r21,4(sp)
    4db8:	100d883a 	mov	r6,r2
    4dbc:	180f883a 	mov	r7,r3
    4dc0:	1009883a 	mov	r4,r2
    4dc4:	180b883a 	mov	r5,r3
    4dc8:	000ac600 	call	ac60 <__adddf3>
    4dcc:	800d883a 	mov	r6,r16
    4dd0:	900f883a 	mov	r7,r18
    4dd4:	1009883a 	mov	r4,r2
    4dd8:	180b883a 	mov	r5,r3
    4ddc:	1027883a 	mov	r19,r2
    4de0:	1823883a 	mov	r17,r3
    4de4:	000bfe40 	call	bfe4 <__gedf2>
    4de8:	00800816 	blt	zero,r2,4e0c <_dtoa_r+0x978>
    4dec:	800d883a 	mov	r6,r16
    4df0:	900f883a 	mov	r7,r18
    4df4:	9809883a 	mov	r4,r19
    4df8:	880b883a 	mov	r5,r17
    4dfc:	000bf640 	call	bf64 <__eqdf2>
    4e00:	103f361e 	bne	r2,zero,4adc <_dtoa_r+0x648>
    4e04:	b580004c 	andi	r22,r22,1
    4e08:	b03f3426 	beq	r22,zero,4adc <_dtoa_r+0x648>
    4e0c:	ba3fffc3 	ldbu	r8,-1(r23)
    4e10:	d9000317 	ldw	r4,12(sp)
    4e14:	00000306 	br	4e24 <_dtoa_r+0x990>
    4e18:	20c30e26 	beq	r4,r3,5a54 <_dtoa_r+0x15c0>
    4e1c:	1a3fffc3 	ldbu	r8,-1(r3)
    4e20:	182f883a 	mov	r23,r3
    4e24:	40803fcc 	andi	r2,r8,255
    4e28:	1080201c 	xori	r2,r2,128
    4e2c:	10bfe004 	addi	r2,r2,-128
    4e30:	10800e60 	cmpeqi	r2,r2,57
    4e34:	b8ffffc4 	addi	r3,r23,-1
    4e38:	103ff71e 	bne	r2,zero,4e18 <_dtoa_r+0x984>
    4e3c:	42000044 	addi	r8,r8,1
    4e40:	1a000005 	stb	r8,0(r3)
    4e44:	003f2506 	br	4adc <_dtoa_r+0x648>
    4e48:	d8c00717 	ldw	r3,28(sp)
    4e4c:	1800e426 	beq	r3,zero,51e0 <_dtoa_r+0xd4c>
    4e50:	d8c00217 	ldw	r3,8(sp)
    4e54:	18c00088 	cmpgei	r3,r3,2
    4e58:	1801ec26 	beq	r3,zero,560c <_dtoa_r+0x1178>
    4e5c:	d8800617 	ldw	r2,24(sp)
    4e60:	14bfffc4 	addi	r18,r2,-1
    4e64:	d8800817 	ldw	r2,32(sp)
    4e68:	1481c50e 	bge	r2,r18,5580 <_dtoa_r+0x10ec>
    4e6c:	d8800817 	ldw	r2,32(sp)
    4e70:	dc800815 	stw	r18,32(sp)
    4e74:	9085c83a 	sub	r2,r18,r2
    4e78:	b0ad883a 	add	r22,r22,r2
    4e7c:	0025883a 	mov	r18,zero
    4e80:	d8800617 	ldw	r2,24(sp)
    4e84:	10024c16 	blt	r2,zero,57b8 <_dtoa_r+0x1324>
    4e88:	d8c00517 	ldw	r3,20(sp)
    4e8c:	a0a9883a 	add	r20,r20,r2
    4e90:	1885883a 	add	r2,r3,r2
    4e94:	1827883a 	mov	r19,r3
    4e98:	d8800515 	stw	r2,20(sp)
    4e9c:	01400044 	movi	r5,1
    4ea0:	e009883a 	mov	r4,fp
    4ea4:	0006fac0 	call	6fac <__i2b>
    4ea8:	1021883a 	mov	r16,r2
    4eac:	04c0080e 	bge	zero,r19,4ed0 <_dtoa_r+0xa3c>
    4eb0:	0500070e 	bge	zero,r20,4ed0 <_dtoa_r+0xa3c>
    4eb4:	9805883a 	mov	r2,r19
    4eb8:	a4c1a916 	blt	r20,r19,5560 <_dtoa_r+0x10cc>
    4ebc:	d8c00517 	ldw	r3,20(sp)
    4ec0:	98a7c83a 	sub	r19,r19,r2
    4ec4:	a0a9c83a 	sub	r20,r20,r2
    4ec8:	1887c83a 	sub	r3,r3,r2
    4ecc:	d8c00515 	stw	r3,20(sp)
    4ed0:	d8800817 	ldw	r2,32(sp)
    4ed4:	10001426 	beq	r2,zero,4f28 <_dtoa_r+0xa94>
    4ed8:	d8800717 	ldw	r2,28(sp)
    4edc:	10017226 	beq	r2,zero,54a8 <_dtoa_r+0x1014>
    4ee0:	04800e0e 	bge	zero,r18,4f1c <_dtoa_r+0xa88>
    4ee4:	800b883a 	mov	r5,r16
    4ee8:	900d883a 	mov	r6,r18
    4eec:	e009883a 	mov	r4,fp
    4ef0:	00072200 	call	7220 <__pow5mult>
    4ef4:	a80d883a 	mov	r6,r21
    4ef8:	100b883a 	mov	r5,r2
    4efc:	e009883a 	mov	r4,fp
    4f00:	1021883a 	mov	r16,r2
    4f04:	0006fe00 	call	6fe0 <__multiply>
    4f08:	102f883a 	mov	r23,r2
    4f0c:	a80b883a 	mov	r5,r21
    4f10:	e009883a 	mov	r4,fp
    4f14:	0006c280 	call	6c28 <_Bfree>
    4f18:	b82b883a 	mov	r21,r23
    4f1c:	d8800817 	ldw	r2,32(sp)
    4f20:	148dc83a 	sub	r6,r2,r18
    4f24:	3001611e 	bne	r6,zero,54ac <_dtoa_r+0x1018>
    4f28:	01400044 	movi	r5,1
    4f2c:	e009883a 	mov	r4,fp
    4f30:	0006fac0 	call	6fac <__i2b>
    4f34:	1025883a 	mov	r18,r2
    4f38:	0580bc16 	blt	zero,r22,522c <_dtoa_r+0xd98>
    4f3c:	d8800217 	ldw	r2,8(sp)
    4f40:	10800088 	cmpgei	r2,r2,2
    4f44:	10016526 	beq	r2,zero,54dc <_dtoa_r+0x1048>
    4f48:	0023883a 	mov	r17,zero
    4f4c:	00800044 	movi	r2,1
    4f50:	b000bf1e 	bne	r22,zero,5250 <_dtoa_r+0xdbc>
    4f54:	1505883a 	add	r2,r2,r20
    4f58:	108007cc 	andi	r2,r2,31
    4f5c:	1000aa26 	beq	r2,zero,5208 <_dtoa_r+0xd74>
    4f60:	00c00804 	movi	r3,32
    4f64:	1887c83a 	sub	r3,r3,r2
    4f68:	19000150 	cmplti	r4,r3,5
    4f6c:	2002f61e 	bne	r4,zero,5b48 <_dtoa_r+0x16b4>
    4f70:	00c00704 	movi	r3,28
    4f74:	1885c83a 	sub	r2,r3,r2
    4f78:	d8c00517 	ldw	r3,20(sp)
    4f7c:	98a7883a 	add	r19,r19,r2
    4f80:	a0a9883a 	add	r20,r20,r2
    4f84:	1887883a 	add	r3,r3,r2
    4f88:	d8c00515 	stw	r3,20(sp)
    4f8c:	d8800517 	ldw	r2,20(sp)
    4f90:	00809716 	blt	zero,r2,51f0 <_dtoa_r+0xd5c>
    4f94:	0500050e 	bge	zero,r20,4fac <_dtoa_r+0xb18>
    4f98:	900b883a 	mov	r5,r18
    4f9c:	a00d883a 	mov	r6,r20
    4fa0:	e009883a 	mov	r4,fp
    4fa4:	00073480 	call	7348 <__lshift>
    4fa8:	1025883a 	mov	r18,r2
    4fac:	d8800917 	ldw	r2,36(sp)
    4fb0:	10012b1e 	bne	r2,zero,5460 <_dtoa_r+0xfcc>
    4fb4:	d8800617 	ldw	r2,24(sp)
    4fb8:	00810d0e 	bge	zero,r2,53f0 <_dtoa_r+0xf5c>
    4fbc:	d8800417 	ldw	r2,16(sp)
    4fc0:	10800044 	addi	r2,r2,1
    4fc4:	d8800415 	stw	r2,16(sp)
    4fc8:	d8800717 	ldw	r2,28(sp)
    4fcc:	1000b21e 	bne	r2,zero,5298 <_dtoa_r+0xe04>
    4fd0:	ddc00317 	ldw	r23,12(sp)
    4fd4:	04400044 	movi	r17,1
    4fd8:	dcc00617 	ldw	r19,24(sp)
    4fdc:	00000306 	br	4fec <_dtoa_r+0xb58>
    4fe0:	0006c4c0 	call	6c4c <__multadd>
    4fe4:	102b883a 	mov	r21,r2
    4fe8:	8c400044 	addi	r17,r17,1
    4fec:	900b883a 	mov	r5,r18
    4ff0:	a809883a 	mov	r4,r21
    4ff4:	00042600 	call	4260 <quorem>
    4ff8:	10800c04 	addi	r2,r2,48
    4ffc:	bdc00044 	addi	r23,r23,1
    5000:	b8bfffc5 	stb	r2,-1(r23)
    5004:	000f883a 	mov	r7,zero
    5008:	01800284 	movi	r6,10
    500c:	a80b883a 	mov	r5,r21
    5010:	e009883a 	mov	r4,fp
    5014:	8cfff216 	blt	r17,r19,4fe0 <_dtoa_r+0xb4c>
    5018:	1011883a 	mov	r8,r2
    501c:	0029883a 	mov	r20,zero
    5020:	a80b883a 	mov	r5,r21
    5024:	01800044 	movi	r6,1
    5028:	e009883a 	mov	r4,fp
    502c:	da000115 	stw	r8,4(sp)
    5030:	00073480 	call	7348 <__lshift>
    5034:	900b883a 	mov	r5,r18
    5038:	1009883a 	mov	r4,r2
    503c:	102b883a 	mov	r21,r2
    5040:	00074840 	call	7484 <__mcmp>
    5044:	b8ffffc3 	ldbu	r3,-1(r23)
    5048:	0081610e 	bge	zero,r2,55d0 <_dtoa_r+0x113c>
    504c:	d9400317 	ldw	r5,12(sp)
    5050:	00000306 	br	5060 <_dtoa_r+0xbcc>
    5054:	29017726 	beq	r5,r4,5634 <_dtoa_r+0x11a0>
    5058:	20ffffc3 	ldbu	r3,-1(r4)
    505c:	202f883a 	mov	r23,r4
    5060:	18803fcc 	andi	r2,r3,255
    5064:	1080201c 	xori	r2,r2,128
    5068:	10bfe004 	addi	r2,r2,-128
    506c:	10800e60 	cmpeqi	r2,r2,57
    5070:	b93fffc4 	addi	r4,r23,-1
    5074:	103ff71e 	bne	r2,zero,5054 <_dtoa_r+0xbc0>
    5078:	18c00044 	addi	r3,r3,1
    507c:	20c00005 	stb	r3,0(r4)
    5080:	900b883a 	mov	r5,r18
    5084:	e009883a 	mov	r4,fp
    5088:	0006c280 	call	6c28 <_Bfree>
    508c:	803e9326 	beq	r16,zero,4adc <_dtoa_r+0x648>
    5090:	a0000426 	beq	r20,zero,50a4 <_dtoa_r+0xc10>
    5094:	a4000326 	beq	r20,r16,50a4 <_dtoa_r+0xc10>
    5098:	a00b883a 	mov	r5,r20
    509c:	e009883a 	mov	r4,fp
    50a0:	0006c280 	call	6c28 <_Bfree>
    50a4:	800b883a 	mov	r5,r16
    50a8:	e009883a 	mov	r4,fp
    50ac:	0006c280 	call	6c28 <_Bfree>
    50b0:	003e8a06 	br	4adc <_dtoa_r+0x648>
    50b4:	d8000915 	stw	zero,36(sp)
    50b8:	a0003616 	blt	r20,zero,5194 <_dtoa_r+0xd00>
    50bc:	d8000515 	stw	zero,20(sp)
    50c0:	d8c00217 	ldw	r3,8(sp)
    50c4:	dd800415 	stw	r22,16(sp)
    50c8:	d8000815 	stw	zero,32(sp)
    50cc:	188002a8 	cmpgeui	r2,r3,10
    50d0:	a5a9883a 	add	r20,r20,r22
    50d4:	103d9726 	beq	r2,zero,4734 <_dtoa_r+0x2a0>
    50d8:	00800044 	movi	r2,1
    50dc:	d8800715 	stw	r2,28(sp)
    50e0:	00bfffc4 	movi	r2,-1
    50e4:	04bfffc4 	movi	r18,-1
    50e8:	04000044 	movi	r16,1
    50ec:	d8000215 	stw	zero,8(sp)
    50f0:	d8800615 	stw	r2,24(sp)
    50f4:	d8001e15 	stw	zero,120(sp)
    50f8:	d8800617 	ldw	r2,24(sp)
    50fc:	e0001115 	stw	zero,68(fp)
    5100:	000b883a 	mov	r5,zero
    5104:	d8800b15 	stw	r2,44(sp)
    5108:	003daa06 	br	47b4 <_dtoa_r+0x320>
    510c:	18800160 	cmpeqi	r2,r3,5
    5110:	00c00044 	movi	r3,1
    5114:	d8c00715 	stw	r3,28(sp)
    5118:	10000d26 	beq	r2,zero,5150 <_dtoa_r+0xcbc>
    511c:	d8801e17 	ldw	r2,120(sp)
    5120:	d8c00417 	ldw	r3,16(sp)
    5124:	10c5883a 	add	r2,r2,r3
    5128:	d8800b15 	stw	r2,44(sp)
    512c:	10800044 	addi	r2,r2,1
    5130:	d8800615 	stw	r2,24(sp)
    5134:	100d883a 	mov	r6,r2
    5138:	00bd9216 	blt	zero,r2,4784 <_dtoa_r+0x2f0>
    513c:	01800044 	movi	r6,1
    5140:	003d9006 	br	4784 <_dtoa_r+0x2f0>
    5144:	188000a0 	cmpeqi	r2,r3,2
    5148:	d8000715 	stw	zero,28(sp)
    514c:	103d881e 	bne	r2,zero,4770 <_dtoa_r+0x2dc>
    5150:	e0001115 	stw	zero,68(fp)
    5154:	000b883a 	mov	r5,zero
    5158:	e009883a 	mov	r4,fp
    515c:	0006b840 	call	6b84 <_Balloc>
    5160:	d8800315 	stw	r2,12(sp)
    5164:	e0801015 	stw	r2,64(fp)
    5168:	00bfffc4 	movi	r2,-1
    516c:	d8800b15 	stw	r2,44(sp)
    5170:	00800044 	movi	r2,1
    5174:	d8800715 	stw	r2,28(sp)
    5178:	00bfffc4 	movi	r2,-1
    517c:	d8001e15 	stw	zero,120(sp)
    5180:	d8800615 	stw	r2,24(sp)
    5184:	003e8f06 	br	4bc4 <_dtoa_r+0x730>
    5188:	00800044 	movi	r2,1
    518c:	d8800915 	stw	r2,36(sp)
    5190:	a03d5c0e 	bge	r20,zero,4704 <_dtoa_r+0x270>
    5194:	04800044 	movi	r18,1
    5198:	9405c83a 	sub	r2,r18,r16
    519c:	d8800515 	stw	r2,20(sp)
    51a0:	0029883a 	mov	r20,zero
    51a4:	003d5806 	br	4708 <_dtoa_r+0x274>
    51a8:	b009883a 	mov	r4,r22
    51ac:	000d3e40 	call	d3e4 <__floatsidf>
    51b0:	a00d883a 	mov	r6,r20
    51b4:	980f883a 	mov	r7,r19
    51b8:	1009883a 	mov	r4,r2
    51bc:	180b883a 	mov	r5,r3
    51c0:	000bf640 	call	bf64 <__eqdf2>
    51c4:	103d3e26 	beq	r2,zero,46c0 <_dtoa_r+0x22c>
    51c8:	b5bfffc4 	addi	r22,r22,-1
    51cc:	003d3c06 	br	46c0 <_dtoa_r+0x22c>
    51d0:	00800074 	movhi	r2,1
    51d4:	10bf1f04 	addi	r2,r2,-900
    51d8:	d8800315 	stw	r2,12(sp)
    51dc:	003cdf06 	br	455c <_dtoa_r+0xc8>
    51e0:	dc800817 	ldw	r18,32(sp)
    51e4:	dcc00517 	ldw	r19,20(sp)
    51e8:	0021883a 	mov	r16,zero
    51ec:	003f2f06 	br	4eac <_dtoa_r+0xa18>
    51f0:	a80b883a 	mov	r5,r21
    51f4:	100d883a 	mov	r6,r2
    51f8:	e009883a 	mov	r4,fp
    51fc:	00073480 	call	7348 <__lshift>
    5200:	102b883a 	mov	r21,r2
    5204:	003f6306 	br	4f94 <_dtoa_r+0xb00>
    5208:	00800704 	movi	r2,28
    520c:	003f5a06 	br	4f78 <_dtoa_r+0xae4>
    5210:	01000804 	movi	r4,32
    5214:	2089c83a 	sub	r4,r4,r2
    5218:	d8800117 	ldw	r2,4(sp)
    521c:	1108983a 	sll	r4,r2,r4
    5220:	003cf306 	br	45f0 <_dtoa_r+0x15c>
    5224:	04000044 	movi	r16,1
    5228:	003d4706 	br	4748 <_dtoa_r+0x2b4>
    522c:	b00d883a 	mov	r6,r22
    5230:	100b883a 	mov	r5,r2
    5234:	e009883a 	mov	r4,fp
    5238:	00072200 	call	7220 <__pow5mult>
    523c:	1025883a 	mov	r18,r2
    5240:	d8800217 	ldw	r2,8(sp)
    5244:	10800090 	cmplti	r2,r2,2
    5248:	10012f1e 	bne	r2,zero,5708 <_dtoa_r+0x1274>
    524c:	0023883a 	mov	r17,zero
    5250:	90800417 	ldw	r2,16(r18)
    5254:	10800104 	addi	r2,r2,4
    5258:	100490ba 	slli	r2,r2,2
    525c:	9085883a 	add	r2,r18,r2
    5260:	11000017 	ldw	r4,0(r2)
    5264:	0006e980 	call	6e98 <__hi0bits>
    5268:	00c00804 	movi	r3,32
    526c:	1885c83a 	sub	r2,r3,r2
    5270:	003f3806 	br	4f54 <_dtoa_r+0xac0>
    5274:	800b883a 	mov	r5,r16
    5278:	000f883a 	mov	r7,zero
    527c:	01800284 	movi	r6,10
    5280:	e009883a 	mov	r4,fp
    5284:	0006c4c0 	call	6c4c <__multadd>
    5288:	1021883a 	mov	r16,r2
    528c:	d8800b17 	ldw	r2,44(sp)
    5290:	00821b0e 	bge	zero,r2,5b00 <_dtoa_r+0x166c>
    5294:	d8800615 	stw	r2,24(sp)
    5298:	04c0b316 	blt	zero,r19,5568 <_dtoa_r+0x10d4>
    529c:	8801341e 	bne	r17,zero,5770 <_dtoa_r+0x12dc>
    52a0:	8027883a 	mov	r19,r16
    52a4:	dc400317 	ldw	r17,12(sp)
    52a8:	d8c00617 	ldw	r3,24(sp)
    52ac:	d8800117 	ldw	r2,4(sp)
    52b0:	8dffffc4 	addi	r23,r17,-1
    52b4:	b8c7883a 	add	r3,r23,r3
    52b8:	d8c00615 	stw	r3,24(sp)
    52bc:	d8c00217 	ldw	r3,8(sp)
    52c0:	1080004c 	andi	r2,r2,1
    52c4:	d8800815 	stw	r2,32(sp)
    52c8:	10c4b03a 	or	r2,r2,r3
    52cc:	d8800715 	stw	r2,28(sp)
    52d0:	00002c06 	br	5384 <_dtoa_r+0xef0>
    52d4:	b80b883a 	mov	r5,r23
    52d8:	a809883a 	mov	r4,r21
    52dc:	da000515 	stw	r8,20(sp)
    52e0:	00074840 	call	7484 <__mcmp>
    52e4:	b80b883a 	mov	r5,r23
    52e8:	e009883a 	mov	r4,fp
    52ec:	d8800115 	stw	r2,4(sp)
    52f0:	0006c280 	call	6c28 <_Bfree>
    52f4:	d8800117 	ldw	r2,4(sp)
    52f8:	da000517 	ldw	r8,20(sp)
    52fc:	1000021e 	bne	r2,zero,5308 <_dtoa_r+0xe74>
    5300:	d8c00717 	ldw	r3,28(sp)
    5304:	1801f226 	beq	r3,zero,5ad0 <_dtoa_r+0x163c>
    5308:	8dc00044 	addi	r23,r17,1
    530c:	a0010516 	blt	r20,zero,5724 <_dtoa_r+0x1290>
    5310:	d8c00217 	ldw	r3,8(sp)
    5314:	a0e8b03a 	or	r20,r20,r3
    5318:	d8c00817 	ldw	r3,32(sp)
    531c:	1d28b03a 	or	r20,r3,r20
    5320:	a0010026 	beq	r20,zero,5724 <_dtoa_r+0x1290>
    5324:	00812816 	blt	zero,r2,57c8 <_dtoa_r+0x1334>
    5328:	d8800617 	ldw	r2,24(sp)
    532c:	8a000005 	stb	r8,0(r17)
    5330:	14412926 	beq	r2,r17,57d8 <_dtoa_r+0x1344>
    5334:	a80b883a 	mov	r5,r21
    5338:	000f883a 	mov	r7,zero
    533c:	01800284 	movi	r6,10
    5340:	e009883a 	mov	r4,fp
    5344:	0006c4c0 	call	6c4c <__multadd>
    5348:	102b883a 	mov	r21,r2
    534c:	000f883a 	mov	r7,zero
    5350:	01800284 	movi	r6,10
    5354:	800b883a 	mov	r5,r16
    5358:	e009883a 	mov	r4,fp
    535c:	84c02026 	beq	r16,r19,53e0 <_dtoa_r+0xf4c>
    5360:	0006c4c0 	call	6c4c <__multadd>
    5364:	980b883a 	mov	r5,r19
    5368:	000f883a 	mov	r7,zero
    536c:	01800284 	movi	r6,10
    5370:	e009883a 	mov	r4,fp
    5374:	1021883a 	mov	r16,r2
    5378:	0006c4c0 	call	6c4c <__multadd>
    537c:	1027883a 	mov	r19,r2
    5380:	b823883a 	mov	r17,r23
    5384:	900b883a 	mov	r5,r18
    5388:	a809883a 	mov	r4,r21
    538c:	00042600 	call	4260 <quorem>
    5390:	800b883a 	mov	r5,r16
    5394:	a809883a 	mov	r4,r21
    5398:	102d883a 	mov	r22,r2
    539c:	00074840 	call	7484 <__mcmp>
    53a0:	980d883a 	mov	r6,r19
    53a4:	900b883a 	mov	r5,r18
    53a8:	e009883a 	mov	r4,fp
    53ac:	1029883a 	mov	r20,r2
    53b0:	00074dc0 	call	74dc <__mdiff>
    53b4:	102f883a 	mov	r23,r2
    53b8:	10800317 	ldw	r2,12(r2)
    53bc:	b2000c04 	addi	r8,r22,48
    53c0:	103fc426 	beq	r2,zero,52d4 <_dtoa_r+0xe40>
    53c4:	b80b883a 	mov	r5,r23
    53c8:	e009883a 	mov	r4,fp
    53cc:	da000115 	stw	r8,4(sp)
    53d0:	0006c280 	call	6c28 <_Bfree>
    53d4:	00800044 	movi	r2,1
    53d8:	da000117 	ldw	r8,4(sp)
    53dc:	003fca06 	br	5308 <_dtoa_r+0xe74>
    53e0:	0006c4c0 	call	6c4c <__multadd>
    53e4:	1021883a 	mov	r16,r2
    53e8:	1027883a 	mov	r19,r2
    53ec:	003fe406 	br	5380 <_dtoa_r+0xeec>
    53f0:	d8800217 	ldw	r2,8(sp)
    53f4:	108000d0 	cmplti	r2,r2,3
    53f8:	10004b1e 	bne	r2,zero,5528 <_dtoa_r+0x1094>
    53fc:	d8800617 	ldw	r2,24(sp)
    5400:	103e0d1e 	bne	r2,zero,4c38 <_dtoa_r+0x7a4>
    5404:	900b883a 	mov	r5,r18
    5408:	e009883a 	mov	r4,fp
    540c:	000f883a 	mov	r7,zero
    5410:	01800144 	movi	r6,5
    5414:	0006c4c0 	call	6c4c <__multadd>
    5418:	100b883a 	mov	r5,r2
    541c:	a809883a 	mov	r4,r21
    5420:	1025883a 	mov	r18,r2
    5424:	00074840 	call	7484 <__mcmp>
    5428:	00be030e 	bge	zero,r2,4c38 <_dtoa_r+0x7a4>
    542c:	d8c00317 	ldw	r3,12(sp)
    5430:	00800c44 	movi	r2,49
    5434:	18800005 	stb	r2,0(r3)
    5438:	d8800417 	ldw	r2,16(sp)
    543c:	1dc00044 	addi	r23,r3,1
    5440:	14400044 	addi	r17,r2,1
    5444:	900b883a 	mov	r5,r18
    5448:	e009883a 	mov	r4,fp
    544c:	0006c280 	call	6c28 <_Bfree>
    5450:	88800044 	addi	r2,r17,1
    5454:	d8800415 	stw	r2,16(sp)
    5458:	803f121e 	bne	r16,zero,50a4 <_dtoa_r+0xc10>
    545c:	003d9f06 	br	4adc <_dtoa_r+0x648>
    5460:	900b883a 	mov	r5,r18
    5464:	a809883a 	mov	r4,r21
    5468:	00074840 	call	7484 <__mcmp>
    546c:	103ed10e 	bge	r2,zero,4fb4 <_dtoa_r+0xb20>
    5470:	a80b883a 	mov	r5,r21
    5474:	000f883a 	mov	r7,zero
    5478:	01800284 	movi	r6,10
    547c:	e009883a 	mov	r4,fp
    5480:	0006c4c0 	call	6c4c <__multadd>
    5484:	102b883a 	mov	r21,r2
    5488:	d8800417 	ldw	r2,16(sp)
    548c:	153fffc4 	addi	r20,r2,-1
    5490:	d8800717 	ldw	r2,28(sp)
    5494:	103f771e 	bne	r2,zero,5274 <_dtoa_r+0xde0>
    5498:	d8800b17 	ldw	r2,44(sp)
    549c:	0081910e 	bge	zero,r2,5ae4 <_dtoa_r+0x1650>
    54a0:	d8800615 	stw	r2,24(sp)
    54a4:	003eca06 	br	4fd0 <_dtoa_r+0xb3c>
    54a8:	d9800817 	ldw	r6,32(sp)
    54ac:	a80b883a 	mov	r5,r21
    54b0:	e009883a 	mov	r4,fp
    54b4:	00072200 	call	7220 <__pow5mult>
    54b8:	102b883a 	mov	r21,r2
    54bc:	003e9a06 	br	4f28 <_dtoa_r+0xa94>
    54c0:	00800074 	movhi	r2,1
    54c4:	1007883a 	mov	r3,r2
    54c8:	18ffc804 	addi	r3,r3,-224
    54cc:	00800074 	movhi	r2,1
    54d0:	d8c00315 	stw	r3,12(sp)
    54d4:	10bfc8c4 	addi	r2,r2,-221
    54d8:	003da506 	br	4b70 <_dtoa_r+0x6dc>
    54dc:	d8800117 	ldw	r2,4(sp)
    54e0:	103e991e 	bne	r2,zero,4f48 <_dtoa_r+0xab4>
    54e4:	00800434 	movhi	r2,16
    54e8:	10bfffc4 	addi	r2,r2,-1
    54ec:	8884703a 	and	r2,r17,r2
    54f0:	103e951e 	bne	r2,zero,4f48 <_dtoa_r+0xab4>
    54f4:	8c5ffc2c 	andhi	r17,r17,32752
    54f8:	883e9326 	beq	r17,zero,4f48 <_dtoa_r+0xab4>
    54fc:	d8800517 	ldw	r2,20(sp)
    5500:	a5000044 	addi	r20,r20,1
    5504:	04400044 	movi	r17,1
    5508:	10800044 	addi	r2,r2,1
    550c:	d8800515 	stw	r2,20(sp)
    5510:	003e8e06 	br	4f4c <_dtoa_r+0xab8>
    5514:	00800044 	movi	r2,1
    5518:	04800044 	movi	r18,1
    551c:	d8800615 	stw	r2,24(sp)
    5520:	d8801e15 	stw	r2,120(sp)
    5524:	003ef406 	br	50f8 <_dtoa_r+0xc64>
    5528:	d8800417 	ldw	r2,16(sp)
    552c:	10800044 	addi	r2,r2,1
    5530:	d8800415 	stw	r2,16(sp)
    5534:	d8800717 	ldw	r2,28(sp)
    5538:	103f571e 	bne	r2,zero,5298 <_dtoa_r+0xe04>
    553c:	900b883a 	mov	r5,r18
    5540:	a809883a 	mov	r4,r21
    5544:	00042600 	call	4260 <quorem>
    5548:	12000c04 	addi	r8,r2,48
    554c:	d8800317 	ldw	r2,12(sp)
    5550:	0029883a 	mov	r20,zero
    5554:	15c00044 	addi	r23,r2,1
    5558:	12000005 	stb	r8,0(r2)
    555c:	003eb006 	br	5020 <_dtoa_r+0xb8c>
    5560:	a005883a 	mov	r2,r20
    5564:	003e5506 	br	4ebc <_dtoa_r+0xa28>
    5568:	800b883a 	mov	r5,r16
    556c:	980d883a 	mov	r6,r19
    5570:	e009883a 	mov	r4,fp
    5574:	00073480 	call	7348 <__lshift>
    5578:	1021883a 	mov	r16,r2
    557c:	003f4706 	br	529c <_dtoa_r+0xe08>
    5580:	14a5c83a 	sub	r18,r2,r18
    5584:	003e3e06 	br	4e80 <_dtoa_r+0x9ec>
    5588:	00800074 	movhi	r2,1
    558c:	10bfd904 	addi	r2,r2,-156
    5590:	11800817 	ldw	r6,32(r2)
    5594:	11c00917 	ldw	r7,36(r2)
    5598:	d9000117 	ldw	r4,4(sp)
    559c:	880b883a 	mov	r5,r17
    55a0:	da400e15 	stw	r9,56(sp)
    55a4:	da800d15 	stw	r10,52(sp)
    55a8:	000b6000 	call	b600 <__divdf3>
    55ac:	d8800c15 	stw	r2,48(sp)
    55b0:	1827883a 	mov	r19,r3
    55b4:	bdc003cc 	andi	r23,r23,15
    55b8:	040000c4 	movi	r16,3
    55bc:	da800d17 	ldw	r10,52(sp)
    55c0:	da400e17 	ldw	r9,56(sp)
    55c4:	003c9206 	br	4810 <_dtoa_r+0x37c>
    55c8:	d8000715 	stw	zero,28(sp)
    55cc:	003ed306 	br	511c <_dtoa_r+0xc88>
    55d0:	1000031e 	bne	r2,zero,55e0 <_dtoa_r+0x114c>
    55d4:	da000117 	ldw	r8,4(sp)
    55d8:	4200004c 	andi	r8,r8,1
    55dc:	403e9b1e 	bne	r8,zero,504c <_dtoa_r+0xbb8>
    55e0:	1805883a 	mov	r2,r3
    55e4:	00000206 	br	55f0 <_dtoa_r+0x115c>
    55e8:	b8bfff83 	ldbu	r2,-2(r23)
    55ec:	182f883a 	mov	r23,r3
    55f0:	10803fcc 	andi	r2,r2,255
    55f4:	1080201c 	xori	r2,r2,128
    55f8:	10bfe004 	addi	r2,r2,-128
    55fc:	10800c18 	cmpnei	r2,r2,48
    5600:	b8ffffc4 	addi	r3,r23,-1
    5604:	103ff826 	beq	r2,zero,55e8 <_dtoa_r+0x1154>
    5608:	003e9d06 	br	5080 <_dtoa_r+0xbec>
    560c:	d8c00a17 	ldw	r3,40(sp)
    5610:	1800bc26 	beq	r3,zero,5904 <_dtoa_r+0x1470>
    5614:	d8c00517 	ldw	r3,20(sp)
    5618:	10810cc4 	addi	r2,r2,1075
    561c:	a0a9883a 	add	r20,r20,r2
    5620:	1885883a 	add	r2,r3,r2
    5624:	1827883a 	mov	r19,r3
    5628:	dc800817 	ldw	r18,32(sp)
    562c:	d8800515 	stw	r2,20(sp)
    5630:	003e1a06 	br	4e9c <_dtoa_r+0xa08>
    5634:	d8c00317 	ldw	r3,12(sp)
    5638:	00800c44 	movi	r2,49
    563c:	18800005 	stb	r2,0(r3)
    5640:	d8800417 	ldw	r2,16(sp)
    5644:	10800044 	addi	r2,r2,1
    5648:	d8800415 	stw	r2,16(sp)
    564c:	003e8c06 	br	5080 <_dtoa_r+0xbec>
    5650:	8009883a 	mov	r4,r16
    5654:	000d3e40 	call	d3e4 <__floatsidf>
    5658:	900d883a 	mov	r6,r18
    565c:	980f883a 	mov	r7,r19
    5660:	1009883a 	mov	r4,r2
    5664:	180b883a 	mov	r5,r3
    5668:	000c1c40 	call	c1c4 <__muldf3>
    566c:	000d883a 	mov	r6,zero
    5670:	01d00734 	movhi	r7,16412
    5674:	1009883a 	mov	r4,r2
    5678:	180b883a 	mov	r5,r3
    567c:	000ac600 	call	ac60 <__adddf3>
    5680:	d8800c15 	stw	r2,48(sp)
    5684:	00bf3034 	movhi	r2,64704
    5688:	1885883a 	add	r2,r3,r2
    568c:	d8800d15 	stw	r2,52(sp)
    5690:	9009883a 	mov	r4,r18
    5694:	980b883a 	mov	r5,r19
    5698:	000d883a 	mov	r6,zero
    569c:	01d00534 	movhi	r7,16404
    56a0:	000c9a40 	call	c9a4 <__subdf3>
    56a4:	ddc00c17 	ldw	r23,48(sp)
    56a8:	dcc00d17 	ldw	r19,52(sp)
    56ac:	1009883a 	mov	r4,r2
    56b0:	b80d883a 	mov	r6,r23
    56b4:	980f883a 	mov	r7,r19
    56b8:	180b883a 	mov	r5,r3
    56bc:	1025883a 	mov	r18,r2
    56c0:	1821883a 	mov	r16,r3
    56c4:	000bfe40 	call	bfe4 <__gedf2>
    56c8:	0080ee16 	blt	zero,r2,5a84 <_dtoa_r+0x15f0>
    56cc:	99e0003c 	xorhi	r7,r19,32768
    56d0:	b80d883a 	mov	r6,r23
    56d4:	9009883a 	mov	r4,r18
    56d8:	800b883a 	mov	r5,r16
    56dc:	000c0d40 	call	c0d4 <__ledf2>
    56e0:	103d380e 	bge	r2,zero,4bc4 <_dtoa_r+0x730>
    56e4:	0025883a 	mov	r18,zero
    56e8:	0021883a 	mov	r16,zero
    56ec:	003d5206 	br	4c38 <_dtoa_r+0x7a4>
    56f0:	d8800417 	ldw	r2,16(sp)
    56f4:	1000ad1e 	bne	r2,zero,59ac <_dtoa_r+0x1518>
    56f8:	dc800117 	ldw	r18,4(sp)
    56fc:	8827883a 	mov	r19,r17
    5700:	04000084 	movi	r16,2
    5704:	003c5b06 	br	4874 <_dtoa_r+0x3e0>
    5708:	d8800117 	ldw	r2,4(sp)
    570c:	103ecf1e 	bne	r2,zero,524c <_dtoa_r+0xdb8>
    5710:	00800434 	movhi	r2,16
    5714:	10bfffc4 	addi	r2,r2,-1
    5718:	8884703a 	and	r2,r17,r2
    571c:	103f7526 	beq	r2,zero,54f4 <_dtoa_r+0x1060>
    5720:	003eca06 	br	524c <_dtoa_r+0xdb8>
    5724:	00800e0e 	bge	zero,r2,5760 <_dtoa_r+0x12cc>
    5728:	a80b883a 	mov	r5,r21
    572c:	01800044 	movi	r6,1
    5730:	e009883a 	mov	r4,fp
    5734:	da000115 	stw	r8,4(sp)
    5738:	00073480 	call	7348 <__lshift>
    573c:	900b883a 	mov	r5,r18
    5740:	1009883a 	mov	r4,r2
    5744:	102b883a 	mov	r21,r2
    5748:	00074840 	call	7484 <__mcmp>
    574c:	da000117 	ldw	r8,4(sp)
    5750:	0080d50e 	bge	zero,r2,5aa8 <_dtoa_r+0x1614>
    5754:	42000e60 	cmpeqi	r8,r8,57
    5758:	4000c31e 	bne	r8,zero,5a68 <_dtoa_r+0x15d4>
    575c:	b2000c44 	addi	r8,r22,49
    5760:	8029883a 	mov	r20,r16
    5764:	8a000005 	stb	r8,0(r17)
    5768:	9821883a 	mov	r16,r19
    576c:	003e4406 	br	5080 <_dtoa_r+0xbec>
    5770:	81400117 	ldw	r5,4(r16)
    5774:	e009883a 	mov	r4,fp
    5778:	0006b840 	call	6b84 <_Balloc>
    577c:	81800417 	ldw	r6,16(r16)
    5780:	81400304 	addi	r5,r16,12
    5784:	11000304 	addi	r4,r2,12
    5788:	31800084 	addi	r6,r6,2
    578c:	300c90ba 	slli	r6,r6,2
    5790:	1023883a 	mov	r17,r2
    5794:	00014280 	call	1428 <memcpy>
    5798:	01800044 	movi	r6,1
    579c:	880b883a 	mov	r5,r17
    57a0:	e009883a 	mov	r4,fp
    57a4:	00073480 	call	7348 <__lshift>
    57a8:	1027883a 	mov	r19,r2
    57ac:	003ebd06 	br	52a4 <_dtoa_r+0xe10>
    57b0:	dd400117 	ldw	r21,4(sp)
    57b4:	003cc906 	br	4adc <_dtoa_r+0x648>
    57b8:	d8800517 	ldw	r2,20(sp)
    57bc:	d8c00617 	ldw	r3,24(sp)
    57c0:	10e7c83a 	sub	r19,r2,r3
    57c4:	003db506 	br	4e9c <_dtoa_r+0xa08>
    57c8:	40800e58 	cmpnei	r2,r8,57
    57cc:	1000a626 	beq	r2,zero,5a68 <_dtoa_r+0x15d4>
    57d0:	42000044 	addi	r8,r8,1
    57d4:	003fe206 	br	5760 <_dtoa_r+0x12cc>
    57d8:	8029883a 	mov	r20,r16
    57dc:	9821883a 	mov	r16,r19
    57e0:	003e0f06 	br	5020 <_dtoa_r+0xb8c>
    57e4:	d9000c17 	ldw	r4,48(sp)
    57e8:	d9400d17 	ldw	r5,52(sp)
    57ec:	da401015 	stw	r9,64(sp)
    57f0:	000c1c40 	call	c1c4 <__muldf3>
    57f4:	d9000e17 	ldw	r4,56(sp)
    57f8:	d8c00d15 	stw	r3,52(sp)
    57fc:	da401017 	ldw	r9,64(sp)
    5800:	d8c00317 	ldw	r3,12(sp)
    5804:	d8800c15 	stw	r2,48(sp)
    5808:	20800058 	cmpnei	r2,r4,1
    580c:	1a400005 	stb	r9,0(r3)
    5810:	1907883a 	add	r3,r3,r4
    5814:	1809883a 	mov	r4,r3
    5818:	10001d26 	beq	r2,zero,5890 <_dtoa_r+0x13fc>
    581c:	8007883a 	mov	r3,r16
    5820:	9005883a 	mov	r2,r18
    5824:	dc400e15 	stw	r17,56(sp)
    5828:	2021883a 	mov	r16,r4
    582c:	000d883a 	mov	r6,zero
    5830:	01d00934 	movhi	r7,16420
    5834:	1009883a 	mov	r4,r2
    5838:	180b883a 	mov	r5,r3
    583c:	000c1c40 	call	c1c4 <__muldf3>
    5840:	180b883a 	mov	r5,r3
    5844:	1009883a 	mov	r4,r2
    5848:	1825883a 	mov	r18,r3
    584c:	1023883a 	mov	r17,r2
    5850:	000d3640 	call	d364 <__fixdfsi>
    5854:	1009883a 	mov	r4,r2
    5858:	1027883a 	mov	r19,r2
    585c:	000d3e40 	call	d3e4 <__floatsidf>
    5860:	100d883a 	mov	r6,r2
    5864:	180f883a 	mov	r7,r3
    5868:	8809883a 	mov	r4,r17
    586c:	900b883a 	mov	r5,r18
    5870:	bdc00044 	addi	r23,r23,1
    5874:	9cc00c04 	addi	r19,r19,48
    5878:	000c9a40 	call	c9a4 <__subdf3>
    587c:	bcffffc5 	stb	r19,-1(r23)
    5880:	bc3fea1e 	bne	r23,r16,582c <_dtoa_r+0x1398>
    5884:	dc400e17 	ldw	r17,56(sp)
    5888:	1025883a 	mov	r18,r2
    588c:	1821883a 	mov	r16,r3
    5890:	d9000c17 	ldw	r4,48(sp)
    5894:	d9400d17 	ldw	r5,52(sp)
    5898:	000d883a 	mov	r6,zero
    589c:	01cff834 	movhi	r7,16352
    58a0:	000ac600 	call	ac60 <__adddf3>
    58a4:	100d883a 	mov	r6,r2
    58a8:	180f883a 	mov	r7,r3
    58ac:	9009883a 	mov	r4,r18
    58b0:	800b883a 	mov	r5,r16
    58b4:	000bfe40 	call	bfe4 <__gedf2>
    58b8:	00807516 	blt	zero,r2,5a90 <_dtoa_r+0x15fc>
    58bc:	d9800c17 	ldw	r6,48(sp)
    58c0:	d9c00d17 	ldw	r7,52(sp)
    58c4:	0009883a 	mov	r4,zero
    58c8:	014ff834 	movhi	r5,16352
    58cc:	000c9a40 	call	c9a4 <__subdf3>
    58d0:	100d883a 	mov	r6,r2
    58d4:	180f883a 	mov	r7,r3
    58d8:	9009883a 	mov	r4,r18
    58dc:	800b883a 	mov	r5,r16
    58e0:	000c0d40 	call	c0d4 <__ledf2>
    58e4:	103cb70e 	bge	r2,zero,4bc4 <_dtoa_r+0x730>
    58e8:	00000106 	br	58f0 <_dtoa_r+0x145c>
    58ec:	182f883a 	mov	r23,r3
    58f0:	b8bfffc7 	ldb	r2,-1(r23)
    58f4:	b8ffffc4 	addi	r3,r23,-1
    58f8:	10800c20 	cmpeqi	r2,r2,48
    58fc:	103ffb1e 	bne	r2,zero,58ec <_dtoa_r+0x1458>
    5900:	003c7306 	br	4ad0 <_dtoa_r+0x63c>
    5904:	d8c01217 	ldw	r3,72(sp)
    5908:	d9000517 	ldw	r4,20(sp)
    590c:	00800d84 	movi	r2,54
    5910:	10c5c83a 	sub	r2,r2,r3
    5914:	a0a9883a 	add	r20,r20,r2
    5918:	2085883a 	add	r2,r4,r2
    591c:	2027883a 	mov	r19,r4
    5920:	dc800817 	ldw	r18,32(sp)
    5924:	d8800515 	stw	r2,20(sp)
    5928:	003d5c06 	br	4e9c <_dtoa_r+0xa08>
    592c:	d8800617 	ldw	r2,24(sp)
    5930:	103f4726 	beq	r2,zero,5650 <_dtoa_r+0x11bc>
    5934:	ddc00b17 	ldw	r23,44(sp)
    5938:	05fca20e 	bge	zero,r23,4bc4 <_dtoa_r+0x730>
    593c:	980b883a 	mov	r5,r19
    5940:	000d883a 	mov	r6,zero
    5944:	01d00934 	movhi	r7,16420
    5948:	9009883a 	mov	r4,r18
    594c:	000c1c40 	call	c1c4 <__muldf3>
    5950:	81000044 	addi	r4,r16,1
    5954:	1025883a 	mov	r18,r2
    5958:	1827883a 	mov	r19,r3
    595c:	000d3e40 	call	d3e4 <__floatsidf>
    5960:	900d883a 	mov	r6,r18
    5964:	980f883a 	mov	r7,r19
    5968:	1009883a 	mov	r4,r2
    596c:	180b883a 	mov	r5,r3
    5970:	000c1c40 	call	c1c4 <__muldf3>
    5974:	000d883a 	mov	r6,zero
    5978:	01d00734 	movhi	r7,16412
    597c:	1009883a 	mov	r4,r2
    5980:	180b883a 	mov	r5,r3
    5984:	000ac600 	call	ac60 <__adddf3>
    5988:	d8800c15 	stw	r2,48(sp)
    598c:	d8800417 	ldw	r2,16(sp)
    5990:	ddc00e15 	stw	r23,56(sp)
    5994:	10bfffc4 	addi	r2,r2,-1
    5998:	d8800f15 	stw	r2,60(sp)
    599c:	00bf3034 	movhi	r2,64704
