
nios.elf:     file format elf32-littlenios2
nios.elf
architecture: nios2:r1, flags 0x00000112:
EXEC_P, HAS_SYMS, D_PAGED
start address 0x00000224

Program Header:
    LOAD off    0x00001000 vaddr 0x00000000 paddr 0x00000000 align 2**12
         filesz 0x00000020 memsz 0x00000020 flags r-x
    LOAD off    0x00001020 vaddr 0x00000020 paddr 0x00000020 align 2**12
         filesz 0x0000fb64 memsz 0x0000fb64 flags r-x
    LOAD off    0x00010b84 vaddr 0x0000fb84 paddr 0x000117fc align 2**12
         filesz 0x00001c78 memsz 0x00001c78 flags rw-
    LOAD off    0x00013474 vaddr 0x00013474 paddr 0x00013474 align 2**12
         filesz 0x00000000 memsz 0x00000160 flags rw-

Sections:
Idx Name          Size      VMA       LMA       File off  Algn
  0 .entry        00000020  00000000  00000000  00001000  2**5
                  CONTENTS, ALLOC, LOAD, READONLY, CODE
  1 .exceptions   00000204  00000020  00000020  00001020  2**2
                  CONTENTS, ALLOC, LOAD, READONLY, CODE
  2 .text         0000f294  00000224  00000224  00001224  2**2
                  CONTENTS, ALLOC, LOAD, READONLY, CODE
  3 .rodata       000006cc  0000f4b8  0000f4b8  000104b8  2**2
                  CONTENTS, ALLOC, LOAD, READONLY, DATA
  4 .rwdata       00001c78  0000fb84  000117fc  00010b84  2**2
                  CONTENTS, ALLOC, LOAD, DATA, SMALL_DATA
  5 .bss          00000160  00013474  00013474  00013474  2**2
                  ALLOC, SMALL_DATA
  6 .onchip_memory2_0 00000000  000135d4  000135d4  000127fc  2**0
                  CONTENTS
  7 .comment      0000002c  00000000  00000000  000127fc  2**0
                  CONTENTS, READONLY
  8 .debug_aranges 00000ee8  00000000  00000000  00012828  2**3
                  CONTENTS, READONLY, DEBUGGING
  9 .debug_info   000469c1  00000000  00000000  00013710  2**0
                  CONTENTS, READONLY, DEBUGGING
 10 .debug_abbrev 0000e361  00000000  00000000  0005a0d1  2**0
                  CONTENTS, READONLY, DEBUGGING
 11 .debug_line   0001758b  00000000  00000000  00068432  2**0
                  CONTENTS, READONLY, DEBUGGING
 12 .debug_frame  00002048  00000000  00000000  0007f9c0  2**2
                  CONTENTS, READONLY, DEBUGGING
 13 .debug_str    00003f58  00000000  00000000  00081a08  2**0
                  CONTENTS, READONLY, DEBUGGING
 14 .debug_loc    0001c425  00000000  00000000  00085960  2**0
                  CONTENTS, READONLY, DEBUGGING
 15 .debug_alt_sim_info 00000010  00000000  00000000  000a1d88  2**2
                  CONTENTS, READONLY, DEBUGGING
 16 .debug_ranges 00001c38  00000000  00000000  000a1d98  2**3
                  CONTENTS, READONLY, DEBUGGING
 17 .thread_model 00000003  00000000  00000000  000a6abb  2**0
                  CONTENTS, READONLY
 18 .cpu          0000000c  00000000  00000000  000a6abe  2**0
                  CONTENTS, READONLY
 19 .qsys         00000001  00000000  00000000  000a6aca  2**0
                  CONTENTS, READONLY
 20 .simulation_enabled 00000001  00000000  00000000  000a6acb  2**0
                  CONTENTS, READONLY
 21 .stderr_dev   0000000b  00000000  00000000  000a6acc  2**0
                  CONTENTS, READONLY
 22 .stdin_dev    0000000b  00000000  00000000  000a6ad7  2**0
                  CONTENTS, READONLY
 23 .stdout_dev   0000000b  00000000  00000000  000a6ae2  2**0
                  CONTENTS, READONLY
 24 .sopc_system_name 0000000c  00000000  00000000  000a6aed  2**0
                  CONTENTS, READONLY
 25 .quartus_project_dir 00000045  00000000  00000000  000a6af9  2**0
                  CONTENTS, READONLY
SYMBOL TABLE:
00000000 l    d  .entry	00000000 .entry
00000020 l    d  .exceptions	00000000 .exceptions
00000224 l    d  .text	00000000 .text
0000f4b8 l    d  .rodata	00000000 .rodata
0000fb84 l    d  .rwdata	00000000 .rwdata
00013474 l    d  .bss	00000000 .bss
000135d4 l    d  .onchip_memory2_0	00000000 .onchip_memory2_0
00000000 l    d  .comment	00000000 .comment
00000000 l    d  .debug_aranges	00000000 .debug_aranges
00000000 l    d  .debug_info	00000000 .debug_info
00000000 l    d  .debug_abbrev	00000000 .debug_abbrev
00000000 l    d  .debug_line	00000000 .debug_line
00000000 l    d  .debug_frame	00000000 .debug_frame
00000000 l    d  .debug_str	00000000 .debug_str
00000000 l    d  .debug_loc	00000000 .debug_loc
00000000 l    d  .debug_alt_sim_info	00000000 .debug_alt_sim_info
00000000 l    d  .debug_ranges	00000000 .debug_ranges
00000000 l    df *ABS*	00000000 c:/Users/nothi/FINALPROJECT/ECE541FinalProject/FinalProject/synthesis/software/nios_bsp//obj/HAL/src/crt0.o
0000025c l       .text	00000000 alt_after_alt_main
00000000 l    df *ABS*	00000000 alt_irq_handler.c
00000000 l    df *ABS*	00000000 alt_instruction_exception_entry.c
00000000 l    df *ABS*	00000000 hello_world.c
0000fb84 l     O .rwdata	00000040 flowers.2610
0000fbc4 l     O .rwdata	00000040 strs.2617
0000fc04 l     O .rwdata	0000000c hardcoded.2618
00013478 l     O .bss	00000004 attributes.2619
00000000 l    df *ABS*	00000000 lib2-divmod.c
00000000 l    df *ABS*	00000000 printf.c
00000000 l    df *ABS*	00000000 puts.c
00000000 l    df *ABS*	00000000 strlen.c
00000000 l    df *ABS*	00000000 vfprintf.c
000029d0 l     F .text	000000c0 __sbprintf
0000f656 l     O .rodata	00000010 blanks.5226
0000f646 l     O .rodata	00000010 zeroes.5227
00000000 l    df *ABS*	00000000 wsetup.c
00000000 l    df *ABS*	00000000 dtoa.c
00002bf0 l     F .text	00000234 quorem
00000000 l    df *ABS*	00000000 fflush.c
00000000 l    df *ABS*	00000000 findfp.c
0000479c l     F .text	00000008 __fp_lock
000047b0 l     F .text	00000168 __sinit.part.0
00004918 l     F .text	00000008 __fp_unlock
00000000 l    df *ABS*	00000000 mallocr.c
00000000 l    df *ABS*	00000000 fvwrite.c
00000000 l    df *ABS*	00000000 fwalk.c
00000000 l    df *ABS*	00000000 impure.c
0000fc10 l     O .rwdata	00000424 impure_data
00000000 l    df *ABS*	00000000 localeconv.c
00000000 l    df *ABS*	00000000 makebuf.c
00000000 l    df *ABS*	00000000 mallocr.c
00000000 l    df *ABS*	00000000 memchr.c
00000000 l    df *ABS*	00000000 memcpy.c
00000000 l    df *ABS*	00000000 memmove.c
00000000 l    df *ABS*	00000000 memset.c
00000000 l    df *ABS*	00000000 mprec.c
0000f678 l     O .rodata	0000000c p05.4024
00000000 l    df *ABS*	00000000 mallocr.c
00000000 l    df *ABS*	00000000 sbrkr.c
00000000 l    df *ABS*	00000000 stdio.c
00000000 l    df *ABS*	00000000 vfprintf.c
00007a98 l     F .text	000000f4 __sprint_r.part.0
00008ef8 l     F .text	000000c0 __sbprintf
0000f7ac l     O .rodata	00000010 blanks.5203
0000f79c l     O .rodata	00000010 zeroes.5204
00000000 l    df *ABS*	00000000 writer.c
00000000 l    df *ABS*	00000000 closer.c
00000000 l    df *ABS*	00000000 mallocr.c
00000000 l    df *ABS*	00000000 fclose.c
00000000 l    df *ABS*	00000000 fputwc.c
00000000 l    df *ABS*	00000000 fstatr.c
00000000 l    df *ABS*	00000000 int_errno.c
00000000 l    df *ABS*	00000000 isattyr.c
00000000 l    df *ABS*	00000000 locale.c
00000000 l    df *ABS*	00000000 lseekr.c
00000000 l    df *ABS*	00000000 mbtowc_r.c
00000000 l    df *ABS*	00000000 readr.c
00000000 l    df *ABS*	00000000 strcmp.c
00000000 l    df *ABS*	00000000 wbuf.c
00000000 l    df *ABS*	00000000 wcrtomb.c
00000000 l    df *ABS*	00000000 wctomb_r.c
00000000 l    df *ABS*	00000000 ctype_.c
00000000 l    df *ABS*	00000000 libgcc2.c
00000000 l    df *ABS*	00000000 libgcc2.c
00000000 l    df *ABS*	00000000 lib2-mul.c
00000000 l    df *ABS*	00000000 adddf3.c
00000000 l    df *ABS*	00000000 divdf3.c
00000000 l    df *ABS*	00000000 eqdf2.c
00000000 l    df *ABS*	00000000 gedf2.c
00000000 l    df *ABS*	00000000 ledf2.c
00000000 l    df *ABS*	00000000 muldf3.c
00000000 l    df *ABS*	00000000 subdf3.c
00000000 l    df *ABS*	00000000 unorddf2.c
00000000 l    df *ABS*	00000000 fixdfsi.c
00000000 l    df *ABS*	00000000 floatsidf.c
00000000 l    df *ABS*	00000000 floatunsidf.c
00000000 l    df *ABS*	00000000 libgcc2.c
00000000 l    df *ABS*	00000000 libgcc2.c
00000000 l    df *ABS*	00000000 alt_close.c
0000cf40 l     F .text	0000003c alt_get_errno
00000000 l    df *ABS*	00000000 alt_dev.c
0000d058 l     F .text	0000002c alt_dev_null_write
00000000 l    df *ABS*	00000000 alt_errno.c
00000000 l    df *ABS*	00000000 alt_fstat.c
0000d084 l     F .text	0000003c alt_get_errno
00000000 l    df *ABS*	00000000 alt_isatty.c
0000d17c l     F .text	0000003c alt_get_errno
00000000 l    df *ABS*	00000000 alt_load.c
0000d268 l     F .text	00000068 alt_load_section
00000000 l    df *ABS*	00000000 alt_lseek.c
0000d354 l     F .text	0000003c alt_get_errno
00000000 l    df *ABS*	00000000 alt_main.c
00000000 l    df *ABS*	00000000 alt_malloc_lock.c
00000000 l    df *ABS*	00000000 alt_read.c
0000d534 l     F .text	0000003c alt_get_errno
00000000 l    df *ABS*	00000000 alt_release_fd.c
00000000 l    df *ABS*	00000000 alt_sbrk.c
000117ec l     O .rwdata	00000004 heap_end
00000000 l    df *ABS*	00000000 alt_write.c
0000d798 l     F .text	0000003c alt_get_errno
00000000 l    df *ABS*	00000000 alt_sys_init.c
0000d8d8 l     F .text	00000034 alt_dev_reg
00010750 l     O .rwdata	00001060 jtag_uart_0
00000000 l    df *ABS*	00000000 altera_avalon_jtag_uart_fd.c
00000000 l    df *ABS*	00000000 altera_avalon_jtag_uart_init.c
0000dbb0 l     F .text	00000204 altera_avalon_jtag_uart_irq
0000ddb4 l     F .text	000000a0 altera_avalon_jtag_uart_timeout
00000000 l    df *ABS*	00000000 altera_avalon_jtag_uart_ioctl.c
00000000 l    df *ABS*	00000000 altera_avalon_jtag_uart_read.c
00000000 l    df *ABS*	00000000 altera_avalon_jtag_uart_write.c
00000000 l    df *ABS*	00000000 alt_alarm_start.c
00000000 l    df *ABS*	00000000 alt_dcache_flush_all.c
00000000 l    df *ABS*	00000000 alt_dev_llist_insert.c
0000e53c l     F .text	0000003c alt_get_errno
00000000 l    df *ABS*	00000000 alt_do_ctors.c
00000000 l    df *ABS*	00000000 alt_do_dtors.c
00000000 l    df *ABS*	00000000 alt_icache_flush_all.c
00000000 l    df *ABS*	00000000 alt_iic.c
00000000 l    df *ABS*	00000000 alt_iic_isr_register.c
00000000 l    df *ABS*	00000000 alt_io_redirect.c
0000e990 l     F .text	000000d4 alt_open_fd
00000000 l    df *ABS*	00000000 alt_irq_vars.c
00000000 l    df *ABS*	00000000 alt_open.c
0000eae0 l     F .text	0000003c alt_get_errno
0000eb1c l     F .text	000000dc alt_file_locked
00000000 l    df *ABS*	00000000 alt_tick.c
00000000 l    df *ABS*	00000000 altera_nios2_gen2_irq.c
00000000 l    df *ABS*	00000000 alt_find_dev.c
00000000 l    df *ABS*	00000000 alt_find_file.c
00000000 l    df *ABS*	00000000 alt_get_fd.c
00000000 l    df *ABS*	00000000 atexit.c
00000000 l    df *ABS*	00000000 exit.c
00000000 l    df *ABS*	00000000 memcmp.c
00000000 l    df *ABS*	00000000 __atexit.c
00000000 l    df *ABS*	00000000 __call_atexit.c
00000000 l    df *ABS*	00000000 alt_exit.c
000134a8 g     O .bss	00000004 alt_instruction_exception_handler
00007180 g     F .text	00000074 _mprec_log10
00007260 g     F .text	00000074 __any_on
00009498 g     F .text	00000058 _isatty_r
0000f684 g     O .rodata	00000028 __mprec_tinytens
0000d470 g     F .text	0000007c alt_main
000006bc g     F .text	000000cc _puts_r
000134d4 g     O .bss	00000100 alt_irq
00009580 g     F .text	00000064 _lseek_r
000117fc g       *ABS*	00000000 __flash_rwdata_start
0000b908 g     F .text	00000080 .hidden __eqdf2
000135d4 g       *ABS*	00000000 __alt_heap_start
00000684 g     F .text	00000038 printf
000098cc g     F .text	0000006c _wcrtomb_r
000002ac g     F .text	000000a4 printClassificationResult
00007a34 g     F .text	0000005c __sseek
00004aa8 g     F .text	00000010 __sinit
00009770 g     F .text	00000148 __swbuf_r
000094f0 g     F .text	00000070 _setlocale_r
00004920 g     F .text	00000078 __sfmoreglue
0000d510 g     F .text	00000024 __malloc_unlock
00006104 g     F .text	0000012c memmove
00004a94 g     F .text	00000014 _cleanup
00006320 g     F .text	000000a4 _Balloc
0000b988 g     F .text	000000f0 .hidden __gtdf2
0000eefc g     F .text	00000024 altera_nios2_gen2_irq_init
00000350 g     F .text	000000c4 getAttributesFromUser
00000000 g     F .entry	0000000c __reset
00005534 g     F .text	00000008 __localeconv_l
00000020 g       *ABS*	00000000 __flash_exceptions_start
00009438 g     F .text	00000060 _fstat_r
00013488 g     O .bss	00000004 errno
000079ac g     F .text	00000008 __seofread
00013494 g     O .bss	00000004 alt_argv
000197b0 g       *ABS*	00000000 _gp
000105d0 g     O .rwdata	00000180 alt_fd_list
00000260 g     F .text	0000004c resolveToFlower
0000ef20 g     F .text	00000090 alt_find_dev
00006004 g     F .text	00000100 memcpy
000047a4 g     F .text	0000000c _cleanup_r
0000cd88 g     F .text	000000c8 .hidden __floatsidf
0000ea64 g     F .text	0000007c alt_io_redirect
0000ba78 g     F .text	000000f0 .hidden __ltdf2
0000f4b8 g       *ABS*	00000000 __DTOR_END__
00000788 g     F .text	00000010 puts
0000f170 g     F .text	00000098 alt_exception_cause_generated_bad_addr
000070dc g     F .text	000000a4 __ratio
00008ee0 g     F .text	00000018 __vfiprintf_internal
0000dfb0 g     F .text	0000021c altera_avalon_jtag_uart_read
00000654 g     F .text	00000030 _printf_r
00000000 g       *ABS*	00000000 __alt_mem_onchip_memory2_0
00000594 g     F .text	00000064 .hidden __udivsi3
0000d1b8 g     F .text	000000b0 isatty
0000f6d4 g     O .rodata	000000c8 __mprec_tens
00013484 g     O .bss	00000004 __malloc_top_pad
0000553c g     F .text	0000000c _localeconv_r
00006748 g     F .text	00000034 __i2b
00004f08 g     F .text	000004d4 __sfvwrite_r
00007900 g     F .text	00000058 _sbrk_r
00009634 g     F .text	00000064 _read_r
000117e4 g     O .rwdata	00000004 alt_max_fd
00009140 g     F .text	000000f8 _fclose_r
00004774 g     F .text	00000028 fflush
00013480 g     O .bss	00000004 __malloc_max_sbrked_mem
0000a604 g     F .text	000009a0 .hidden __adddf3
00006e90 g     F .text	00000104 __b2d
0000a014 g     F .text	000005c8 .hidden __umoddi3
0000d390 g     F .text	000000e0 lseek
000117c4 g     O .rwdata	00000004 _global_impure_ptr
000072d4 g     F .text	0000062c _realloc_r
000135d4 g       *ABS*	00000000 __bss_end
0000e8ac g     F .text	000000e4 alt_iic_isr_register
0000edf4 g     F .text	00000108 alt_tick
000099f8 g     F .text	0000061c .hidden __udivdi3
00009398 g     F .text	00000024 _fputwc_r
0000f6ac g     O .rodata	00000028 __mprec_bigtens
00006524 g     F .text	00000110 __s2b
0000ce50 g     F .text	0000009c .hidden __floatunsidf
00006c20 g     F .text	00000058 __mcmp
00004ac8 g     F .text	00000014 __fp_lock_all
0000e860 g     F .text	0000004c alt_ic_irq_enabled
0000ed58 g     F .text	0000009c alt_alarm_stop
0001349c g     O .bss	00000004 alt_irq_active
000000fc g     F .exceptions	000000c8 alt_irq_handler
000105a8 g     O .rwdata	00000028 alt_dev_null
0000e51c g     F .text	00000020 alt_dcache_flush_all
00006634 g     F .text	00000064 __hi0bits
0000cd08 g     F .text	00000080 .hidden __fixdfsi
000117fc g       *ABS*	00000000 __ram_rwdata_end
000117dc g     O .rwdata	00000008 alt_dev_list
0000d7d4 g     F .text	00000104 write
0000fb84 g       *ABS*	00000000 __ram_rodata_end
0000d0c0 g     F .text	000000bc fstat
0000ba78 g     F .text	000000f0 .hidden __ledf2
000069bc g     F .text	00000128 __pow5mult
00007ba4 g     F .text	0000133c ___vfiprintf_internal_r
000005f8 g     F .text	0000005c .hidden __umodsi3
000135d4 g       *ABS*	00000000 end
000117b0 g     O .rwdata	00000004 leds
0000daf0 g     F .text	000000c0 altera_avalon_jtag_uart_init
000001c4 g     F .exceptions	00000060 alt_instruction_exception_entry
0000f4b8 g       *ABS*	00000000 __CTOR_LIST__
0001f400 g       *ABS*	00000000 __alt_stack_pointer
0000ceec g     F .text	00000054 .hidden __clzsi2
0000e1cc g     F .text	00000224 altera_avalon_jtag_uart_write
00004ab8 g     F .text	00000004 __sfp_lock_acquire
00005f1c g     F .text	000000e8 memchr
00000830 g     F .text	00002188 ___vfprintf_internal_r
00004c0c g     F .text	000002fc _free_r
0000f8cd g     O .rodata	00000180 _ctype_b
00009560 g     F .text	0000000c __locale_mb_cur_max
00013474 g     O .bss	00000004 aIndex
0000f36c g     F .text	00000118 __call_exitprocs
000117cc g     O .rwdata	00000004 __malloc_sbrk_base
00000224 g     F .text	0000003c _start
000134a0 g     O .bss	00000004 _alt_tick_rate
00006ae4 g     F .text	0000013c __lshift
000134a4 g     O .bss	00000004 _alt_nticks
0000d570 g     F .text	00000108 read
0000d944 g     F .text	00000048 alt_sys_init
000117b8 g     O .rwdata	00000004 btns
0000f2dc g     F .text	00000090 __register_exitproc
0000677c g     F .text	00000240 __multiply
0000de54 g     F .text	00000068 altera_avalon_jtag_uart_close
0000a5dc g     F .text	00000028 .hidden __mulsi3
0000fb84 g       *ABS*	00000000 __ram_rwdata_start
0000f4b8 g       *ABS*	00000000 __ram_rodata_start
000134ac g     O .bss	00000028 __malloc_current_mallinfo
00006f94 g     F .text	00000148 __d2b
0000d98c g     F .text	00000060 altera_avalon_jtag_uart_read_fd
0000f0b8 g     F .text	000000b8 alt_get_fd
0000901c g     F .text	00000058 _close_r
0000f250 g     F .text	0000008c memcmp
0000da4c g     F .text	00000050 altera_avalon_jtag_uart_close_fd
000135d4 g       *ABS*	00000000 __alt_stack_base
0000da9c g     F .text	00000054 altera_avalon_jtag_uart_ioctl_fd
00002a90 g     F .text	00000160 __swsetup_r
0000afa4 g     F .text	00000964 .hidden __divdf3
00004998 g     F .text	000000fc __sfp
000071f4 g     F .text	0000006c __copybits
00010034 g     O .rwdata	00000408 __malloc_av_
00004ac4 g     F .text	00000004 __sinit_lock_release
0000bb68 g     F .text	000007e0 .hidden __muldf3
00007958 g     F .text	00000054 __sread
000117bc g     O .rwdata	00000004 nios_input
0000efb0 g     F .text	00000108 alt_find_file
0000e578 g     F .text	000000a4 alt_dev_llist_insert
0000d4ec g     F .text	00000024 __malloc_lock
0000d6e8 g     F .text	000000b0 sbrk
00004714 g     F .text	00000060 _fflush_r
00009074 g     F .text	000000cc _calloc_r
00013474 g       *ABS*	00000000 __bss_start
00006230 g     F .text	000000f0 memset
000117c0 g     O .rwdata	00000004 nios_output
00000414 g     F .text	00000088 main
00013498 g     O .bss	00000004 alt_envp
0001347c g     O .bss	00000004 __malloc_max_total_mem
0000d9ec g     F .text	00000060 altera_avalon_jtag_uart_write_fd
000098b8 g     F .text	00000014 __swbuf
00007a90 g     F .text	00000008 __sclose
0001f400 g       *ABS*	00000000 __alt_heap_limit
00009238 g     F .text	00000010 fclose
00002e24 g     F .text	000016c8 _dtoa_r
00005728 g     F .text	000007f4 _malloc_r
000099c8 g     F .text	00000030 __ascii_wctomb
000117e8 g     O .rwdata	00000004 alt_errno
000053dc g     F .text	000000a4 _fwalk
000095e4 g     F .text	0000000c _mbtowc_r
0000049c g     F .text	00000080 .hidden __divsi3
00004af0 g     F .text	0000011c _malloc_trim_r
0000f4b8 g       *ABS*	00000000 __CTOR_END__
00009698 g     F .text	000000d8 strcmp
0000f4b8 g       *ABS*	00000000 __flash_rodata_start
0000f4b8 g       *ABS*	00000000 __DTOR_LIST__
0000b908 g     F .text	00000080 .hidden __nedf2
0000d90c g     F .text	00000038 alt_irq_init
0000d678 g     F .text	00000070 alt_release_fd
0000fa4d g     O .rodata	00000100 .hidden __clz_tab
0001348c g     O .bss	00000004 _PathLocale
0000f208 g     F .text	00000014 atexit
00008fb8 g     F .text	00000064 _write_r
0000956c g     F .text	00000014 setlocale
000117c8 g     O .rwdata	00000004 _impure_ptr
00013490 g     O .bss	00000004 alt_argc
000044ec g     F .text	00000228 __sflush_r
0000e67c g     F .text	00000060 _do_dtors
000117b4 g     O .rwdata	00000004 sw
00000020 g       .exceptions	00000000 alt_irq_entry
000095f0 g     F .text	00000044 __ascii_mbtowc
00006e34 g     F .text	0000005c __ulp
00004adc g     F .text	00000014 __fp_unlock_all
000117d4 g     O .rwdata	00000008 alt_fs_list
00000020 g       *ABS*	00000000 __ram_exceptions_start
00005548 g     F .text	0000000c localeconv
00005554 g     F .text	00000098 __swhatbuf_r
0000e6fc g     F .text	00000050 alt_ic_isr_register
000117fc g       *ABS*	00000000 _edata
000135d4 g       *ABS*	00000000 _end
00009248 g     F .text	00000150 __fputwc
00000224 g       *ABS*	00000000 __ram_exceptions_end
0000debc g     F .text	000000f4 altera_avalon_jtag_uart_ioctl
0000e7d4 g     F .text	0000008c alt_ic_irq_disable
000079b4 g     F .text	00000080 __swrite
000117d0 g     O .rwdata	00000004 __malloc_trim_threshold
0000f21c g     F .text	00000034 exit
00005480 g     F .text	000000b4 _fwalk_reent
00006c78 g     F .text	000001bc __mdiff
0000051c g     F .text	00000078 .hidden __modsi3
0001f400 g       *ABS*	00000000 __alt_data_end
00000020 g     F .exceptions	00000000 alt_exception
00004abc g     F .text	00000004 __sfp_lock_release
0000f7cc g     O .rodata	00000101 _ctype_
0000ccb4 g     F .text	00000054 .hidden __unorddf2
0000f484 g     F .text	00000034 _exit
0000e3f0 g     F .text	0000012c alt_alarm_start
000055ec g     F .text	0000013c __smakebuf_r
00000798 g     F .text	00000098 strlen
0000ebf8 g     F .text	00000160 open
0000b988 g     F .text	000000f0 .hidden __gedf2
00007b8c g     F .text	00000018 __sprint_r
0000e6dc g     F .text	00000020 alt_icache_flush_all
000117f0 g     O .rwdata	00000004 alt_priority_mask
0000e74c g     F .text	00000088 alt_ic_irq_enable
000029b8 g     F .text	00000018 __vfprintf_internal
000099bc g     F .text	0000000c _wctomb_r
0000c348 g     F .text	0000096c .hidden __subdf3
00006698 g     F .text	000000b0 __lo0bits
000117f4 g     O .rwdata	00000008 alt_alarm_list
0000e61c g     F .text	00000060 _do_ctors
00009938 g     F .text	00000084 wcrtomb
0000cf7c g     F .text	000000dc close
0001043c g     O .rwdata	0000016c __global_locale
0000d2d0 g     F .text	00000084 alt_load
000093bc g     F .text	0000007c fputwc
00004ac0 g     F .text	00000004 __sinit_lock_acquire
000063e8 g     F .text	0000013c __multadd
000063c4 g     F .text	00000024 _Bfree



Disassembly of section .entry:

00000000 <__reset>:
 * Jump to the _start entry point in the .text section if reset code
 * is allowed or if optimizing for RTL simulation.
 */
#if defined(ALT_ALLOW_CODE_AT_RESET) || defined(ALT_SIM_OPTIMIZE)
    /* Jump to the _start entry point in the .text section. */
    movhi r1, %hi(_start)
   0:	00400034 	movhi	at,0
    ori r1, r1, %lo(_start)
   4:	08408914 	ori	at,at,548
    jmp r1
   8:	0800683a 	jmp	at
	...

Disassembly of section .exceptions:

00000020 <alt_exception>:

#else /* ALT_EXCEPTION_STACK disabled */
        /* 
         * Reserve space on normal stack for registers about to be pushed.
         */
        addi  sp, sp, -76
  20:	deffed04 	addi	sp,sp,-76
         * documentation for details).
         *
         * Leave a gap in the stack frame at 4(sp) for the muldiv handler to
         * store zero into.
         */
        stw   ra,  0(sp)
  24:	dfc00015 	stw	ra,0(sp)
        stw   r1,   8(sp)
  28:	d8400215 	stw	at,8(sp)
        stw   r2,  12(sp)
  2c:	d8800315 	stw	r2,12(sp)
        stw   r3,  16(sp)
  30:	d8c00415 	stw	r3,16(sp)
        stw   r4,  20(sp)
  34:	d9000515 	stw	r4,20(sp)
        stw   r5,  24(sp)
  38:	d9400615 	stw	r5,24(sp)
        stw   r6,  28(sp)
  3c:	d9800715 	stw	r6,28(sp)
        stw   r7,  32(sp)
  40:	d9c00815 	stw	r7,32(sp)
        rdctl r5, estatus   /* Read early to avoid usage stall */
  44:	000b307a 	rdctl	r5,estatus
        stw   r8,  36(sp)
  48:	da000915 	stw	r8,36(sp)
        stw   r9,  40(sp)
  4c:	da400a15 	stw	r9,40(sp)
        stw   r10, 44(sp)
  50:	da800b15 	stw	r10,44(sp)
        stw   r11, 48(sp)
  54:	dac00c15 	stw	r11,48(sp)
        stw   r12, 52(sp)
  58:	db000d15 	stw	r12,52(sp)
        stw   r13, 56(sp)
  5c:	db400e15 	stw	r13,56(sp)
        stw   r14, 60(sp)
  60:	db800f15 	stw	r14,60(sp)
        stw   r15, 64(sp)
  64:	dbc01015 	stw	r15,64(sp)
        /*
         * ea-4 contains the address of the instruction being executed
         * when the exception occured. For interrupt exceptions, we will
         * will be re-issue the isntruction. Store it in 72(sp)
         */
        stw   r5,  68(sp)  /* estatus */
  68:	d9401115 	stw	r5,68(sp)
        addi  r15, ea, -4  /* instruction that caused exception */
  6c:	ebffff04 	addi	r15,ea,-4
        stw   r15,  72(sp)
  70:	dbc01215 	stw	r15,72(sp)
#else
        /*
         * Test to see if the exception was a software exception or caused 
         * by an external interrupt, and vector accordingly.
         */
        rdctl r4, ipending
  74:	0009313a 	rdctl	r4,ipending
        andi  r2, r5, 1
  78:	2880004c 	andi	r2,r5,1
        beq   r2, zero, .Lnot_irq
  7c:	10000326 	beq	r2,zero,8c <alt_exception+0x6c>
        beq   r4, zero, .Lnot_irq
  80:	20000226 	beq	r4,zero,8c <alt_exception+0x6c>
        /*
         * Now that all necessary registers have been preserved, call 
         * alt_irq_handler() to process the interrupts.
         */

        call alt_irq_handler
  84:	00000fc0 	call	fc <alt_irq_handler>

        .section .exceptions.irqreturn, "xa"

        br    .Lexception_exit
  88:	00000706 	br	a8 <alt_exception+0x88>
         * upon completion, so we write ea (address of instruction *after*
         * the one where the exception occured) into 72(sp). The actual
         * instruction that caused the exception is written in r2, which these
         * handlers will utilize.
         */
        stw ea, 72(sp) /* EA is PC+4 so will skip over instruction causing exception */
  8c:	df401215 	stw	ea,72(sp)
.Lunknown_16bit:
        addi.n r4, r4, 2 /* Need PC+2 to skip over instruction causing exception */
        stw r4, 72(sp)

#else /* CDX is not Enabled and all instructions are 32bits */
        ldw r2, -4(ea) /* Instruction value that caused exception */
  90:	e8bfff17 	ldw	r2,-4(ea)
         * debugger is present) or go into an infinite loop since the
         * handling behavior is undefined; in that case we will not return here.
         */

        /* Load exception-causing address as first argument (r4) */
        addi   r4, ea, -4
  94:	e93fff04 	addi	r4,ea,-4

        /* Call the instruction-exception entry */
        call   alt_instruction_exception_entry
  98:	00001c40 	call	1c4 <alt_instruction_exception_entry>
         * instruction
         *
         * Return code was 0: Skip. The instruction after the exception is
         * already stored in 72(sp).
         */
        bne   r2, r0, .Lexception_exit
  9c:	1000021e 	bne	r2,zero,a8 <alt_exception+0x88>

        /*
         * Otherwise, modify 72(sp) to re-issue the instruction that caused the
         * exception.
         */
        addi  r15, ea, -4  /* instruction that caused exception */
  a0:	ebffff04 	addi	r15,ea,-4
        stw   r15,  72(sp)
  a4:	dbc01215 	stw	r15,72(sp)
        /* 
         * Restore the saved registers, so that all general purpose registers 
         * have been restored to their state at the time the interrupt occured.
         */

        ldw   r5,  68(sp)
  a8:	d9401117 	ldw	r5,68(sp)
        ldw   ea,  72(sp)  /* This becomes the PC once eret is executed */
  ac:	df401217 	ldw	ea,72(sp)
        ldw   ra,   0(sp)
  b0:	dfc00017 	ldw	ra,0(sp)

        wrctl estatus, r5
  b4:	2801707a 	wrctl	estatus,r5

        ldw   r1,   8(sp)
  b8:	d8400217 	ldw	at,8(sp)
        ldw   r2,  12(sp)
  bc:	d8800317 	ldw	r2,12(sp)
        ldw   r3,  16(sp)
  c0:	d8c00417 	ldw	r3,16(sp)
        ldw   r4,  20(sp)
  c4:	d9000517 	ldw	r4,20(sp)
        ldw   r5,  24(sp)
  c8:	d9400617 	ldw	r5,24(sp)
        ldw   r6,  28(sp)
  cc:	d9800717 	ldw	r6,28(sp)
        ldw   r7,  32(sp)
  d0:	d9c00817 	ldw	r7,32(sp)

#if defined(ALT_EXCEPTION_STACK) && defined(ALT_STACK_CHECK)
        ldw   et, %gprel(alt_exception_old_stack_limit)(gp)
#endif

        ldw   r8,  36(sp)
  d4:	da000917 	ldw	r8,36(sp)
        ldw   r9,  40(sp)
  d8:	da400a17 	ldw	r9,40(sp)
        ldw   r10, 44(sp)
  dc:	da800b17 	ldw	r10,44(sp)
        ldw   r11, 48(sp)
  e0:	dac00c17 	ldw	r11,48(sp)
        ldw   r12, 52(sp)
  e4:	db000d17 	ldw	r12,52(sp)
        ldw   r13, 56(sp)
  e8:	db400e17 	ldw	r13,56(sp)
        ldw   r14, 60(sp)
  ec:	db800f17 	ldw	r14,60(sp)
        ldw   r15, 64(sp)
  f0:	dbc01017 	ldw	r15,64(sp)
        stw   et, %gprel(alt_stack_limit_value)(gp)
        stw   zero, %gprel(alt_exception_old_stack_limit)(gp)
#endif /* ALT_STACK_CHECK */
        ldw   sp,  76(sp)
#else /* ALT_EXCEPTION_STACK disabled */
        addi  sp, sp, 76
  f4:	dec01304 	addi	sp,sp,76

        /*
         * Return to the interrupted instruction.
         */

        eret
  f8:	ef80083a 	eret

000000fc <alt_irq_handler>:
 * instruction is present if the macro ALT_CI_INTERRUPT_VECTOR defined.
 */

void alt_irq_handler (void) __attribute__ ((section (".exceptions")));
void alt_irq_handler (void)
{
  fc:	defff904 	addi	sp,sp,-28
 100:	dfc00615 	stw	ra,24(sp)
 104:	df000515 	stw	fp,20(sp)
 108:	df000504 	addi	fp,sp,20
  
  /*
   * Notify the operating system that we are at interrupt level.
   */ 
  
  ALT_OS_INT_ENTER();
 10c:	0001883a 	nop
#ifndef NIOS2_EIC_PRESENT
static ALT_INLINE alt_u32 ALT_ALWAYS_INLINE alt_irq_pending (void)
{
  alt_u32 active;

  NIOS2_READ_IPENDING (active);
 110:	0005313a 	rdctl	r2,ipending
 114:	e0bffc15 	stw	r2,-16(fp)

  return active;
 118:	e0bffc17 	ldw	r2,-16(fp)
   * Consider the case where the high priority interupt is asserted during
   * the interrupt entry sequence for a lower priority interrupt to see why
   * this is the case.
   */

  active = alt_irq_pending ();
 11c:	e0bfff15 	stw	r2,-4(fp)

  do
  {
    i = 0;
 120:	e03ffd15 	stw	zero,-12(fp)
    mask = 1;
 124:	00800044 	movi	r2,1
 128:	e0bffe15 	stw	r2,-8(fp)
     * called to clear the interrupt condition.
     */

    do
    {
      if (active & mask)
 12c:	e0ffff17 	ldw	r3,-4(fp)
 130:	e0bffe17 	ldw	r2,-8(fp)
 134:	1884703a 	and	r2,r3,r2
 138:	10001126 	beq	r2,zero,180 <alt_irq_handler+0x84>
      { 
#ifdef ALT_ENHANCED_INTERRUPT_API_PRESENT
        alt_irq[i].handler(alt_irq[i].context); 
 13c:	e0bffd17 	ldw	r2,-12(fp)
 140:	100690fa 	slli	r3,r2,3
 144:	00800074 	movhi	r2,1
 148:	1885883a 	add	r2,r3,r2
 14c:	10cd3517 	ldw	r3,13524(r2)
 150:	e0bffd17 	ldw	r2,-12(fp)
 154:	100890fa 	slli	r4,r2,3
 158:	00800074 	movhi	r2,1
 15c:	2085883a 	add	r2,r4,r2
 160:	108d3617 	ldw	r2,13528(r2)
 164:	1009883a 	mov	r4,r2
 168:	183ee83a 	callr	r3
#else
        alt_irq[i].handler(alt_irq[i].context, i); 
#endif
        break;
 16c:	0001883a 	nop
  NIOS2_READ_IPENDING (active);
 170:	0005313a 	rdctl	r2,ipending
 174:	e0bffb15 	stw	r2,-20(fp)
  return active;
 178:	e0bffb17 	ldw	r2,-20(fp)
 17c:	00000706 	br	19c <alt_irq_handler+0xa0>
      }
      mask <<= 1;
 180:	e0bffe17 	ldw	r2,-8(fp)
 184:	1085883a 	add	r2,r2,r2
 188:	e0bffe15 	stw	r2,-8(fp)
      i++;
 18c:	e0bffd17 	ldw	r2,-12(fp)
 190:	10800044 	addi	r2,r2,1
 194:	e0bffd15 	stw	r2,-12(fp)
      if (active & mask)
 198:	003fe406 	br	12c <alt_irq_handler+0x30>

    } while (1);

    active = alt_irq_pending ();
 19c:	e0bfff15 	stw	r2,-4(fp)
    
  } while (active);
 1a0:	e0bfff17 	ldw	r2,-4(fp)
 1a4:	103fde1e 	bne	r2,zero,120 <alt_irq_handler+0x24>

  /*
   * Notify the operating system that interrupt processing is complete.
   */ 

  ALT_OS_INT_EXIT();
 1a8:	0001883a 	nop
}
 1ac:	0001883a 	nop
 1b0:	e037883a 	mov	sp,fp
 1b4:	dfc00117 	ldw	ra,4(sp)
 1b8:	df000017 	ldw	fp,0(sp)
 1bc:	dec00204 	addi	sp,sp,8
 1c0:	f800283a 	ret

000001c4 <alt_instruction_exception_entry>:
 * that handler if it has been registered. Absent a handler, it will
 * break break or hang as discussed below.
 */
int 
alt_instruction_exception_entry (alt_u32 exception_pc)
{
 1c4:	defffb04 	addi	sp,sp,-20
 1c8:	dfc00415 	stw	ra,16(sp)
 1cc:	df000315 	stw	fp,12(sp)
 1d0:	df000304 	addi	fp,sp,12
 1d4:	e13ffd15 	stw	r4,-12(fp)
  cause = ( (cause & NIOS2_EXCEPTION_REG_CAUSE_MASK) >>
              NIOS2_EXCEPTION_REG_CAUSE_OFST );

  NIOS2_READ_BADADDR(badaddr);
#else
  cause = NIOS2_EXCEPTION_CAUSE_NOT_PRESENT;
 1d8:	00bfffc4 	movi	r2,-1
 1dc:	e0bfff15 	stw	r2,-4(fp)
  badaddr = 0;
 1e0:	e03ffe15 	stw	zero,-8(fp)
#endif /* NIOS2_HAS_EXTRA_EXCEPTION_INFO */

  if(alt_instruction_exception_handler) {
 1e4:	d0a73e17 	ldw	r2,-25352(gp)
 1e8:	10000726 	beq	r2,zero,208 <alt_instruction_exception_entry+0x44>
     * Call handler. Its return value indicates whether the exception-causing
     * instruction should be re-issued. The code that called us,
     * alt_eceptions_entry.S, will look at this value and adjust the ea
     * register as necessary
     */
    return alt_instruction_exception_handler(cause, exception_pc, badaddr);
 1ec:	d0a73e17 	ldw	r2,-25352(gp)
 1f0:	e0ffff17 	ldw	r3,-4(fp)
 1f4:	e1bffe17 	ldw	r6,-8(fp)
 1f8:	e17ffd17 	ldw	r5,-12(fp)
 1fc:	1809883a 	mov	r4,r3
 200:	103ee83a 	callr	r2
 204:	00000206 	br	210 <alt_instruction_exception_entry+0x4c>
   *    (a peripheral which negates its interrupt output before its
   *    interrupt handler has been executed will cause spurious interrupts)
   */
  else {
#ifdef NIOS2_HAS_DEBUG_STUB
    NIOS2_BREAK();
 208:	003da03a 	break	0
      ;
#endif /* NIOS2_HAS_DEBUG_STUB */
  }

  /* We should not get here. Remove compiler warning. */
  return NIOS2_EXCEPTION_RETURN_REISSUE_INST;
 20c:	0005883a 	mov	r2,zero
}
 210:	e037883a 	mov	sp,fp
 214:	dfc00117 	ldw	ra,4(sp)
 218:	df000017 	ldw	fp,0(sp)
 21c:	dec00204 	addi	sp,sp,8
 220:	f800283a 	ret

Disassembly of section .text:

00000224 <_start>:

    /*
     * Now that the caches are initialized, set up the stack pointer and global pointer.
     * The values provided by the linker are assumed to be correctly aligned.
     */
    movhi sp, %hi(__alt_stack_pointer)
     224:	06c00074 	movhi	sp,1
    ori sp, sp, %lo(__alt_stack_pointer)
     228:	defd0014 	ori	sp,sp,62464
    movhi gp, %hi(_gp)
     22c:	06800074 	movhi	gp,1
    ori gp, gp, %lo(_gp)
     230:	d6a5ec14 	ori	gp,gp,38832
 */
#ifndef ALT_SIM_OPTIMIZE
    /* Log that the BSS is about to be cleared. */
    ALT_LOG_PUTS(alt_log_msg_bss)

    movhi r2, %hi(__bss_start)
     234:	00800074 	movhi	r2,1
    ori r2, r2, %lo(__bss_start)
     238:	108d1d14 	ori	r2,r2,13428

    movhi r3, %hi(__bss_end)
     23c:	00c00074 	movhi	r3,1
    ori r3, r3, %lo(__bss_end)
     240:	18cd7514 	ori	r3,r3,13780

    beq r2, r3, 1f
     244:	10c00326 	beq	r2,r3,254 <_start+0x30>

0:
    stw zero, (r2)
     248:	10000015 	stw	zero,0(r2)
    addi r2, r2, 4
     24c:	10800104 	addi	r2,r2,4
    bltu r2, r3, 0b
     250:	10fffd36 	bltu	r2,r3,248 <_start+0x24>
     * section aren't defined until alt_load() has been called).
     */
    mov   et, zero
#endif

    call alt_load
     254:	000d2d00 	call	d2d0 <alt_load>

    /* Log that alt_main is about to be called. */
    ALT_LOG_PUTS(alt_log_msg_alt_main)

    /* Call the C entry point. It should never return. */
    call alt_main
     258:	000d4700 	call	d470 <alt_main>

0000025c <alt_after_alt_main>:

    /* Wait in infinite loop in case alt_main does return. */
alt_after_alt_main:
    br alt_after_alt_main
     25c:	003fff06 	br	25c <alt_after_alt_main>

00000260 <resolveToFlower>:
//General 32 bit output @ 0x21000
uint *nios_output = (uint*)0x21000;

uint aIndex = 0;

char* resolveToFlower(uint flower) {
     260:	defffe04 	addi	sp,sp,-8
     264:	df000115 	stw	fp,4(sp)
     268:	df000104 	addi	fp,sp,4
     26c:	e13fff15 	stw	r4,-4(fp)
	static char flowers[][16] = { "Iris-setosa", "Iris-versicolor", "Iris-virginica", "uh oh" };
	return flower > 2 ? flowers[3] : flowers[flower];
     270:	e0bfff17 	ldw	r2,-4(fp)
     274:	108000e8 	cmpgeui	r2,r2,3
     278:	1000061e 	bne	r2,zero,294 <resolveToFlower+0x34>
     27c:	e0bfff17 	ldw	r2,-4(fp)
     280:	1006913a 	slli	r3,r2,4
     284:	00800074 	movhi	r2,1
     288:	10bee104 	addi	r2,r2,-1148
     28c:	1885883a 	add	r2,r3,r2
     290:	00000206 	br	29c <resolveToFlower+0x3c>
     294:	00800074 	movhi	r2,1
     298:	10beed04 	addi	r2,r2,-1100
}
     29c:	e037883a 	mov	sp,fp
     2a0:	df000017 	ldw	fp,0(sp)
     2a4:	dec00104 	addi	sp,sp,4
     2a8:	f800283a 	ret

000002ac <printClassificationResult>:

void printClassificationResult() {
     2ac:	defffb04 	addi	sp,sp,-20
     2b0:	dfc00415 	stw	ra,16(sp)
     2b4:	df000315 	stw	fp,12(sp)
     2b8:	dc000215 	stw	r16,8(sp)
     2bc:	df000304 	addi	fp,sp,12
	uint actual = 0xFF & *nios_input;
     2c0:	d0a00317 	ldw	r2,-32756(gp)
     2c4:	10800017 	ldw	r2,0(r2)
     2c8:	10803fcc 	andi	r2,r2,255
     2cc:	e0bffe15 	stw	r2,-8(fp)
    uint classified = 0xFF & (*nios_input >> 8);
     2d0:	d0a00317 	ldw	r2,-32756(gp)
     2d4:	10800017 	ldw	r2,0(r2)
     2d8:	1004d23a 	srli	r2,r2,8
     2dc:	10803fcc 	andi	r2,r2,255
     2e0:	e0bffd15 	stw	r2,-12(fp)

	if (actual == classified) {
     2e4:	e0fffe17 	ldw	r3,-8(fp)
     2e8:	e0bffd17 	ldw	r2,-12(fp)
     2ec:	1880041e 	bne	r3,r2,300 <printClassificationResult+0x54>
		printf("Classification correct!\n");
     2f0:	01000074 	movhi	r4,1
     2f4:	213d2e04 	addi	r4,r4,-2888
     2f8:	00007880 	call	788 <puts>
     2fc:	00000306 	br	30c <printClassificationResult+0x60>
	} else {
		printf("Classification wrong. :(\n");
     300:	01000074 	movhi	r4,1
     304:	213d3404 	addi	r4,r4,-2864
     308:	00007880 	call	788 <puts>
	}

	printf("Actual: %s\nClassified as: %s\n\n", resolveToFlower(actual), resolveToFlower(classified));
     30c:	e13ffe17 	ldw	r4,-8(fp)
     310:	00002600 	call	260 <resolveToFlower>
     314:	1021883a 	mov	r16,r2
     318:	e13ffd17 	ldw	r4,-12(fp)
     31c:	00002600 	call	260 <resolveToFlower>
     320:	100d883a 	mov	r6,r2
     324:	800b883a 	mov	r5,r16
     328:	01000074 	movhi	r4,1
     32c:	213d3b04 	addi	r4,r4,-2836
     330:	00006840 	call	684 <printf>
}
     334:	0001883a 	nop
     338:	e6ffff04 	addi	sp,fp,-4
     33c:	dfc00217 	ldw	ra,8(sp)
     340:	df000117 	ldw	fp,4(sp)
     344:	dc000017 	ldw	r16,0(sp)
     348:	dec00304 	addi	sp,sp,12
     34c:	f800283a 	ret

00000350 <getAttributesFromUser>:

char* getAttributesFromUser() {
     350:	defffc04 	addi	sp,sp,-16
     354:	dfc00315 	stw	ra,12(sp)
     358:	df000215 	stw	fp,8(sp)
     35c:	df000204 	addi	fp,sp,8
    static char strs[][16] = { "Sepal length", "Sepal width", "Petal length", "Petal width" };
    static char hardcoded[3][4] = { { 51, 35 ,14 , 2 }, { 70, 32, 47, 14 }, { 63, 33, 60, 25 } };
    static char attributes[4];

    printf("An Iris flower can be described using 4 attributes: sepal length and width, and petal length and width.\nPlease enter the 4 attributes in millimeters between 0 and 255.\n\n");
     360:	01000074 	movhi	r4,1
     364:	213d4304 	addi	r4,r4,-2804
     368:	00007880 	call	788 <puts>

    for (int i = 0; i < 4; i++) {
     36c:	e03fff15 	stw	zero,-4(fp)
     370:	00001f06 	br	3f0 <getAttributesFromUser+0xa0>
        printf("%s: ", strs[i]);
     374:	e0bfff17 	ldw	r2,-4(fp)
     378:	1006913a 	slli	r3,r2,4
     37c:	00800074 	movhi	r2,1
     380:	10bef104 	addi	r2,r2,-1084
     384:	1885883a 	add	r2,r3,r2
     388:	100b883a 	mov	r5,r2
     38c:	01000074 	movhi	r4,1
     390:	213d6e04 	addi	r4,r4,-2632
     394:	00006840 	call	684 <printf>

        char buf[4];
        //fgets(buf, 4, stdin);
        printf("You entered: %s\n", buf);
     398:	e0bffe04 	addi	r2,fp,-8
     39c:	100b883a 	mov	r5,r2
     3a0:	01000074 	movhi	r4,1
     3a4:	213d7004 	addi	r4,r4,-2624
     3a8:	00006840 	call	684 <printf>
        attributes[i] = hardcoded[aIndex % 3][i];
     3ac:	d0a73117 	ldw	r2,-25404(gp)
     3b0:	014000c4 	movi	r5,3
     3b4:	1009883a 	mov	r4,r2
     3b8:	00005f80 	call	5f8 <__umodsi3>
     3bc:	100690ba 	slli	r3,r2,2
     3c0:	e0bfff17 	ldw	r2,-4(fp)
     3c4:	1887883a 	add	r3,r3,r2
     3c8:	00800074 	movhi	r2,1
     3cc:	1885883a 	add	r2,r3,r2
     3d0:	10ff0103 	ldbu	r3,-1020(r2)
     3d4:	e13fff17 	ldw	r4,-4(fp)
     3d8:	d0a73204 	addi	r2,gp,-25400
     3dc:	2085883a 	add	r2,r4,r2
     3e0:	10c00005 	stb	r3,0(r2)
    for (int i = 0; i < 4; i++) {
     3e4:	e0bfff17 	ldw	r2,-4(fp)
     3e8:	10800044 	addi	r2,r2,1
     3ec:	e0bfff15 	stw	r2,-4(fp)
     3f0:	e0bfff17 	ldw	r2,-4(fp)
     3f4:	10800110 	cmplti	r2,r2,4
     3f8:	103fde1e 	bne	r2,zero,374 <getAttributesFromUser+0x24>
    }

    return attributes;
     3fc:	d0a73204 	addi	r2,gp,-25400
}
     400:	e037883a 	mov	sp,fp
     404:	dfc00117 	ldw	ra,4(sp)
     408:	df000017 	ldw	fp,0(sp)
     40c:	dec00204 	addi	sp,sp,8
     410:	f800283a 	ret

00000414 <main>:

int main()
{
     414:	defffc04 	addi	sp,sp,-16
     418:	dfc00315 	stw	ra,12(sp)
     41c:	df000215 	stw	fp,8(sp)
     420:	df000204 	addi	fp,sp,8
    //unsigned char *mem = mmap((void *)0x21000, 0x10, PROT_READ | PROT_WRITE, MAP_PRIVATE | MAP_ANONYMOUS, -1, 0);
    //unsigned int *nios_output = (unsigned int*)mem;


    printf("%d", *nios_output);
     424:	d0a00417 	ldw	r2,-32752(gp)
     428:	10800017 	ldw	r2,0(r2)
     42c:	100b883a 	mov	r5,r2
     430:	01000074 	movhi	r4,1
     434:	213d7504 	addi	r4,r4,-2604
     438:	00006840 	call	684 <printf>

	printf("Nios2 processor started.\n");
     43c:	01000074 	movhi	r4,1
     440:	213d7604 	addi	r4,r4,-2600
     444:	00007880 	call	788 <puts>

    for(;;) {
        uint state = 0xFF & (*nios_input >> 24);
     448:	d0a00317 	ldw	r2,-32756(gp)
     44c:	10800017 	ldw	r2,0(r2)
     450:	1004d63a 	srli	r2,r2,24
     454:	e0bfff15 	stw	r2,-4(fp)
        printf("state: %d", state);
     458:	e17fff17 	ldw	r5,-4(fp)
     45c:	01000074 	movhi	r4,1
     460:	213d7d04 	addi	r4,r4,-2572
     464:	00006840 	call	684 <printf>

        if (state == 4) { //state to get user input from console
     468:	e0bfff17 	ldw	r2,-4(fp)
     46c:	10800118 	cmpnei	r2,r2,4
     470:	103ff51e 	bne	r2,zero,448 <main+0x34>
            char *a = getAttributesFromUser();
     474:	00003500 	call	350 <getAttributesFromUser>
     478:	e0bffe15 	stw	r2,-8(fp)
            aIndex++;
     47c:	d0a73117 	ldw	r2,-25404(gp)
     480:	10800044 	addi	r2,r2,1
     484:	d0a73115 	stw	r2,-25404(gp)
            *nios_output = *((int*)a);
     488:	e0bffe17 	ldw	r2,-8(fp)
     48c:	10c00017 	ldw	r3,0(r2)
     490:	d0a00417 	ldw	r2,-32752(gp)
     494:	10c00015 	stw	r3,0(r2)
    for(;;) {
     498:	003feb06 	br	448 <main+0x34>

0000049c <__divsi3>:
     49c:	20001a16 	blt	r4,zero,508 <__divsi3+0x6c>
     4a0:	000f883a 	mov	r7,zero
     4a4:	2800020e 	bge	r5,zero,4b0 <__divsi3+0x14>
     4a8:	014bc83a 	sub	r5,zero,r5
     4ac:	39c0005c 	xori	r7,r7,1
     4b0:	200d883a 	mov	r6,r4
     4b4:	00c00044 	movi	r3,1
     4b8:	2900092e 	bgeu	r5,r4,4e0 <__divsi3+0x44>
     4bc:	00800804 	movi	r2,32
     4c0:	00c00044 	movi	r3,1
     4c4:	00000106 	br	4cc <__divsi3+0x30>
     4c8:	10001226 	beq	r2,zero,514 <__divsi3+0x78>
     4cc:	294b883a 	add	r5,r5,r5
     4d0:	10bfffc4 	addi	r2,r2,-1
     4d4:	18c7883a 	add	r3,r3,r3
     4d8:	293ffb36 	bltu	r5,r4,4c8 <__divsi3+0x2c>
     4dc:	18000d26 	beq	r3,zero,514 <__divsi3+0x78>
     4e0:	0005883a 	mov	r2,zero
     4e4:	31400236 	bltu	r6,r5,4f0 <__divsi3+0x54>
     4e8:	314dc83a 	sub	r6,r6,r5
     4ec:	10c4b03a 	or	r2,r2,r3
     4f0:	1806d07a 	srli	r3,r3,1
     4f4:	280ad07a 	srli	r5,r5,1
     4f8:	183ffa1e 	bne	r3,zero,4e4 <__divsi3+0x48>
     4fc:	38000126 	beq	r7,zero,504 <__divsi3+0x68>
     500:	0085c83a 	sub	r2,zero,r2
     504:	f800283a 	ret
     508:	0109c83a 	sub	r4,zero,r4
     50c:	01c00044 	movi	r7,1
     510:	003fe406 	br	4a4 <__divsi3+0x8>
     514:	0005883a 	mov	r2,zero
     518:	003ff806 	br	4fc <__divsi3+0x60>

0000051c <__modsi3>:
     51c:	20001a16 	blt	r4,zero,588 <__modsi3+0x6c>
     520:	000f883a 	mov	r7,zero
     524:	2005883a 	mov	r2,r4
     528:	2800010e 	bge	r5,zero,530 <__modsi3+0x14>
     52c:	014bc83a 	sub	r5,zero,r5
     530:	00c00044 	movi	r3,1
     534:	2900092e 	bgeu	r5,r4,55c <__modsi3+0x40>
     538:	01800804 	movi	r6,32
     53c:	00c00044 	movi	r3,1
     540:	00000106 	br	548 <__modsi3+0x2c>
     544:	30000d26 	beq	r6,zero,57c <__modsi3+0x60>
     548:	294b883a 	add	r5,r5,r5
     54c:	31bfffc4 	addi	r6,r6,-1
     550:	18c7883a 	add	r3,r3,r3
     554:	293ffb36 	bltu	r5,r4,544 <__modsi3+0x28>
     558:	18000826 	beq	r3,zero,57c <__modsi3+0x60>
     55c:	1806d07a 	srli	r3,r3,1
     560:	11400136 	bltu	r2,r5,568 <__modsi3+0x4c>
     564:	1145c83a 	sub	r2,r2,r5
     568:	280ad07a 	srli	r5,r5,1
     56c:	183ffb1e 	bne	r3,zero,55c <__modsi3+0x40>
     570:	38000126 	beq	r7,zero,578 <__modsi3+0x5c>
     574:	0085c83a 	sub	r2,zero,r2
     578:	f800283a 	ret
     57c:	2005883a 	mov	r2,r4
     580:	383ffd26 	beq	r7,zero,578 <__modsi3+0x5c>
     584:	003ffb06 	br	574 <__modsi3+0x58>
     588:	0109c83a 	sub	r4,zero,r4
     58c:	01c00044 	movi	r7,1
     590:	003fe406 	br	524 <__modsi3+0x8>

00000594 <__udivsi3>:
     594:	200d883a 	mov	r6,r4
     598:	2900152e 	bgeu	r5,r4,5f0 <__udivsi3+0x5c>
     59c:	28001416 	blt	r5,zero,5f0 <__udivsi3+0x5c>
     5a0:	00800804 	movi	r2,32
     5a4:	00c00044 	movi	r3,1
     5a8:	00000206 	br	5b4 <__udivsi3+0x20>
     5ac:	10000e26 	beq	r2,zero,5e8 <__udivsi3+0x54>
     5b0:	28000516 	blt	r5,zero,5c8 <__udivsi3+0x34>
     5b4:	294b883a 	add	r5,r5,r5
     5b8:	10bfffc4 	addi	r2,r2,-1
     5bc:	18c7883a 	add	r3,r3,r3
     5c0:	293ffa36 	bltu	r5,r4,5ac <__udivsi3+0x18>
     5c4:	18000826 	beq	r3,zero,5e8 <__udivsi3+0x54>
     5c8:	0005883a 	mov	r2,zero
     5cc:	31400236 	bltu	r6,r5,5d8 <__udivsi3+0x44>
     5d0:	314dc83a 	sub	r6,r6,r5
     5d4:	10c4b03a 	or	r2,r2,r3
     5d8:	1806d07a 	srli	r3,r3,1
     5dc:	280ad07a 	srli	r5,r5,1
     5e0:	183ffa1e 	bne	r3,zero,5cc <__udivsi3+0x38>
     5e4:	f800283a 	ret
     5e8:	0005883a 	mov	r2,zero
     5ec:	f800283a 	ret
     5f0:	00c00044 	movi	r3,1
     5f4:	003ff406 	br	5c8 <__udivsi3+0x34>

000005f8 <__umodsi3>:
     5f8:	2005883a 	mov	r2,r4
     5fc:	2900132e 	bgeu	r5,r4,64c <__umodsi3+0x54>
     600:	28001216 	blt	r5,zero,64c <__umodsi3+0x54>
     604:	01800804 	movi	r6,32
     608:	00c00044 	movi	r3,1
     60c:	00000206 	br	618 <__umodsi3+0x20>
     610:	30000c26 	beq	r6,zero,644 <__umodsi3+0x4c>
     614:	28000516 	blt	r5,zero,62c <__umodsi3+0x34>
     618:	294b883a 	add	r5,r5,r5
     61c:	31bfffc4 	addi	r6,r6,-1
     620:	18c7883a 	add	r3,r3,r3
     624:	293ffa36 	bltu	r5,r4,610 <__umodsi3+0x18>
     628:	18000626 	beq	r3,zero,644 <__umodsi3+0x4c>
     62c:	1806d07a 	srli	r3,r3,1
     630:	11400136 	bltu	r2,r5,638 <__umodsi3+0x40>
     634:	1145c83a 	sub	r2,r2,r5
     638:	280ad07a 	srli	r5,r5,1
     63c:	183ffb1e 	bne	r3,zero,62c <__umodsi3+0x34>
     640:	f800283a 	ret
     644:	2005883a 	mov	r2,r4
     648:	f800283a 	ret
     64c:	00c00044 	movi	r3,1
     650:	003ff606 	br	62c <__umodsi3+0x34>

00000654 <_printf_r>:
     654:	defffd04 	addi	sp,sp,-12
     658:	2805883a 	mov	r2,r5
     65c:	dfc00015 	stw	ra,0(sp)
     660:	d9800115 	stw	r6,4(sp)
     664:	d9c00215 	stw	r7,8(sp)
     668:	21400217 	ldw	r5,8(r4)
     66c:	d9c00104 	addi	r7,sp,4
     670:	100d883a 	mov	r6,r2
     674:	00008300 	call	830 <___vfprintf_internal_r>
     678:	dfc00017 	ldw	ra,0(sp)
     67c:	dec00304 	addi	sp,sp,12
     680:	f800283a 	ret

00000684 <printf>:
     684:	defffc04 	addi	sp,sp,-16
     688:	dfc00015 	stw	ra,0(sp)
     68c:	d9400115 	stw	r5,4(sp)
     690:	d9800215 	stw	r6,8(sp)
     694:	d9c00315 	stw	r7,12(sp)
     698:	00800074 	movhi	r2,1
     69c:	1085f217 	ldw	r2,6088(r2)
     6a0:	200b883a 	mov	r5,r4
     6a4:	d9800104 	addi	r6,sp,4
     6a8:	11000217 	ldw	r4,8(r2)
     6ac:	00029b80 	call	29b8 <__vfprintf_internal>
     6b0:	dfc00017 	ldw	ra,0(sp)
     6b4:	dec00404 	addi	sp,sp,16
     6b8:	f800283a 	ret

000006bc <_puts_r>:
     6bc:	defff504 	addi	sp,sp,-44
     6c0:	dc000815 	stw	r16,32(sp)
     6c4:	2021883a 	mov	r16,r4
     6c8:	2809883a 	mov	r4,r5
     6cc:	dc400915 	stw	r17,36(sp)
     6d0:	dfc00a15 	stw	ra,40(sp)
     6d4:	2823883a 	mov	r17,r5
     6d8:	00007980 	call	798 <strlen>
     6dc:	11000044 	addi	r4,r2,1
     6e0:	d8800515 	stw	r2,20(sp)
     6e4:	00800044 	movi	r2,1
     6e8:	00c00074 	movhi	r3,1
     6ec:	d8800715 	stw	r2,28(sp)
     6f0:	d8800404 	addi	r2,sp,16
     6f4:	18fd8004 	addi	r3,r3,-2560
     6f8:	d8800115 	stw	r2,4(sp)
     6fc:	00800084 	movi	r2,2
     700:	dc400415 	stw	r17,16(sp)
     704:	d8c00615 	stw	r3,24(sp)
     708:	d9000315 	stw	r4,12(sp)
     70c:	d8800215 	stw	r2,8(sp)
     710:	81400217 	ldw	r5,8(r16)
     714:	80000226 	beq	r16,zero,720 <_puts_r+0x64>
     718:	80800e17 	ldw	r2,56(r16)
     71c:	10001326 	beq	r2,zero,76c <_puts_r+0xb0>
     720:	2880030b 	ldhu	r2,12(r5)
     724:	10c8000c 	andi	r3,r2,8192
     728:	1800061e 	bne	r3,zero,744 <_puts_r+0x88>
     72c:	28c01917 	ldw	r3,100(r5)
     730:	0137ffc4 	movi	r4,-8193
     734:	10880014 	ori	r2,r2,8192
     738:	1906703a 	and	r3,r3,r4
     73c:	2880030d 	sth	r2,12(r5)
     740:	28c01915 	stw	r3,100(r5)
     744:	d9800104 	addi	r6,sp,4
     748:	8009883a 	mov	r4,r16
     74c:	0004f080 	call	4f08 <__sfvwrite_r>
     750:	10000b1e 	bne	r2,zero,780 <_puts_r+0xc4>
     754:	00800284 	movi	r2,10
     758:	dfc00a17 	ldw	ra,40(sp)
     75c:	dc400917 	ldw	r17,36(sp)
     760:	dc000817 	ldw	r16,32(sp)
     764:	dec00b04 	addi	sp,sp,44
     768:	f800283a 	ret
     76c:	8009883a 	mov	r4,r16
     770:	d9400015 	stw	r5,0(sp)
     774:	0004aa80 	call	4aa8 <__sinit>
     778:	d9400017 	ldw	r5,0(sp)
     77c:	003fe806 	br	720 <_puts_r+0x64>
     780:	00bfffc4 	movi	r2,-1
     784:	003ff406 	br	758 <_puts_r+0x9c>

00000788 <puts>:
     788:	00800074 	movhi	r2,1
     78c:	200b883a 	mov	r5,r4
     790:	1105f217 	ldw	r4,6088(r2)
     794:	00006bc1 	jmpi	6bc <_puts_r>

00000798 <strlen>:
     798:	208000cc 	andi	r2,r4,3
     79c:	10002026 	beq	r2,zero,820 <strlen+0x88>
     7a0:	20800007 	ldb	r2,0(r4)
     7a4:	10002026 	beq	r2,zero,828 <strlen+0x90>
     7a8:	2005883a 	mov	r2,r4
     7ac:	00000206 	br	7b8 <strlen+0x20>
     7b0:	10c00007 	ldb	r3,0(r2)
     7b4:	18001826 	beq	r3,zero,818 <strlen+0x80>
     7b8:	10800044 	addi	r2,r2,1
     7bc:	10c000cc 	andi	r3,r2,3
     7c0:	183ffb1e 	bne	r3,zero,7b0 <strlen+0x18>
     7c4:	11400017 	ldw	r5,0(r2)
     7c8:	01ffbff4 	movhi	r7,65279
     7cc:	39ffbfc4 	addi	r7,r7,-257
     7d0:	29c7883a 	add	r3,r5,r7
     7d4:	01a02074 	movhi	r6,32897
     7d8:	014a303a 	nor	r5,zero,r5
     7dc:	1946703a 	and	r3,r3,r5
     7e0:	31a02004 	addi	r6,r6,-32640
     7e4:	1986703a 	and	r3,r3,r6
     7e8:	1800091e 	bne	r3,zero,810 <strlen+0x78>
     7ec:	10800104 	addi	r2,r2,4
     7f0:	11400017 	ldw	r5,0(r2)
     7f4:	29c7883a 	add	r3,r5,r7
     7f8:	014a303a 	nor	r5,zero,r5
     7fc:	1946703a 	and	r3,r3,r5
     800:	1986703a 	and	r3,r3,r6
     804:	183ff926 	beq	r3,zero,7ec <strlen+0x54>
     808:	00000106 	br	810 <strlen+0x78>
     80c:	10800044 	addi	r2,r2,1
     810:	10c00007 	ldb	r3,0(r2)
     814:	183ffd1e 	bne	r3,zero,80c <strlen+0x74>
     818:	1105c83a 	sub	r2,r2,r4
     81c:	f800283a 	ret
     820:	2005883a 	mov	r2,r4
     824:	003fe706 	br	7c4 <strlen+0x2c>
     828:	0005883a 	mov	r2,zero
     82c:	f800283a 	ret

00000830 <___vfprintf_internal_r>:
     830:	deffbd04 	addi	sp,sp,-268
     834:	dfc04215 	stw	ra,264(sp)
     838:	dd003d15 	stw	r20,244(sp)
     83c:	dcc03c15 	stw	r19,240(sp)
     840:	dc003915 	stw	r16,228(sp)
     844:	d9000515 	stw	r4,20(sp)
     848:	2021883a 	mov	r16,r4
     84c:	2827883a 	mov	r19,r5
     850:	3029883a 	mov	r20,r6
     854:	d9c00615 	stw	r7,24(sp)
     858:	df004115 	stw	fp,260(sp)
     85c:	ddc04015 	stw	r23,256(sp)
     860:	dd803f15 	stw	r22,252(sp)
     864:	dd403e15 	stw	r21,248(sp)
     868:	dc803b15 	stw	r18,236(sp)
     86c:	dc403a15 	stw	r17,232(sp)
     870:	000553c0 	call	553c <_localeconv_r>
     874:	10800017 	ldw	r2,0(r2)
     878:	1009883a 	mov	r4,r2
     87c:	d8800d15 	stw	r2,52(sp)
     880:	00007980 	call	798 <strlen>
     884:	d8800b15 	stw	r2,44(sp)
     888:	80000226 	beq	r16,zero,894 <___vfprintf_internal_r+0x64>
     88c:	80800e17 	ldw	r2,56(r16)
     890:	1002de26 	beq	r2,zero,140c <___vfprintf_internal_r+0xbdc>
     894:	9880030b 	ldhu	r2,12(r19)
     898:	10c8000c 	andi	r3,r2,8192
     89c:	1800061e 	bne	r3,zero,8b8 <___vfprintf_internal_r+0x88>
     8a0:	98c01917 	ldw	r3,100(r19)
     8a4:	0137ffc4 	movi	r4,-8193
     8a8:	10880014 	ori	r2,r2,8192
     8ac:	1906703a 	and	r3,r3,r4
     8b0:	9880030d 	sth	r2,12(r19)
     8b4:	98c01915 	stw	r3,100(r19)
     8b8:	10c0020c 	andi	r3,r2,8
     8bc:	18009a26 	beq	r3,zero,b28 <___vfprintf_internal_r+0x2f8>
     8c0:	98c00417 	ldw	r3,16(r19)
     8c4:	18009826 	beq	r3,zero,b28 <___vfprintf_internal_r+0x2f8>
     8c8:	1080068c 	andi	r2,r2,26
     8cc:	10800298 	cmpnei	r2,r2,10
     8d0:	10009d26 	beq	r2,zero,b48 <___vfprintf_internal_r+0x318>
     8d4:	ddc02904 	addi	r23,sp,164
     8d8:	ddc01c15 	stw	r23,112(sp)
     8dc:	d8001e15 	stw	zero,120(sp)
     8e0:	d8001d15 	stw	zero,116(sp)
     8e4:	d8000815 	stw	zero,32(sp)
     8e8:	d8000915 	stw	zero,36(sp)
     8ec:	d8000a15 	stw	zero,40(sp)
     8f0:	b811883a 	mov	r8,r23
     8f4:	d8000c15 	stw	zero,48(sp)
     8f8:	d8001115 	stw	zero,68(sp)
     8fc:	d8000415 	stw	zero,16(sp)
     900:	a02d883a 	mov	r22,r20
     904:	b0800007 	ldb	r2,0(r22)
     908:	1000a226 	beq	r2,zero,b94 <___vfprintf_internal_r+0x364>
     90c:	10800960 	cmpeqi	r2,r2,37
     910:	1005351e 	bne	r2,zero,1de8 <___vfprintf_internal_r+0x15b8>
     914:	b021883a 	mov	r16,r22
     918:	00000206 	br	924 <___vfprintf_internal_r+0xf4>
     91c:	18009326 	beq	r3,zero,b6c <___vfprintf_internal_r+0x33c>
     920:	8821883a 	mov	r16,r17
     924:	80800047 	ldb	r2,1(r16)
     928:	84400044 	addi	r17,r16,1
     92c:	10c00958 	cmpnei	r3,r2,37
     930:	103ffa1e 	bne	r2,zero,91c <___vfprintf_internal_r+0xec>
     934:	8da5c83a 	sub	r18,r17,r22
     938:	90009626 	beq	r18,zero,b94 <___vfprintf_internal_r+0x364>
     93c:	d8c01e17 	ldw	r3,120(sp)
     940:	d8801d17 	ldw	r2,116(sp)
     944:	45800015 	stw	r22,0(r8)
     948:	1c87883a 	add	r3,r3,r18
     94c:	10800044 	addi	r2,r2,1
     950:	d8801d15 	stw	r2,116(sp)
     954:	44800115 	stw	r18,4(r8)
     958:	d8c01e15 	stw	r3,120(sp)
     95c:	10800208 	cmpgei	r2,r2,8
     960:	1000851e 	bne	r2,zero,b78 <___vfprintf_internal_r+0x348>
     964:	42000204 	addi	r8,r8,8
     968:	d8c00417 	ldw	r3,16(sp)
     96c:	80800047 	ldb	r2,1(r16)
     970:	1c87883a 	add	r3,r3,r18
     974:	d8c00415 	stw	r3,16(sp)
     978:	10008626 	beq	r2,zero,b94 <___vfprintf_internal_r+0x364>
     97c:	8a800047 	ldb	r10,1(r17)
     980:	8d800044 	addi	r22,r17,1
     984:	d8001545 	stb	zero,85(sp)
     988:	0009883a 	mov	r4,zero
     98c:	000b883a 	mov	r5,zero
     990:	02ffffc4 	movi	r11,-1
     994:	0021883a 	mov	r16,zero
     998:	0019883a 	mov	r12,zero
     99c:	b5800044 	addi	r22,r22,1
     9a0:	5039883a 	mov	fp,r10
     9a4:	e0bff804 	addi	r2,fp,-32
     9a8:	10c01668 	cmpgeui	r3,r2,89
     9ac:	18009d1e 	bne	r3,zero,c24 <___vfprintf_internal_r+0x3f4>
     9b0:	100490ba 	slli	r2,r2,2
     9b4:	00c00034 	movhi	r3,0
     9b8:	10c7883a 	add	r3,r2,r3
     9bc:	18827117 	ldw	r2,2500(r3)
     9c0:	1000683a 	jmp	r2
     9c4:	00000cfc 	xorhi	zero,zero,51
     9c8:	00000c24 	muli	zero,zero,48
     9cc:	00000c24 	muli	zero,zero,48
     9d0:	00000cf0 	cmpltui	zero,zero,51
     9d4:	00000c24 	muli	zero,zero,48
     9d8:	00000c24 	muli	zero,zero,48
     9dc:	00000c24 	muli	zero,zero,48
     9e0:	00000c24 	muli	zero,zero,48
     9e4:	00000c24 	muli	zero,zero,48
     9e8:	00000c24 	muli	zero,zero,48
     9ec:	00000cc8 	cmpgei	zero,zero,51
     9f0:	00000cb8 	rdprs	zero,zero,50
     9f4:	00000c24 	muli	zero,zero,48
     9f8:	00000ca0 	cmpeqi	zero,zero,50
     9fc:	00000c54 	movui	zero,49
     a00:	00000c24 	muli	zero,zero,48
     a04:	00000c48 	cmpgei	zero,zero,49
     a08:	00000bec 	andhi	zero,zero,47
     a0c:	00000bec 	andhi	zero,zero,47
     a10:	00000bec 	andhi	zero,zero,47
     a14:	00000bec 	andhi	zero,zero,47
     a18:	00000bec 	andhi	zero,zero,47
     a1c:	00000bec 	andhi	zero,zero,47
     a20:	00000bec 	andhi	zero,zero,47
     a24:	00000bec 	andhi	zero,zero,47
     a28:	00000bec 	andhi	zero,zero,47
     a2c:	00000c24 	muli	zero,zero,48
     a30:	00000c24 	muli	zero,zero,48
     a34:	00000c24 	muli	zero,zero,48
     a38:	00000c24 	muli	zero,zero,48
     a3c:	00000c24 	muli	zero,zero,48
     a40:	00000c24 	muli	zero,zero,48
     a44:	00000c24 	muli	zero,zero,48
     a48:	00000c24 	muli	zero,zero,48
     a4c:	00000c24 	muli	zero,zero,48
     a50:	00000c24 	muli	zero,zero,48
     a54:	00001210 	cmplti	zero,zero,72
     a58:	00001130 	cmpltui	zero,zero,68
     a5c:	00000c24 	muli	zero,zero,48
     a60:	00001130 	cmpltui	zero,zero,68
     a64:	00000c24 	muli	zero,zero,48
     a68:	00000c24 	muli	zero,zero,48
     a6c:	00000c24 	muli	zero,zero,48
     a70:	00000c24 	muli	zero,zero,48
     a74:	00001124 	muli	zero,zero,68
     a78:	00000c24 	muli	zero,zero,48
     a7c:	00000c24 	muli	zero,zero,48
     a80:	000010f0 	cmpltui	zero,zero,67
     a84:	00000c24 	muli	zero,zero,48
     a88:	00000c24 	muli	zero,zero,48
     a8c:	00000c24 	muli	zero,zero,48
     a90:	00000c24 	muli	zero,zero,48
     a94:	00000c24 	muli	zero,zero,48
     a98:	00001330 	cmpltui	zero,zero,76
     a9c:	00000c24 	muli	zero,zero,48
     aa0:	00000c24 	muli	zero,zero,48
     aa4:	000012e8 	cmpgeui	zero,zero,75
     aa8:	00000c24 	muli	zero,zero,48
     aac:	00000c24 	muli	zero,zero,48
     ab0:	00000c24 	muli	zero,zero,48
     ab4:	00000c24 	muli	zero,zero,48
     ab8:	00000c24 	muli	zero,zero,48
     abc:	00000c24 	muli	zero,zero,48
     ac0:	00000c24 	muli	zero,zero,48
     ac4:	00000c24 	muli	zero,zero,48
     ac8:	00000c24 	muli	zero,zero,48
     acc:	00000c24 	muli	zero,zero,48
     ad0:	00000e80 	call	e8 <__flash_exceptions_start+0xc8>
     ad4:	00000e0c 	andi	zero,zero,56
     ad8:	00001130 	cmpltui	zero,zero,68
     adc:	00001130 	cmpltui	zero,zero,68
     ae0:	00001130 	cmpltui	zero,zero,68
     ae4:	00001400 	call	140 <alt_irq_handler+0x44>
     ae8:	00000e0c 	andi	zero,zero,56
     aec:	00000c24 	muli	zero,zero,48
     af0:	00000c24 	muli	zero,zero,48
     af4:	000013ec 	andhi	zero,zero,79
     af8:	00000c24 	muli	zero,zero,48
     afc:	000010b0 	cmpltui	zero,zero,66
     b00:	00001070 	cmpltui	zero,zero,65
     b04:	00001370 	cmpltui	zero,zero,77
     b08:	00001364 	muli	zero,zero,77
     b0c:	00000c24 	muli	zero,zero,48
     b10:	00000db0 	cmpltui	zero,zero,54
     b14:	00000c24 	muli	zero,zero,48
     b18:	00000d70 	cmpltui	zero,zero,53
     b1c:	00000c24 	muli	zero,zero,48
     b20:	00000c24 	muli	zero,zero,48
     b24:	00000d28 	cmpgeui	zero,zero,52
     b28:	d9000517 	ldw	r4,20(sp)
     b2c:	980b883a 	mov	r5,r19
     b30:	0002a900 	call	2a90 <__swsetup_r>
     b34:	1007561e 	bne	r2,zero,2890 <___vfprintf_internal_r+0x2060>
     b38:	9880030b 	ldhu	r2,12(r19)
     b3c:	1080068c 	andi	r2,r2,26
     b40:	10800298 	cmpnei	r2,r2,10
     b44:	103f631e 	bne	r2,zero,8d4 <___vfprintf_internal_r+0xa4>
     b48:	9880038f 	ldh	r2,14(r19)
     b4c:	103f6116 	blt	r2,zero,8d4 <___vfprintf_internal_r+0xa4>
     b50:	d9c00617 	ldw	r7,24(sp)
     b54:	d9000517 	ldw	r4,20(sp)
     b58:	a00d883a 	mov	r6,r20
     b5c:	980b883a 	mov	r5,r19
     b60:	00029d00 	call	29d0 <__sbprintf>
     b64:	d8800415 	stw	r2,16(sp)
     b68:	00001306 	br	bb8 <___vfprintf_internal_r+0x388>
     b6c:	8da5c83a 	sub	r18,r17,r22
     b70:	903f8226 	beq	r18,zero,97c <___vfprintf_internal_r+0x14c>
     b74:	003f7106 	br	93c <___vfprintf_internal_r+0x10c>
     b78:	d9000517 	ldw	r4,20(sp)
     b7c:	d9801c04 	addi	r6,sp,112
     b80:	980b883a 	mov	r5,r19
     b84:	0007b8c0 	call	7b8c <__sprint_r>
     b88:	1000081e 	bne	r2,zero,bac <___vfprintf_internal_r+0x37c>
     b8c:	b811883a 	mov	r8,r23
     b90:	003f7506 	br	968 <___vfprintf_internal_r+0x138>
     b94:	d8801e17 	ldw	r2,120(sp)
     b98:	10000426 	beq	r2,zero,bac <___vfprintf_internal_r+0x37c>
     b9c:	d9000517 	ldw	r4,20(sp)
     ba0:	d9801c04 	addi	r6,sp,112
     ba4:	980b883a 	mov	r5,r19
     ba8:	0007b8c0 	call	7b8c <__sprint_r>
     bac:	9880030b 	ldhu	r2,12(r19)
     bb0:	1080100c 	andi	r2,r2,64
     bb4:	1007361e 	bne	r2,zero,2890 <___vfprintf_internal_r+0x2060>
     bb8:	d8800417 	ldw	r2,16(sp)
     bbc:	dfc04217 	ldw	ra,264(sp)
     bc0:	df004117 	ldw	fp,260(sp)
     bc4:	ddc04017 	ldw	r23,256(sp)
     bc8:	dd803f17 	ldw	r22,252(sp)
     bcc:	dd403e17 	ldw	r21,248(sp)
     bd0:	dd003d17 	ldw	r20,244(sp)
     bd4:	dcc03c17 	ldw	r19,240(sp)
     bd8:	dc803b17 	ldw	r18,236(sp)
     bdc:	dc403a17 	ldw	r17,232(sp)
     be0:	dc003917 	ldw	r16,228(sp)
     be4:	dec04304 	addi	sp,sp,268
     be8:	f800283a 	ret
     bec:	0021883a 	mov	r16,zero
     bf0:	e0fff404 	addi	r3,fp,-48
     bf4:	800490ba 	slli	r2,r16,2
     bf8:	b5800044 	addi	r22,r22,1
     bfc:	b73fffc7 	ldb	fp,-1(r22)
     c00:	1421883a 	add	r16,r2,r16
     c04:	8421883a 	add	r16,r16,r16
     c08:	1c21883a 	add	r16,r3,r16
     c0c:	e0fff404 	addi	r3,fp,-48
     c10:	188002b0 	cmpltui	r2,r3,10
     c14:	103ff71e 	bne	r2,zero,bf4 <___vfprintf_internal_r+0x3c4>
     c18:	e0bff804 	addi	r2,fp,-32
     c1c:	10c01668 	cmpgeui	r3,r2,89
     c20:	183f6326 	beq	r3,zero,9b0 <___vfprintf_internal_r+0x180>
     c24:	21003fcc 	andi	r4,r4,255
     c28:	2006741e 	bne	r4,zero,25fc <___vfprintf_internal_r+0x1dcc>
     c2c:	e03fd926 	beq	fp,zero,b94 <___vfprintf_internal_r+0x364>
     c30:	df001f05 	stb	fp,124(sp)
     c34:	d8001545 	stb	zero,85(sp)
     c38:	05400044 	movi	r21,1
     c3c:	05000044 	movi	r20,1
     c40:	dc401f04 	addi	r17,sp,124
     c44:	00009706 	br	ea4 <___vfprintf_internal_r+0x674>
     c48:	63002014 	ori	r12,r12,128
     c4c:	b2800007 	ldb	r10,0(r22)
     c50:	003f5206 	br	99c <___vfprintf_internal_r+0x16c>
     c54:	b7000007 	ldb	fp,0(r22)
     c58:	b0800044 	addi	r2,r22,1
     c5c:	e0c00aa0 	cmpeqi	r3,fp,42
     c60:	1807491e 	bne	r3,zero,2988 <___vfprintf_internal_r+0x2158>
     c64:	e0fff404 	addi	r3,fp,-48
     c68:	198002b0 	cmpltui	r6,r3,10
     c6c:	102d883a 	mov	r22,r2
     c70:	0017883a 	mov	r11,zero
     c74:	303f4b26 	beq	r6,zero,9a4 <___vfprintf_internal_r+0x174>
     c78:	580490ba 	slli	r2,r11,2
     c7c:	b5800044 	addi	r22,r22,1
     c80:	b73fffc7 	ldb	fp,-1(r22)
     c84:	12d7883a 	add	r11,r2,r11
     c88:	5ad7883a 	add	r11,r11,r11
     c8c:	58d7883a 	add	r11,r11,r3
     c90:	e0fff404 	addi	r3,fp,-48
     c94:	188002b0 	cmpltui	r2,r3,10
     c98:	103ff71e 	bne	r2,zero,c78 <___vfprintf_internal_r+0x448>
     c9c:	003f4106 	br	9a4 <___vfprintf_internal_r+0x174>
     ca0:	b7000003 	ldbu	fp,0(r22)
     ca4:	e2803fcc 	andi	r10,fp,255
     ca8:	5280201c 	xori	r10,r10,128
     cac:	63000114 	ori	r12,r12,4
     cb0:	52bfe004 	addi	r10,r10,-128
     cb4:	003f3906 	br	99c <___vfprintf_internal_r+0x16c>
     cb8:	01000044 	movi	r4,1
     cbc:	01400ac4 	movi	r5,43
     cc0:	b2800007 	ldb	r10,0(r22)
     cc4:	003f3506 	br	99c <___vfprintf_internal_r+0x16c>
     cc8:	d8800617 	ldw	r2,24(sp)
     ccc:	b7000003 	ldbu	fp,0(r22)
     cd0:	14000017 	ldw	r16,0(r2)
     cd4:	10800104 	addi	r2,r2,4
     cd8:	8004da16 	blt	r16,zero,2044 <___vfprintf_internal_r+0x1814>
     cdc:	d8800615 	stw	r2,24(sp)
     ce0:	e2803fcc 	andi	r10,fp,255
     ce4:	5280201c 	xori	r10,r10,128
     ce8:	52bfe004 	addi	r10,r10,-128
     cec:	003f2b06 	br	99c <___vfprintf_internal_r+0x16c>
     cf0:	63000054 	ori	r12,r12,1
     cf4:	b2800007 	ldb	r10,0(r22)
     cf8:	003f2806 	br	99c <___vfprintf_internal_r+0x16c>
     cfc:	28803fcc 	andi	r2,r5,255
     d00:	1080201c 	xori	r2,r2,128
     d04:	10bfe004 	addi	r2,r2,-128
     d08:	b7000003 	ldbu	fp,0(r22)
     d0c:	103ff41e 	bne	r2,zero,ce0 <___vfprintf_internal_r+0x4b0>
     d10:	e2803fcc 	andi	r10,fp,255
     d14:	5280201c 	xori	r10,r10,128
     d18:	01000044 	movi	r4,1
     d1c:	01400804 	movi	r5,32
     d20:	52bfe004 	addi	r10,r10,-128
     d24:	003f1d06 	br	99c <___vfprintf_internal_r+0x16c>
     d28:	21003fcc 	andi	r4,r4,255
     d2c:	2006b81e 	bne	r4,zero,2810 <___vfprintf_internal_r+0x1fe0>
     d30:	00800074 	movhi	r2,1
     d34:	10bd8a04 	addi	r2,r2,-2520
     d38:	d8800c15 	stw	r2,48(sp)
     d3c:	6080080c 	andi	r2,r12,32
     d40:	10017026 	beq	r2,zero,1304 <___vfprintf_internal_r+0xad4>
     d44:	d8800617 	ldw	r2,24(sp)
     d48:	15400017 	ldw	r21,0(r2)
     d4c:	15000117 	ldw	r20,4(r2)
     d50:	10800204 	addi	r2,r2,8
     d54:	d8800615 	stw	r2,24(sp)
     d58:	6080004c 	andi	r2,r12,1
     d5c:	10000226 	beq	r2,zero,d68 <___vfprintf_internal_r+0x538>
     d60:	ad04b03a 	or	r2,r21,r20
     d64:	1004aa1e 	bne	r2,zero,2010 <___vfprintf_internal_r+0x17e0>
     d68:	00800084 	movi	r2,2
     d6c:	00018f06 	br	13ac <___vfprintf_internal_r+0xb7c>
     d70:	21003fcc 	andi	r4,r4,255
     d74:	2006a41e 	bne	r4,zero,2808 <___vfprintf_internal_r+0x1fd8>
     d78:	6080080c 	andi	r2,r12,32
     d7c:	1001b41e 	bne	r2,zero,1450 <___vfprintf_internal_r+0xc20>
     d80:	d8800617 	ldw	r2,24(sp)
     d84:	60c0040c 	andi	r3,r12,16
     d88:	15400017 	ldw	r21,0(r2)
     d8c:	10800104 	addi	r2,r2,4
     d90:	18016e1e 	bne	r3,zero,134c <___vfprintf_internal_r+0xb1c>
     d94:	60c0100c 	andi	r3,r12,64
     d98:	1805a526 	beq	r3,zero,2430 <___vfprintf_internal_r+0x1c00>
     d9c:	d8800615 	stw	r2,24(sp)
     da0:	ad7fffcc 	andi	r21,r21,65535
     da4:	0029883a 	mov	r20,zero
     da8:	00800044 	movi	r2,1
     dac:	00017f06 	br	13ac <___vfprintf_internal_r+0xb7c>
     db0:	d8800617 	ldw	r2,24(sp)
     db4:	d8001545 	stb	zero,85(sp)
     db8:	14400017 	ldw	r17,0(r2)
     dbc:	14800104 	addi	r18,r2,4
     dc0:	8804ca26 	beq	r17,zero,20ec <___vfprintf_internal_r+0x18bc>
     dc4:	da000e15 	stw	r8,56(sp)
     dc8:	db000715 	stw	r12,28(sp)
     dcc:	58bfffe0 	cmpeqi	r2,r11,-1
     dd0:	10056c1e 	bne	r2,zero,2384 <___vfprintf_internal_r+0x1b54>
     dd4:	580d883a 	mov	r6,r11
     dd8:	000b883a 	mov	r5,zero
     ddc:	8809883a 	mov	r4,r17
     de0:	dac00615 	stw	r11,24(sp)
     de4:	0005f1c0 	call	5f1c <memchr>
     de8:	dac00617 	ldw	r11,24(sp)
     dec:	db000717 	ldw	r12,28(sp)
     df0:	da000e17 	ldw	r8,56(sp)
     df4:	10066c26 	beq	r2,zero,27a8 <___vfprintf_internal_r+0x1f78>
     df8:	1469c83a 	sub	r20,r2,r17
     dfc:	a02b883a 	mov	r21,r20
     e00:	a005fc16 	blt	r20,zero,25f4 <___vfprintf_internal_r+0x1dc4>
     e04:	dc800615 	stw	r18,24(sp)
     e08:	00002606 	br	ea4 <___vfprintf_internal_r+0x674>
     e0c:	21003fcc 	andi	r4,r4,255
     e10:	20067b1e 	bne	r4,zero,2800 <___vfprintf_internal_r+0x1fd0>
     e14:	6080080c 	andi	r2,r12,32
     e18:	10017f1e 	bne	r2,zero,1418 <___vfprintf_internal_r+0xbe8>
     e1c:	d8800617 	ldw	r2,24(sp)
     e20:	60c0040c 	andi	r3,r12,16
     e24:	10800104 	addi	r2,r2,4
     e28:	1801001e 	bne	r3,zero,122c <___vfprintf_internal_r+0x9fc>
     e2c:	60c0100c 	andi	r3,r12,64
     e30:	1800fe26 	beq	r3,zero,122c <___vfprintf_internal_r+0x9fc>
     e34:	d8c00617 	ldw	r3,24(sp)
     e38:	d8800615 	stw	r2,24(sp)
     e3c:	1d40000f 	ldh	r21,0(r3)
     e40:	a829d7fa 	srai	r20,r21,31
     e44:	a005883a 	mov	r2,r20
     e48:	1000fe16 	blt	r2,zero,1244 <___vfprintf_internal_r+0xa14>
     e4c:	58bfffd8 	cmpnei	r2,r11,-1
     e50:	db401543 	ldbu	r13,85(sp)
     e54:	10018526 	beq	r2,zero,146c <___vfprintf_internal_r+0xc3c>
     e58:	00ffdfc4 	movi	r3,-129
     e5c:	ad04b03a 	or	r2,r21,r20
     e60:	60d8703a 	and	r12,r12,r3
     e64:	1001811e 	bne	r2,zero,146c <___vfprintf_internal_r+0xc3c>
     e68:	5801831e 	bne	r11,zero,1478 <___vfprintf_internal_r+0xc48>
     e6c:	6025883a 	mov	r18,r12
     e70:	0017883a 	mov	r11,zero
     e74:	0029883a 	mov	r20,zero
     e78:	b823883a 	mov	r17,r23
     e7c:	00018306 	br	148c <___vfprintf_internal_r+0xc5c>
     e80:	d8c00617 	ldw	r3,24(sp)
     e84:	d8001545 	stb	zero,85(sp)
     e88:	05400044 	movi	r21,1
     e8c:	18800017 	ldw	r2,0(r3)
     e90:	18c00104 	addi	r3,r3,4
     e94:	d8c00615 	stw	r3,24(sp)
     e98:	d8801f05 	stb	r2,124(sp)
     e9c:	05000044 	movi	r20,1
     ea0:	dc401f04 	addi	r17,sp,124
     ea4:	6025883a 	mov	r18,r12
     ea8:	0017883a 	mov	r11,zero
     eac:	d8000715 	stw	zero,28(sp)
     eb0:	9380008c 	andi	r14,r18,2
     eb4:	70000126 	beq	r14,zero,ebc <___vfprintf_internal_r+0x68c>
     eb8:	ad400084 	addi	r21,r21,2
     ebc:	9340210c 	andi	r13,r18,132
     ec0:	d8c01e17 	ldw	r3,120(sp)
     ec4:	6800021e 	bne	r13,zero,ed0 <___vfprintf_internal_r+0x6a0>
     ec8:	854fc83a 	sub	r7,r16,r21
     ecc:	01c2ce16 	blt	zero,r7,1a08 <___vfprintf_internal_r+0x11d8>
     ed0:	d8801547 	ldb	r2,85(sp)
     ed4:	10000c26 	beq	r2,zero,f08 <___vfprintf_internal_r+0x6d8>
     ed8:	d8801d17 	ldw	r2,116(sp)
     edc:	d9001544 	addi	r4,sp,85
     ee0:	18c00044 	addi	r3,r3,1
     ee4:	10800044 	addi	r2,r2,1
     ee8:	41000015 	stw	r4,0(r8)
     eec:	01000044 	movi	r4,1
     ef0:	d8801d15 	stw	r2,116(sp)
     ef4:	41000115 	stw	r4,4(r8)
     ef8:	d8c01e15 	stw	r3,120(sp)
     efc:	10800208 	cmpgei	r2,r2,8
     f00:	1002fb1e 	bne	r2,zero,1af0 <___vfprintf_internal_r+0x12c0>
     f04:	42000204 	addi	r8,r8,8
     f08:	70000c26 	beq	r14,zero,f3c <___vfprintf_internal_r+0x70c>
     f0c:	d8801d17 	ldw	r2,116(sp)
     f10:	d9001584 	addi	r4,sp,86
     f14:	18c00084 	addi	r3,r3,2
     f18:	10800044 	addi	r2,r2,1
     f1c:	41000015 	stw	r4,0(r8)
     f20:	01000084 	movi	r4,2
     f24:	d8801d15 	stw	r2,116(sp)
     f28:	41000115 	stw	r4,4(r8)
     f2c:	d8c01e15 	stw	r3,120(sp)
     f30:	10800208 	cmpgei	r2,r2,8
     f34:	1002fc1e 	bne	r2,zero,1b28 <___vfprintf_internal_r+0x12f8>
     f38:	42000204 	addi	r8,r8,8
     f3c:	6b402018 	cmpnei	r13,r13,128
     f40:	6801cf26 	beq	r13,zero,1680 <___vfprintf_internal_r+0xe50>
     f44:	5d0fc83a 	sub	r7,r11,r20
     f48:	01c20616 	blt	zero,r7,1764 <___vfprintf_internal_r+0xf34>
     f4c:	9080400c 	andi	r2,r18,256
     f50:	10017c1e 	bne	r2,zero,1544 <___vfprintf_internal_r+0xd14>
     f54:	d8801d17 	ldw	r2,116(sp)
     f58:	1d07883a 	add	r3,r3,r20
     f5c:	44400015 	stw	r17,0(r8)
     f60:	10800044 	addi	r2,r2,1
     f64:	d8801d15 	stw	r2,116(sp)
     f68:	45000115 	stw	r20,4(r8)
     f6c:	d8c01e15 	stw	r3,120(sp)
     f70:	10800208 	cmpgei	r2,r2,8
     f74:	1002571e 	bne	r2,zero,18d4 <___vfprintf_internal_r+0x10a4>
     f78:	42000204 	addi	r8,r8,8
     f7c:	9480010c 	andi	r18,r18,4
     f80:	90000226 	beq	r18,zero,f8c <___vfprintf_internal_r+0x75c>
     f84:	8563c83a 	sub	r17,r16,r21
     f88:	04400916 	blt	zero,r17,fb0 <___vfprintf_internal_r+0x780>
     f8c:	8540010e 	bge	r16,r21,f94 <___vfprintf_internal_r+0x764>
     f90:	a821883a 	mov	r16,r21
     f94:	d8800417 	ldw	r2,16(sp)
     f98:	1405883a 	add	r2,r2,r16
     f9c:	d8800415 	stw	r2,16(sp)
     fa0:	1802241e 	bne	r3,zero,1834 <___vfprintf_internal_r+0x1004>
     fa4:	d8001d15 	stw	zero,116(sp)
     fa8:	b811883a 	mov	r8,r23
     fac:	003e5506 	br	904 <___vfprintf_internal_r+0xd4>
     fb0:	03000074 	movhi	r12,1
     fb4:	89000450 	cmplti	r4,r17,17
     fb8:	633d9584 	addi	r12,r12,-2474
     fbc:	d8801d17 	ldw	r2,116(sp)
     fc0:	20001c1e 	bne	r4,zero,1034 <___vfprintf_internal_r+0x804>
     fc4:	04800404 	movi	r18,16
     fc8:	dd000517 	ldw	r20,20(sp)
     fcc:	6039883a 	mov	fp,r12
     fd0:	00000406 	br	fe4 <___vfprintf_internal_r+0x7b4>
     fd4:	8c7ffc04 	addi	r17,r17,-16
     fd8:	89000448 	cmpgei	r4,r17,17
     fdc:	42000204 	addi	r8,r8,8
     fe0:	20001326 	beq	r4,zero,1030 <___vfprintf_internal_r+0x800>
     fe4:	10800044 	addi	r2,r2,1
     fe8:	18c00404 	addi	r3,r3,16
     fec:	47000015 	stw	fp,0(r8)
     ff0:	44800115 	stw	r18,4(r8)
     ff4:	d8c01e15 	stw	r3,120(sp)
     ff8:	d8801d15 	stw	r2,116(sp)
     ffc:	11000208 	cmpgei	r4,r2,8
    1000:	203ff426 	beq	r4,zero,fd4 <___vfprintf_internal_r+0x7a4>
    1004:	d9801c04 	addi	r6,sp,112
    1008:	980b883a 	mov	r5,r19
    100c:	a009883a 	mov	r4,r20
    1010:	0007b8c0 	call	7b8c <__sprint_r>
    1014:	103ee51e 	bne	r2,zero,bac <___vfprintf_internal_r+0x37c>
    1018:	8c7ffc04 	addi	r17,r17,-16
    101c:	89000448 	cmpgei	r4,r17,17
    1020:	d8c01e17 	ldw	r3,120(sp)
    1024:	d8801d17 	ldw	r2,116(sp)
    1028:	b811883a 	mov	r8,r23
    102c:	203fed1e 	bne	r4,zero,fe4 <___vfprintf_internal_r+0x7b4>
    1030:	e019883a 	mov	r12,fp
    1034:	10800044 	addi	r2,r2,1
    1038:	1c47883a 	add	r3,r3,r17
    103c:	d8801d15 	stw	r2,116(sp)
    1040:	43000015 	stw	r12,0(r8)
    1044:	44400115 	stw	r17,4(r8)
    1048:	d8c01e15 	stw	r3,120(sp)
    104c:	10800210 	cmplti	r2,r2,8
    1050:	103fce1e 	bne	r2,zero,f8c <___vfprintf_internal_r+0x75c>
    1054:	d9000517 	ldw	r4,20(sp)
    1058:	d9801c04 	addi	r6,sp,112
    105c:	980b883a 	mov	r5,r19
    1060:	0007b8c0 	call	7b8c <__sprint_r>
    1064:	103ed11e 	bne	r2,zero,bac <___vfprintf_internal_r+0x37c>
    1068:	d8c01e17 	ldw	r3,120(sp)
    106c:	003fc706 	br	f8c <___vfprintf_internal_r+0x75c>
    1070:	21003fcc 	andi	r4,r4,255
    1074:	2005de1e 	bne	r4,zero,27f0 <___vfprintf_internal_r+0x1fc0>
    1078:	6080080c 	andi	r2,r12,32
    107c:	1000ed1e 	bne	r2,zero,1434 <___vfprintf_internal_r+0xc04>
    1080:	d8800617 	ldw	r2,24(sp)
    1084:	60c0040c 	andi	r3,r12,16
    1088:	15400017 	ldw	r21,0(r2)
    108c:	10800104 	addi	r2,r2,4
    1090:	18001e1e 	bne	r3,zero,110c <___vfprintf_internal_r+0x8dc>
    1094:	60c0100c 	andi	r3,r12,64
    1098:	1804e126 	beq	r3,zero,2420 <___vfprintf_internal_r+0x1bf0>
    109c:	d8800615 	stw	r2,24(sp)
    10a0:	ad7fffcc 	andi	r21,r21,65535
    10a4:	0029883a 	mov	r20,zero
    10a8:	0005883a 	mov	r2,zero
    10ac:	0000bf06 	br	13ac <___vfprintf_internal_r+0xb7c>
    10b0:	21003fcc 	andi	r4,r4,255
    10b4:	2005d01e 	bne	r4,zero,27f8 <___vfprintf_internal_r+0x1fc8>
    10b8:	d9000617 	ldw	r4,24(sp)
    10bc:	6080080c 	andi	r2,r12,32
    10c0:	20c00104 	addi	r3,r4,4
    10c4:	1003d81e 	bne	r2,zero,2028 <___vfprintf_internal_r+0x17f8>
    10c8:	6080040c 	andi	r2,r12,16
    10cc:	1004321e 	bne	r2,zero,2198 <___vfprintf_internal_r+0x1968>
    10d0:	6300100c 	andi	r12,r12,64
    10d4:	60043026 	beq	r12,zero,2198 <___vfprintf_internal_r+0x1968>
    10d8:	d8800617 	ldw	r2,24(sp)
    10dc:	d8c00615 	stw	r3,24(sp)
    10e0:	d8c00417 	ldw	r3,16(sp)
    10e4:	10800017 	ldw	r2,0(r2)
    10e8:	10c0000d 	sth	r3,0(r2)
    10ec:	003e0506 	br	904 <___vfprintf_internal_r+0xd4>
    10f0:	21003fcc 	andi	r4,r4,255
    10f4:	2005c81e 	bne	r4,zero,2818 <___vfprintf_internal_r+0x1fe8>
    10f8:	6080080c 	andi	r2,r12,32
    10fc:	63000414 	ori	r12,r12,16
    1100:	1000cc1e 	bne	r2,zero,1434 <___vfprintf_internal_r+0xc04>
    1104:	d8800617 	ldw	r2,24(sp)
    1108:	10800104 	addi	r2,r2,4
    110c:	d8c00617 	ldw	r3,24(sp)
    1110:	0029883a 	mov	r20,zero
    1114:	d8800615 	stw	r2,24(sp)
    1118:	1d400017 	ldw	r21,0(r3)
    111c:	0005883a 	mov	r2,zero
    1120:	0000a206 	br	13ac <___vfprintf_internal_r+0xb7c>
    1124:	63000214 	ori	r12,r12,8
    1128:	b2800007 	ldb	r10,0(r22)
    112c:	003e1b06 	br	99c <___vfprintf_internal_r+0x16c>
    1130:	21003fcc 	andi	r4,r4,255
    1134:	2005bc1e 	bne	r4,zero,2828 <___vfprintf_internal_r+0x1ff8>
    1138:	d8c00617 	ldw	r3,24(sp)
    113c:	00a00034 	movhi	r2,32768
    1140:	10bfffc4 	addi	r2,r2,-1
    1144:	1d000117 	ldw	r20,4(r3)
    1148:	1c800017 	ldw	r18,0(r3)
    114c:	01dffc34 	movhi	r7,32752
    1150:	a0a2703a 	and	r17,r20,r2
    1154:	01bfffc4 	movi	r6,-1
    1158:	18800204 	addi	r2,r3,8
    115c:	39ffffc4 	addi	r7,r7,-1
    1160:	9009883a 	mov	r4,r18
    1164:	880b883a 	mov	r5,r17
    1168:	da000f15 	stw	r8,60(sp)
    116c:	dac00e15 	stw	r11,56(sp)
    1170:	db000715 	stw	r12,28(sp)
    1174:	dd000a15 	stw	r20,40(sp)
    1178:	dc800915 	stw	r18,36(sp)
    117c:	d8800615 	stw	r2,24(sp)
    1180:	000ccb40 	call	ccb4 <__unorddf2>
    1184:	db000717 	ldw	r12,28(sp)
    1188:	dac00e17 	ldw	r11,56(sp)
    118c:	da000f17 	ldw	r8,60(sp)
    1190:	1003191e 	bne	r2,zero,1df8 <___vfprintf_internal_r+0x15c8>
    1194:	01dffc34 	movhi	r7,32752
    1198:	01bfffc4 	movi	r6,-1
    119c:	39ffffc4 	addi	r7,r7,-1
    11a0:	9009883a 	mov	r4,r18
    11a4:	880b883a 	mov	r5,r17
    11a8:	000ba780 	call	ba78 <__ledf2>
    11ac:	db000717 	ldw	r12,28(sp)
    11b0:	dac00e17 	ldw	r11,56(sp)
    11b4:	da000f17 	ldw	r8,60(sp)
    11b8:	00830f0e 	bge	zero,r2,1df8 <___vfprintf_internal_r+0x15c8>
    11bc:	000d883a 	mov	r6,zero
    11c0:	000f883a 	mov	r7,zero
    11c4:	9009883a 	mov	r4,r18
    11c8:	a00b883a 	mov	r5,r20
    11cc:	da000e15 	stw	r8,56(sp)
    11d0:	000ba780 	call	ba78 <__ledf2>
    11d4:	db000717 	ldw	r12,28(sp)
    11d8:	da000e17 	ldw	r8,56(sp)
    11dc:	1004e716 	blt	r2,zero,257c <___vfprintf_internal_r+0x1d4c>
    11e0:	db401543 	ldbu	r13,85(sp)
    11e4:	e0801210 	cmplti	r2,fp,72
    11e8:	1004d11e 	bne	r2,zero,2530 <___vfprintf_internal_r+0x1d00>
    11ec:	04400074 	movhi	r17,1
    11f0:	8c7d8204 	addi	r17,r17,-2552
    11f4:	04bfdfc4 	movi	r18,-129
    11f8:	64a4703a 	and	r18,r12,r18
    11fc:	054000c4 	movi	r21,3
    1200:	050000c4 	movi	r20,3
    1204:	0017883a 	mov	r11,zero
    1208:	d8000715 	stw	zero,28(sp)
    120c:	0000a306 	br	149c <___vfprintf_internal_r+0xc6c>
    1210:	21003fcc 	andi	r4,r4,255
    1214:	2005821e 	bne	r4,zero,2820 <___vfprintf_internal_r+0x1ff0>
    1218:	6080080c 	andi	r2,r12,32
    121c:	63000414 	ori	r12,r12,16
    1220:	10007d1e 	bne	r2,zero,1418 <___vfprintf_internal_r+0xbe8>
    1224:	d8800617 	ldw	r2,24(sp)
    1228:	10800104 	addi	r2,r2,4
    122c:	d8c00617 	ldw	r3,24(sp)
    1230:	1d400017 	ldw	r21,0(r3)
    1234:	d8800615 	stw	r2,24(sp)
    1238:	a829d7fa 	srai	r20,r21,31
    123c:	a005883a 	mov	r2,r20
    1240:	103f020e 	bge	r2,zero,e4c <___vfprintf_internal_r+0x61c>
    1244:	056bc83a 	sub	r21,zero,r21
    1248:	a804c03a 	cmpne	r2,r21,zero
    124c:	0529c83a 	sub	r20,zero,r20
    1250:	a0a9c83a 	sub	r20,r20,r2
    1254:	00800b44 	movi	r2,45
    1258:	d8801545 	stb	r2,85(sp)
    125c:	58ffffe0 	cmpeqi	r3,r11,-1
    1260:	03400b44 	movi	r13,45
    1264:	00800044 	movi	r2,1
    1268:	18005426 	beq	r3,zero,13bc <___vfprintf_internal_r+0xb8c>
    126c:	10c00060 	cmpeqi	r3,r2,1
    1270:	18007e1e 	bne	r3,zero,146c <___vfprintf_internal_r+0xc3c>
    1274:	108000a0 	cmpeqi	r2,r2,2
    1278:	1002371e 	bne	r2,zero,1b58 <___vfprintf_internal_r+0x1328>
    127c:	b807883a 	mov	r3,r23
    1280:	00000106 	br	1288 <___vfprintf_internal_r+0xa58>
    1284:	8807883a 	mov	r3,r17
    1288:	a808d0fa 	srli	r4,r21,3
    128c:	a00a977a 	slli	r5,r20,29
    1290:	a028d0fa 	srli	r20,r20,3
    1294:	ad4001cc 	andi	r21,r21,7
    1298:	a8800c04 	addi	r2,r21,48
    129c:	292ab03a 	or	r21,r5,r4
    12a0:	18bfffc5 	stb	r2,-1(r3)
    12a4:	ad08b03a 	or	r4,r21,r20
    12a8:	1c7fffc4 	addi	r17,r3,-1
    12ac:	203ff51e 	bne	r4,zero,1284 <___vfprintf_internal_r+0xa54>
    12b0:	6100004c 	andi	r4,r12,1
    12b4:	2000a026 	beq	r4,zero,1538 <___vfprintf_internal_r+0xd08>
    12b8:	10803fcc 	andi	r2,r2,255
    12bc:	1080201c 	xori	r2,r2,128
    12c0:	10bfe004 	addi	r2,r2,-128
    12c4:	10800c18 	cmpnei	r2,r2,48
    12c8:	10009b26 	beq	r2,zero,1538 <___vfprintf_internal_r+0xd08>
    12cc:	18ffff84 	addi	r3,r3,-2
    12d0:	00800c04 	movi	r2,48
    12d4:	88bfffc5 	stb	r2,-1(r17)
    12d8:	b8e9c83a 	sub	r20,r23,r3
    12dc:	6025883a 	mov	r18,r12
    12e0:	1823883a 	mov	r17,r3
    12e4:	00006906 	br	148c <___vfprintf_internal_r+0xc5c>
    12e8:	21003fcc 	andi	r4,r4,255
    12ec:	20053e1e 	bne	r4,zero,27e8 <___vfprintf_internal_r+0x1fb8>
    12f0:	00800074 	movhi	r2,1
    12f4:	10bd8504 	addi	r2,r2,-2540
    12f8:	d8800c15 	stw	r2,48(sp)
    12fc:	6080080c 	andi	r2,r12,32
    1300:	103e901e 	bne	r2,zero,d44 <___vfprintf_internal_r+0x514>
    1304:	d8c00617 	ldw	r3,24(sp)
    1308:	6080040c 	andi	r2,r12,16
    130c:	1d400017 	ldw	r21,0(r3)
    1310:	18c00104 	addi	r3,r3,4
    1314:	d8c00615 	stw	r3,24(sp)
    1318:	1002b11e 	bne	r2,zero,1de0 <___vfprintf_internal_r+0x15b0>
    131c:	6080100c 	andi	r2,r12,64
    1320:	1002af26 	beq	r2,zero,1de0 <___vfprintf_internal_r+0x15b0>
    1324:	ad7fffcc 	andi	r21,r21,65535
    1328:	0029883a 	mov	r20,zero
    132c:	003e8a06 	br	d58 <___vfprintf_internal_r+0x528>
    1330:	21003fcc 	andi	r4,r4,255
    1334:	20053e1e 	bne	r4,zero,2830 <___vfprintf_internal_r+0x2000>
    1338:	6080080c 	andi	r2,r12,32
    133c:	63000414 	ori	r12,r12,16
    1340:	1000431e 	bne	r2,zero,1450 <___vfprintf_internal_r+0xc20>
    1344:	d8800617 	ldw	r2,24(sp)
    1348:	10800104 	addi	r2,r2,4
    134c:	d8c00617 	ldw	r3,24(sp)
    1350:	0029883a 	mov	r20,zero
    1354:	d8800615 	stw	r2,24(sp)
    1358:	1d400017 	ldw	r21,0(r3)
    135c:	00800044 	movi	r2,1
    1360:	00001206 	br	13ac <___vfprintf_internal_r+0xb7c>
    1364:	63000814 	ori	r12,r12,32
    1368:	b2800007 	ldb	r10,0(r22)
    136c:	003d8b06 	br	99c <___vfprintf_internal_r+0x16c>
    1370:	d8c00617 	ldw	r3,24(sp)
    1374:	00800c04 	movi	r2,48
    1378:	d8801585 	stb	r2,86(sp)
    137c:	00801e04 	movi	r2,120
    1380:	01000074 	movhi	r4,1
    1384:	d88015c5 	stb	r2,87(sp)
    1388:	1d400017 	ldw	r21,0(r3)
    138c:	18800104 	addi	r2,r3,4
    1390:	d8800615 	stw	r2,24(sp)
    1394:	20bd8a04 	addi	r2,r4,-2520
    1398:	d8800c15 	stw	r2,48(sp)
    139c:	0029883a 	mov	r20,zero
    13a0:	63000094 	ori	r12,r12,2
    13a4:	00800084 	movi	r2,2
    13a8:	07001e04 	movi	fp,120
    13ac:	d8001545 	stb	zero,85(sp)
    13b0:	58ffffe0 	cmpeqi	r3,r11,-1
    13b4:	001b883a 	mov	r13,zero
    13b8:	183fac1e 	bne	r3,zero,126c <___vfprintf_internal_r+0xa3c>
    13bc:	04bfdfc4 	movi	r18,-129
    13c0:	ad06b03a 	or	r3,r21,r20
    13c4:	64a4703a 	and	r18,r12,r18
    13c8:	18018d1e 	bne	r3,zero,1a00 <___vfprintf_internal_r+0x11d0>
    13cc:	5803bb1e 	bne	r11,zero,22bc <___vfprintf_internal_r+0x1a8c>
    13d0:	103ea71e 	bne	r2,zero,e70 <___vfprintf_internal_r+0x640>
    13d4:	6500004c 	andi	r20,r12,1
    13d8:	a0028526 	beq	r20,zero,1df0 <___vfprintf_internal_r+0x15c0>
    13dc:	00800c04 	movi	r2,48
    13e0:	d88028c5 	stb	r2,163(sp)
    13e4:	dc4028c4 	addi	r17,sp,163
    13e8:	00002806 	br	148c <___vfprintf_internal_r+0xc5c>
    13ec:	b2800007 	ldb	r10,0(r22)
    13f0:	50801b18 	cmpnei	r2,r10,108
    13f4:	10032c26 	beq	r2,zero,20a8 <___vfprintf_internal_r+0x1878>
    13f8:	63000414 	ori	r12,r12,16
    13fc:	003d6706 	br	99c <___vfprintf_internal_r+0x16c>
    1400:	63001014 	ori	r12,r12,64
    1404:	b2800007 	ldb	r10,0(r22)
    1408:	003d6406 	br	99c <___vfprintf_internal_r+0x16c>
    140c:	d9000517 	ldw	r4,20(sp)
    1410:	0004aa80 	call	4aa8 <__sinit>
    1414:	003d1f06 	br	894 <___vfprintf_internal_r+0x64>
    1418:	d8c00617 	ldw	r3,24(sp)
    141c:	18800117 	ldw	r2,4(r3)
    1420:	1d400017 	ldw	r21,0(r3)
    1424:	18c00204 	addi	r3,r3,8
    1428:	d8c00615 	stw	r3,24(sp)
    142c:	1029883a 	mov	r20,r2
    1430:	003e8506 	br	e48 <___vfprintf_internal_r+0x618>
    1434:	d8c00617 	ldw	r3,24(sp)
    1438:	0005883a 	mov	r2,zero
    143c:	1d400017 	ldw	r21,0(r3)
    1440:	1d000117 	ldw	r20,4(r3)
    1444:	18c00204 	addi	r3,r3,8
    1448:	d8c00615 	stw	r3,24(sp)
    144c:	003fd706 	br	13ac <___vfprintf_internal_r+0xb7c>
    1450:	d8c00617 	ldw	r3,24(sp)
    1454:	00800044 	movi	r2,1
    1458:	1d400017 	ldw	r21,0(r3)
    145c:	1d000117 	ldw	r20,4(r3)
    1460:	18c00204 	addi	r3,r3,8
    1464:	d8c00615 	stw	r3,24(sp)
    1468:	003fd006 	br	13ac <___vfprintf_internal_r+0xb7c>
    146c:	a000111e 	bne	r20,zero,14b4 <___vfprintf_internal_r+0xc84>
    1470:	a88002a8 	cmpgeui	r2,r21,10
    1474:	10000f1e 	bne	r2,zero,14b4 <___vfprintf_internal_r+0xc84>
    1478:	ad400c04 	addi	r21,r21,48
    147c:	dd4028c5 	stb	r21,163(sp)
    1480:	6025883a 	mov	r18,r12
    1484:	05000044 	movi	r20,1
    1488:	dc4028c4 	addi	r17,sp,163
    148c:	582b883a 	mov	r21,r11
    1490:	5d00010e 	bge	r11,r20,1498 <___vfprintf_internal_r+0xc68>
    1494:	a02b883a 	mov	r21,r20
    1498:	d8000715 	stw	zero,28(sp)
    149c:	6b403fcc 	andi	r13,r13,255
    14a0:	6b40201c 	xori	r13,r13,128
    14a4:	6b7fe004 	addi	r13,r13,-128
    14a8:	683e8126 	beq	r13,zero,eb0 <___vfprintf_internal_r+0x680>
    14ac:	ad400044 	addi	r21,r21,1
    14b0:	003e7f06 	br	eb0 <___vfprintf_internal_r+0x680>
    14b4:	dc000e15 	stw	r16,56(sp)
    14b8:	b823883a 	mov	r17,r23
    14bc:	a021883a 	mov	r16,r20
    14c0:	db000715 	stw	r12,28(sp)
    14c4:	9829883a 	mov	r20,r19
    14c8:	dac00f15 	stw	r11,60(sp)
    14cc:	4025883a 	mov	r18,r8
    14d0:	6827883a 	mov	r19,r13
    14d4:	00000206 	br	14e0 <___vfprintf_internal_r+0xcb0>
    14d8:	102b883a 	mov	r21,r2
    14dc:	1821883a 	mov	r16,r3
    14e0:	a809883a 	mov	r4,r21
    14e4:	800b883a 	mov	r5,r16
    14e8:	01800284 	movi	r6,10
    14ec:	000f883a 	mov	r7,zero
    14f0:	000a0140 	call	a014 <__umoddi3>
    14f4:	10800c04 	addi	r2,r2,48
    14f8:	8c7fffc4 	addi	r17,r17,-1
    14fc:	a809883a 	mov	r4,r21
    1500:	800b883a 	mov	r5,r16
    1504:	88800005 	stb	r2,0(r17)
    1508:	01800284 	movi	r6,10
    150c:	000f883a 	mov	r7,zero
    1510:	00099f80 	call	99f8 <__udivdi3>
    1514:	803ff01e 	bne	r16,zero,14d8 <___vfprintf_internal_r+0xca8>
    1518:	ad4002a8 	cmpgeui	r21,r21,10
    151c:	a83fee1e 	bne	r21,zero,14d8 <___vfprintf_internal_r+0xca8>
    1520:	db000717 	ldw	r12,28(sp)
    1524:	dc000e17 	ldw	r16,56(sp)
    1528:	dac00f17 	ldw	r11,60(sp)
    152c:	981b883a 	mov	r13,r19
    1530:	9011883a 	mov	r8,r18
    1534:	a027883a 	mov	r19,r20
    1538:	bc69c83a 	sub	r20,r23,r17
    153c:	6025883a 	mov	r18,r12
    1540:	003fd206 	br	148c <___vfprintf_internal_r+0xc5c>
    1544:	e2801990 	cmplti	r10,fp,102
    1548:	5000ea1e 	bne	r10,zero,18f4 <___vfprintf_internal_r+0x10c4>
    154c:	d9000917 	ldw	r4,36(sp)
    1550:	d9400a17 	ldw	r5,40(sp)
    1554:	000d883a 	mov	r6,zero
    1558:	000f883a 	mov	r7,zero
    155c:	da000f15 	stw	r8,60(sp)
    1560:	d8c00e15 	stw	r3,56(sp)
    1564:	000b9080 	call	b908 <__eqdf2>
    1568:	d8c00e17 	ldw	r3,56(sp)
    156c:	da000f17 	ldw	r8,60(sp)
    1570:	1001891e 	bne	r2,zero,1b98 <___vfprintf_internal_r+0x1368>
    1574:	d8801d17 	ldw	r2,116(sp)
    1578:	01000074 	movhi	r4,1
    157c:	213d9104 	addi	r4,r4,-2492
    1580:	10800044 	addi	r2,r2,1
    1584:	18c00044 	addi	r3,r3,1
    1588:	41000015 	stw	r4,0(r8)
    158c:	01000044 	movi	r4,1
    1590:	d8801d15 	stw	r2,116(sp)
    1594:	41000115 	stw	r4,4(r8)
    1598:	d8c01e15 	stw	r3,120(sp)
    159c:	10800208 	cmpgei	r2,r2,8
    15a0:	1003351e 	bne	r2,zero,2278 <___vfprintf_internal_r+0x1a48>
    15a4:	42000204 	addi	r8,r8,8
    15a8:	d8801617 	ldw	r2,88(sp)
    15ac:	d8c00817 	ldw	r3,32(sp)
    15b0:	10c00416 	blt	r2,r3,15c4 <___vfprintf_internal_r+0xd94>
    15b4:	9080004c 	andi	r2,r18,1
    15b8:	1000021e 	bne	r2,zero,15c4 <___vfprintf_internal_r+0xd94>
    15bc:	d8c01e17 	ldw	r3,120(sp)
    15c0:	003e6e06 	br	f7c <___vfprintf_internal_r+0x74c>
    15c4:	d8800d17 	ldw	r2,52(sp)
    15c8:	d8c01e17 	ldw	r3,120(sp)
    15cc:	d9000b17 	ldw	r4,44(sp)
    15d0:	40800015 	stw	r2,0(r8)
    15d4:	d8801d17 	ldw	r2,116(sp)
    15d8:	20c7883a 	add	r3,r4,r3
    15dc:	41000115 	stw	r4,4(r8)
    15e0:	10800044 	addi	r2,r2,1
    15e4:	d8801d15 	stw	r2,116(sp)
    15e8:	d8c01e15 	stw	r3,120(sp)
    15ec:	10800208 	cmpgei	r2,r2,8
    15f0:	1002b41e 	bne	r2,zero,20c4 <___vfprintf_internal_r+0x1894>
    15f4:	42000204 	addi	r8,r8,8
    15f8:	d8800817 	ldw	r2,32(sp)
    15fc:	147fffc4 	addi	r17,r2,-1
    1600:	047e5e0e 	bge	zero,r17,f7c <___vfprintf_internal_r+0x74c>
    1604:	03000074 	movhi	r12,1
    1608:	89000450 	cmplti	r4,r17,17
    160c:	633d9184 	addi	r12,r12,-2490
    1610:	d8801d17 	ldw	r2,116(sp)
    1614:	2003791e 	bne	r4,zero,23fc <___vfprintf_internal_r+0x1bcc>
    1618:	dc000715 	stw	r16,28(sp)
    161c:	05000404 	movi	r20,16
    1620:	df000517 	ldw	fp,20(sp)
    1624:	6021883a 	mov	r16,r12
    1628:	00000406 	br	163c <___vfprintf_internal_r+0xe0c>
    162c:	42000204 	addi	r8,r8,8
    1630:	8c7ffc04 	addi	r17,r17,-16
    1634:	89000448 	cmpgei	r4,r17,17
    1638:	20036e26 	beq	r4,zero,23f4 <___vfprintf_internal_r+0x1bc4>
    163c:	10800044 	addi	r2,r2,1
    1640:	18c00404 	addi	r3,r3,16
    1644:	44000015 	stw	r16,0(r8)
    1648:	45000115 	stw	r20,4(r8)
    164c:	d8c01e15 	stw	r3,120(sp)
    1650:	d8801d15 	stw	r2,116(sp)
    1654:	11000208 	cmpgei	r4,r2,8
    1658:	203ff426 	beq	r4,zero,162c <___vfprintf_internal_r+0xdfc>
    165c:	d9801c04 	addi	r6,sp,112
    1660:	980b883a 	mov	r5,r19
    1664:	e009883a 	mov	r4,fp
    1668:	0007b8c0 	call	7b8c <__sprint_r>
    166c:	103d4f1e 	bne	r2,zero,bac <___vfprintf_internal_r+0x37c>
    1670:	d8c01e17 	ldw	r3,120(sp)
    1674:	d8801d17 	ldw	r2,116(sp)
    1678:	b811883a 	mov	r8,r23
    167c:	003fec06 	br	1630 <___vfprintf_internal_r+0xe00>
    1680:	854fc83a 	sub	r7,r16,r21
    1684:	01fe2f0e 	bge	zero,r7,f44 <___vfprintf_internal_r+0x714>
    1688:	03000074 	movhi	r12,1
    168c:	39000450 	cmplti	r4,r7,17
    1690:	633d9184 	addi	r12,r12,-2490
    1694:	d8801d17 	ldw	r2,116(sp)
    1698:	2000271e 	bne	r4,zero,1738 <___vfprintf_internal_r+0xf08>
    169c:	dc400e15 	stw	r17,56(sp)
    16a0:	dc800f15 	stw	r18,60(sp)
    16a4:	dc001015 	stw	r16,64(sp)
    16a8:	03400404 	movi	r13,16
    16ac:	3821883a 	mov	r16,r7
    16b0:	dac01215 	stw	r11,72(sp)
    16b4:	dc400517 	ldw	r17,20(sp)
    16b8:	6025883a 	mov	r18,r12
    16bc:	00000406 	br	16d0 <___vfprintf_internal_r+0xea0>
    16c0:	843ffc04 	addi	r16,r16,-16
    16c4:	81000448 	cmpgei	r4,r16,17
    16c8:	42000204 	addi	r8,r8,8
    16cc:	20001426 	beq	r4,zero,1720 <___vfprintf_internal_r+0xef0>
    16d0:	10800044 	addi	r2,r2,1
    16d4:	18c00404 	addi	r3,r3,16
    16d8:	44800015 	stw	r18,0(r8)
    16dc:	43400115 	stw	r13,4(r8)
    16e0:	d8c01e15 	stw	r3,120(sp)
    16e4:	d8801d15 	stw	r2,116(sp)
    16e8:	11000208 	cmpgei	r4,r2,8
    16ec:	203ff426 	beq	r4,zero,16c0 <___vfprintf_internal_r+0xe90>
    16f0:	d9801c04 	addi	r6,sp,112
    16f4:	980b883a 	mov	r5,r19
    16f8:	8809883a 	mov	r4,r17
    16fc:	0007b8c0 	call	7b8c <__sprint_r>
    1700:	103d2a1e 	bne	r2,zero,bac <___vfprintf_internal_r+0x37c>
    1704:	843ffc04 	addi	r16,r16,-16
    1708:	81000448 	cmpgei	r4,r16,17
    170c:	d8c01e17 	ldw	r3,120(sp)
    1710:	d8801d17 	ldw	r2,116(sp)
    1714:	b811883a 	mov	r8,r23
    1718:	03400404 	movi	r13,16
    171c:	203fec1e 	bne	r4,zero,16d0 <___vfprintf_internal_r+0xea0>
    1720:	800f883a 	mov	r7,r16
    1724:	9019883a 	mov	r12,r18
    1728:	dc400e17 	ldw	r17,56(sp)
    172c:	dc001017 	ldw	r16,64(sp)
    1730:	dac01217 	ldw	r11,72(sp)
    1734:	dc800f17 	ldw	r18,60(sp)
    1738:	10800044 	addi	r2,r2,1
    173c:	19c7883a 	add	r3,r3,r7
    1740:	d8801d15 	stw	r2,116(sp)
    1744:	43000015 	stw	r12,0(r8)
    1748:	41c00115 	stw	r7,4(r8)
    174c:	d8c01e15 	stw	r3,120(sp)
    1750:	10800208 	cmpgei	r2,r2,8
    1754:	1002cf1e 	bne	r2,zero,2294 <___vfprintf_internal_r+0x1a64>
    1758:	5d0fc83a 	sub	r7,r11,r20
    175c:	42000204 	addi	r8,r8,8
    1760:	01fdfa0e 	bge	zero,r7,f4c <___vfprintf_internal_r+0x71c>
    1764:	03000074 	movhi	r12,1
    1768:	39000450 	cmplti	r4,r7,17
    176c:	633d9184 	addi	r12,r12,-2490
    1770:	d8801d17 	ldw	r2,116(sp)
    1774:	2000251e 	bne	r4,zero,180c <___vfprintf_internal_r+0xfdc>
    1778:	dc400e15 	stw	r17,56(sp)
    177c:	dc800f15 	stw	r18,60(sp)
    1780:	dc001015 	stw	r16,64(sp)
    1784:	02c00404 	movi	r11,16
    1788:	3821883a 	mov	r16,r7
    178c:	dc400517 	ldw	r17,20(sp)
    1790:	6025883a 	mov	r18,r12
    1794:	00000406 	br	17a8 <___vfprintf_internal_r+0xf78>
    1798:	843ffc04 	addi	r16,r16,-16
    179c:	81000448 	cmpgei	r4,r16,17
    17a0:	42000204 	addi	r8,r8,8
    17a4:	20001426 	beq	r4,zero,17f8 <___vfprintf_internal_r+0xfc8>
    17a8:	10800044 	addi	r2,r2,1
    17ac:	18c00404 	addi	r3,r3,16
    17b0:	44800015 	stw	r18,0(r8)
    17b4:	42c00115 	stw	r11,4(r8)
    17b8:	d8c01e15 	stw	r3,120(sp)
    17bc:	d8801d15 	stw	r2,116(sp)
    17c0:	11000208 	cmpgei	r4,r2,8
    17c4:	203ff426 	beq	r4,zero,1798 <___vfprintf_internal_r+0xf68>
    17c8:	d9801c04 	addi	r6,sp,112
    17cc:	980b883a 	mov	r5,r19
    17d0:	8809883a 	mov	r4,r17
    17d4:	0007b8c0 	call	7b8c <__sprint_r>
    17d8:	103cf41e 	bne	r2,zero,bac <___vfprintf_internal_r+0x37c>
    17dc:	843ffc04 	addi	r16,r16,-16
    17e0:	81000448 	cmpgei	r4,r16,17
    17e4:	d8c01e17 	ldw	r3,120(sp)
    17e8:	d8801d17 	ldw	r2,116(sp)
    17ec:	b811883a 	mov	r8,r23
    17f0:	02c00404 	movi	r11,16
    17f4:	203fec1e 	bne	r4,zero,17a8 <___vfprintf_internal_r+0xf78>
    17f8:	800f883a 	mov	r7,r16
    17fc:	9019883a 	mov	r12,r18
    1800:	dc400e17 	ldw	r17,56(sp)
    1804:	dc001017 	ldw	r16,64(sp)
    1808:	dc800f17 	ldw	r18,60(sp)
    180c:	10800044 	addi	r2,r2,1
    1810:	19c7883a 	add	r3,r3,r7
    1814:	d8801d15 	stw	r2,116(sp)
    1818:	43000015 	stw	r12,0(r8)
    181c:	41c00115 	stw	r7,4(r8)
    1820:	d8c01e15 	stw	r3,120(sp)
    1824:	10800208 	cmpgei	r2,r2,8
    1828:	1001651e 	bne	r2,zero,1dc0 <___vfprintf_internal_r+0x1590>
    182c:	42000204 	addi	r8,r8,8
    1830:	003dc606 	br	f4c <___vfprintf_internal_r+0x71c>
    1834:	d9000517 	ldw	r4,20(sp)
    1838:	d9801c04 	addi	r6,sp,112
    183c:	980b883a 	mov	r5,r19
    1840:	0007b8c0 	call	7b8c <__sprint_r>
    1844:	103dd726 	beq	r2,zero,fa4 <___vfprintf_internal_r+0x774>
    1848:	003cd806 	br	bac <___vfprintf_internal_r+0x37c>
    184c:	d9000517 	ldw	r4,20(sp)
    1850:	d9801c04 	addi	r6,sp,112
    1854:	980b883a 	mov	r5,r19
    1858:	0007b8c0 	call	7b8c <__sprint_r>
    185c:	103cd31e 	bne	r2,zero,bac <___vfprintf_internal_r+0x37c>
    1860:	d9001617 	ldw	r4,88(sp)
    1864:	d8c01e17 	ldw	r3,120(sp)
    1868:	b811883a 	mov	r8,r23
    186c:	2002971e 	bne	r4,zero,22cc <___vfprintf_internal_r+0x1a9c>
    1870:	d9000817 	ldw	r4,32(sp)
    1874:	9080004c 	andi	r2,r18,1
    1878:	1104b03a 	or	r2,r2,r4
    187c:	103dbf26 	beq	r2,zero,f7c <___vfprintf_internal_r+0x74c>
    1880:	d8800d17 	ldw	r2,52(sp)
    1884:	d9000b17 	ldw	r4,44(sp)
    1888:	40800015 	stw	r2,0(r8)
    188c:	d8801d17 	ldw	r2,116(sp)
    1890:	20c7883a 	add	r3,r4,r3
    1894:	41000115 	stw	r4,4(r8)
    1898:	10800044 	addi	r2,r2,1
    189c:	d8c01e15 	stw	r3,120(sp)
    18a0:	d8801d15 	stw	r2,116(sp)
    18a4:	11000208 	cmpgei	r4,r2,8
    18a8:	2003691e 	bne	r4,zero,2650 <___vfprintf_internal_r+0x1e20>
    18ac:	42000204 	addi	r8,r8,8
    18b0:	d9000817 	ldw	r4,32(sp)
    18b4:	10800044 	addi	r2,r2,1
    18b8:	d8801d15 	stw	r2,116(sp)
    18bc:	20c7883a 	add	r3,r4,r3
    18c0:	44400015 	stw	r17,0(r8)
    18c4:	41000115 	stw	r4,4(r8)
    18c8:	d8c01e15 	stw	r3,120(sp)
    18cc:	10800208 	cmpgei	r2,r2,8
    18d0:	103da926 	beq	r2,zero,f78 <___vfprintf_internal_r+0x748>
    18d4:	d9000517 	ldw	r4,20(sp)
    18d8:	d9801c04 	addi	r6,sp,112
    18dc:	980b883a 	mov	r5,r19
    18e0:	0007b8c0 	call	7b8c <__sprint_r>
    18e4:	103cb11e 	bne	r2,zero,bac <___vfprintf_internal_r+0x37c>
    18e8:	d8c01e17 	ldw	r3,120(sp)
    18ec:	b811883a 	mov	r8,r23
    18f0:	003da206 	br	f7c <___vfprintf_internal_r+0x74c>
    18f4:	d8800817 	ldw	r2,32(sp)
    18f8:	da801d17 	ldw	r10,116(sp)
    18fc:	18c00044 	addi	r3,r3,1
    1900:	10800088 	cmpgei	r2,r2,2
    1904:	55000044 	addi	r20,r10,1
    1908:	47000204 	addi	fp,r8,8
    190c:	1000fb26 	beq	r2,zero,1cfc <___vfprintf_internal_r+0x14cc>
    1910:	00800044 	movi	r2,1
    1914:	40800115 	stw	r2,4(r8)
    1918:	44400015 	stw	r17,0(r8)
    191c:	d8c01e15 	stw	r3,120(sp)
    1920:	dd001d15 	stw	r20,116(sp)
    1924:	a0800210 	cmplti	r2,r20,8
    1928:	10022e26 	beq	r2,zero,21e4 <___vfprintf_internal_r+0x19b4>
    192c:	d8800b17 	ldw	r2,44(sp)
    1930:	d9000d17 	ldw	r4,52(sp)
    1934:	a5000044 	addi	r20,r20,1
    1938:	1887883a 	add	r3,r3,r2
    193c:	e0800115 	stw	r2,4(fp)
    1940:	e1000015 	stw	r4,0(fp)
    1944:	d8c01e15 	stw	r3,120(sp)
    1948:	dd001d15 	stw	r20,116(sp)
    194c:	a0800208 	cmpgei	r2,r20,8
    1950:	10021b1e 	bne	r2,zero,21c0 <___vfprintf_internal_r+0x1990>
    1954:	e7000204 	addi	fp,fp,8
    1958:	d8800817 	ldw	r2,32(sp)
    195c:	d9000917 	ldw	r4,36(sp)
    1960:	d9400a17 	ldw	r5,40(sp)
    1964:	a2800044 	addi	r10,r20,1
    1968:	e2000204 	addi	r8,fp,8
    196c:	12ffffc4 	addi	r11,r2,-1
    1970:	000d883a 	mov	r6,zero
    1974:	000f883a 	mov	r7,zero
    1978:	d8c01215 	stw	r3,72(sp)
    197c:	da801015 	stw	r10,64(sp)
    1980:	da800f15 	stw	r10,60(sp)
    1984:	da000e15 	stw	r8,56(sp)
    1988:	dac00715 	stw	r11,28(sp)
    198c:	000b9080 	call	b908 <__eqdf2>
    1990:	dac00717 	ldw	r11,28(sp)
    1994:	da000e17 	ldw	r8,56(sp)
    1998:	db400f17 	ldw	r13,60(sp)
    199c:	da801017 	ldw	r10,64(sp)
    19a0:	d8c01217 	ldw	r3,72(sp)
    19a4:	1000e126 	beq	r2,zero,1d2c <___vfprintf_internal_r+0x14fc>
    19a8:	8c400044 	addi	r17,r17,1
    19ac:	1ac7883a 	add	r3,r3,r11
    19b0:	da801d15 	stw	r10,116(sp)
    19b4:	e4400015 	stw	r17,0(fp)
    19b8:	e2c00115 	stw	r11,4(fp)
    19bc:	d8c01e15 	stw	r3,120(sp)
    19c0:	52800208 	cmpgei	r10,r10,8
    19c4:	5001ad1e 	bne	r10,zero,207c <___vfprintf_internal_r+0x184c>
    19c8:	e0800404 	addi	r2,fp,16
    19cc:	a2800084 	addi	r10,r20,2
    19d0:	4039883a 	mov	fp,r8
    19d4:	1011883a 	mov	r8,r2
    19d8:	d9001117 	ldw	r4,68(sp)
    19dc:	d8801844 	addi	r2,sp,97
    19e0:	da801d15 	stw	r10,116(sp)
    19e4:	20c7883a 	add	r3,r4,r3
    19e8:	e0800015 	stw	r2,0(fp)
    19ec:	e1000115 	stw	r4,4(fp)
    19f0:	d8c01e15 	stw	r3,120(sp)
    19f4:	52800210 	cmplti	r10,r10,8
    19f8:	503d601e 	bne	r10,zero,f7c <___vfprintf_internal_r+0x74c>
    19fc:	003fb506 	br	18d4 <___vfprintf_internal_r+0x10a4>
    1a00:	9019883a 	mov	r12,r18
    1a04:	003e1906 	br	126c <___vfprintf_internal_r+0xa3c>
    1a08:	03000074 	movhi	r12,1
    1a0c:	39000450 	cmplti	r4,r7,17
    1a10:	633d9584 	addi	r12,r12,-2474
    1a14:	d8801d17 	ldw	r2,116(sp)
    1a18:	20002b1e 	bne	r4,zero,1ac8 <___vfprintf_internal_r+0x1298>
    1a1c:	dc401015 	stw	r17,64(sp)
    1a20:	dc801215 	stw	r18,72(sp)
    1a24:	dc001315 	stw	r16,76(sp)
    1a28:	03c00404 	movi	r15,16
    1a2c:	db800e15 	stw	r14,56(sp)
    1a30:	db400f15 	stw	r13,60(sp)
    1a34:	dac01415 	stw	r11,80(sp)
    1a38:	3821883a 	mov	r16,r7
    1a3c:	dc400517 	ldw	r17,20(sp)
    1a40:	6025883a 	mov	r18,r12
    1a44:	00000406 	br	1a58 <___vfprintf_internal_r+0x1228>
    1a48:	843ffc04 	addi	r16,r16,-16
    1a4c:	81000448 	cmpgei	r4,r16,17
    1a50:	42000204 	addi	r8,r8,8
    1a54:	20001426 	beq	r4,zero,1aa8 <___vfprintf_internal_r+0x1278>
    1a58:	10800044 	addi	r2,r2,1
    1a5c:	18c00404 	addi	r3,r3,16
    1a60:	44800015 	stw	r18,0(r8)
    1a64:	43c00115 	stw	r15,4(r8)
    1a68:	d8c01e15 	stw	r3,120(sp)
    1a6c:	d8801d15 	stw	r2,116(sp)
    1a70:	11000208 	cmpgei	r4,r2,8
    1a74:	203ff426 	beq	r4,zero,1a48 <___vfprintf_internal_r+0x1218>
    1a78:	d9801c04 	addi	r6,sp,112
    1a7c:	980b883a 	mov	r5,r19
    1a80:	8809883a 	mov	r4,r17
    1a84:	0007b8c0 	call	7b8c <__sprint_r>
    1a88:	103c481e 	bne	r2,zero,bac <___vfprintf_internal_r+0x37c>
    1a8c:	843ffc04 	addi	r16,r16,-16
    1a90:	81000448 	cmpgei	r4,r16,17
    1a94:	d8c01e17 	ldw	r3,120(sp)
    1a98:	d8801d17 	ldw	r2,116(sp)
    1a9c:	b811883a 	mov	r8,r23
    1aa0:	03c00404 	movi	r15,16
    1aa4:	203fec1e 	bne	r4,zero,1a58 <___vfprintf_internal_r+0x1228>
    1aa8:	800f883a 	mov	r7,r16
    1aac:	9019883a 	mov	r12,r18
    1ab0:	db800e17 	ldw	r14,56(sp)
    1ab4:	db400f17 	ldw	r13,60(sp)
    1ab8:	dc401017 	ldw	r17,64(sp)
    1abc:	dac01417 	ldw	r11,80(sp)
    1ac0:	dc001317 	ldw	r16,76(sp)
    1ac4:	dc801217 	ldw	r18,72(sp)
    1ac8:	10800044 	addi	r2,r2,1
    1acc:	19c7883a 	add	r3,r3,r7
    1ad0:	d8801d15 	stw	r2,116(sp)
    1ad4:	43000015 	stw	r12,0(r8)
    1ad8:	41c00115 	stw	r7,4(r8)
    1adc:	d8c01e15 	stw	r3,120(sp)
    1ae0:	10800208 	cmpgei	r2,r2,8
    1ae4:	1001d61e 	bne	r2,zero,2240 <___vfprintf_internal_r+0x1a10>
    1ae8:	42000204 	addi	r8,r8,8
    1aec:	003cf806 	br	ed0 <___vfprintf_internal_r+0x6a0>
    1af0:	d9000517 	ldw	r4,20(sp)
    1af4:	d9801c04 	addi	r6,sp,112
    1af8:	980b883a 	mov	r5,r19
    1afc:	dac01015 	stw	r11,64(sp)
    1b00:	db400f15 	stw	r13,60(sp)
    1b04:	db800e15 	stw	r14,56(sp)
    1b08:	0007b8c0 	call	7b8c <__sprint_r>
    1b0c:	103c271e 	bne	r2,zero,bac <___vfprintf_internal_r+0x37c>
    1b10:	d8c01e17 	ldw	r3,120(sp)
    1b14:	b811883a 	mov	r8,r23
    1b18:	dac01017 	ldw	r11,64(sp)
    1b1c:	db400f17 	ldw	r13,60(sp)
    1b20:	db800e17 	ldw	r14,56(sp)
    1b24:	003cf806 	br	f08 <___vfprintf_internal_r+0x6d8>
    1b28:	d9000517 	ldw	r4,20(sp)
    1b2c:	d9801c04 	addi	r6,sp,112
    1b30:	980b883a 	mov	r5,r19
    1b34:	dac00f15 	stw	r11,60(sp)
    1b38:	db400e15 	stw	r13,56(sp)
    1b3c:	0007b8c0 	call	7b8c <__sprint_r>
    1b40:	103c1a1e 	bne	r2,zero,bac <___vfprintf_internal_r+0x37c>
    1b44:	d8c01e17 	ldw	r3,120(sp)
    1b48:	b811883a 	mov	r8,r23
    1b4c:	dac00f17 	ldw	r11,60(sp)
    1b50:	db400e17 	ldw	r13,56(sp)
    1b54:	003cf906 	br	f3c <___vfprintf_internal_r+0x70c>
    1b58:	d9000c17 	ldw	r4,48(sp)
    1b5c:	b823883a 	mov	r17,r23
    1b60:	a88003cc 	andi	r2,r21,15
    1b64:	a006973a 	slli	r3,r20,28
    1b68:	2085883a 	add	r2,r4,r2
    1b6c:	a82ad13a 	srli	r21,r21,4
    1b70:	10800003 	ldbu	r2,0(r2)
    1b74:	a028d13a 	srli	r20,r20,4
    1b78:	8c7fffc4 	addi	r17,r17,-1
    1b7c:	1d6ab03a 	or	r21,r3,r21
    1b80:	88800005 	stb	r2,0(r17)
    1b84:	ad04b03a 	or	r2,r21,r20
    1b88:	103ff51e 	bne	r2,zero,1b60 <___vfprintf_internal_r+0x1330>
    1b8c:	bc69c83a 	sub	r20,r23,r17
    1b90:	6025883a 	mov	r18,r12
    1b94:	003e3d06 	br	148c <___vfprintf_internal_r+0xc5c>
    1b98:	d9001617 	ldw	r4,88(sp)
    1b9c:	01019a0e 	bge	zero,r4,2208 <___vfprintf_internal_r+0x19d8>
    1ba0:	d8800717 	ldw	r2,28(sp)
    1ba4:	d9000817 	ldw	r4,32(sp)
    1ba8:	1039883a 	mov	fp,r2
    1bac:	20812816 	blt	r4,r2,2050 <___vfprintf_internal_r+0x1820>
    1bb0:	07000a0e 	bge	zero,fp,1bdc <___vfprintf_internal_r+0x13ac>
    1bb4:	d8801d17 	ldw	r2,116(sp)
    1bb8:	1f07883a 	add	r3,r3,fp
    1bbc:	44400015 	stw	r17,0(r8)
    1bc0:	10800044 	addi	r2,r2,1
    1bc4:	d8801d15 	stw	r2,116(sp)
    1bc8:	47000115 	stw	fp,4(r8)
    1bcc:	d8c01e15 	stw	r3,120(sp)
    1bd0:	10800208 	cmpgei	r2,r2,8
    1bd4:	1002de1e 	bne	r2,zero,2750 <___vfprintf_internal_r+0x1f20>
    1bd8:	42000204 	addi	r8,r8,8
    1bdc:	e0014116 	blt	fp,zero,20e4 <___vfprintf_internal_r+0x18b4>
    1be0:	d8800717 	ldw	r2,28(sp)
    1be4:	1739c83a 	sub	fp,r2,fp
    1be8:	07014816 	blt	zero,fp,210c <___vfprintf_internal_r+0x18dc>
    1bec:	d9001617 	ldw	r4,88(sp)
    1bf0:	d8800817 	ldw	r2,32(sp)
    1bf4:	2081190e 	bge	r4,r2,205c <___vfprintf_internal_r+0x182c>
    1bf8:	d8800d17 	ldw	r2,52(sp)
    1bfc:	d9400b17 	ldw	r5,44(sp)
    1c00:	40800015 	stw	r2,0(r8)
    1c04:	d8801d17 	ldw	r2,116(sp)
    1c08:	1947883a 	add	r3,r3,r5
    1c0c:	41400115 	stw	r5,4(r8)
    1c10:	10800044 	addi	r2,r2,1
    1c14:	d8801d15 	stw	r2,116(sp)
    1c18:	d8c01e15 	stw	r3,120(sp)
    1c1c:	10800208 	cmpgei	r2,r2,8
    1c20:	1002651e 	bne	r2,zero,25b8 <___vfprintf_internal_r+0x1d88>
    1c24:	42000204 	addi	r8,r8,8
    1c28:	d8800817 	ldw	r2,32(sp)
    1c2c:	d9400717 	ldw	r5,28(sp)
    1c30:	1105c83a 	sub	r2,r2,r4
    1c34:	29015e0e 	bge	r5,r4,21b0 <___vfprintf_internal_r+0x1980>
    1c38:	1039883a 	mov	fp,r2
    1c3c:	07000c0e 	bge	zero,fp,1c70 <___vfprintf_internal_r+0x1440>
    1c40:	d9000717 	ldw	r4,28(sp)
    1c44:	1f07883a 	add	r3,r3,fp
    1c48:	47000115 	stw	fp,4(r8)
    1c4c:	8923883a 	add	r17,r17,r4
    1c50:	d9001d17 	ldw	r4,116(sp)
    1c54:	44400015 	stw	r17,0(r8)
    1c58:	d8c01e15 	stw	r3,120(sp)
    1c5c:	21000044 	addi	r4,r4,1
    1c60:	d9001d15 	stw	r4,116(sp)
    1c64:	21000208 	cmpgei	r4,r4,8
    1c68:	2002c41e 	bne	r4,zero,277c <___vfprintf_internal_r+0x1f4c>
    1c6c:	42000204 	addi	r8,r8,8
    1c70:	e000010e 	bge	fp,zero,1c78 <___vfprintf_internal_r+0x1448>
    1c74:	0039883a 	mov	fp,zero
    1c78:	1739c83a 	sub	fp,r2,fp
    1c7c:	073cbf0e 	bge	zero,fp,f7c <___vfprintf_internal_r+0x74c>
    1c80:	03000074 	movhi	r12,1
    1c84:	e1000450 	cmplti	r4,fp,17
    1c88:	633d9184 	addi	r12,r12,-2490
    1c8c:	d8801d17 	ldw	r2,116(sp)
    1c90:	2002401e 	bne	r4,zero,2594 <___vfprintf_internal_r+0x1d64>
    1c94:	dc000715 	stw	r16,28(sp)
    1c98:	05000404 	movi	r20,16
    1c9c:	dc400517 	ldw	r17,20(sp)
    1ca0:	6021883a 	mov	r16,r12
    1ca4:	00000406 	br	1cb8 <___vfprintf_internal_r+0x1488>
    1ca8:	42000204 	addi	r8,r8,8
    1cac:	e73ffc04 	addi	fp,fp,-16
    1cb0:	e1000448 	cmpgei	r4,fp,17
    1cb4:	20023526 	beq	r4,zero,258c <___vfprintf_internal_r+0x1d5c>
    1cb8:	10800044 	addi	r2,r2,1
    1cbc:	18c00404 	addi	r3,r3,16
    1cc0:	44000015 	stw	r16,0(r8)
    1cc4:	45000115 	stw	r20,4(r8)
    1cc8:	d8c01e15 	stw	r3,120(sp)
    1ccc:	d8801d15 	stw	r2,116(sp)
    1cd0:	11000208 	cmpgei	r4,r2,8
    1cd4:	203ff426 	beq	r4,zero,1ca8 <___vfprintf_internal_r+0x1478>
    1cd8:	d9801c04 	addi	r6,sp,112
    1cdc:	980b883a 	mov	r5,r19
    1ce0:	8809883a 	mov	r4,r17
    1ce4:	0007b8c0 	call	7b8c <__sprint_r>
    1ce8:	103bb01e 	bne	r2,zero,bac <___vfprintf_internal_r+0x37c>
    1cec:	d8c01e17 	ldw	r3,120(sp)
    1cf0:	d8801d17 	ldw	r2,116(sp)
    1cf4:	b811883a 	mov	r8,r23
    1cf8:	003fec06 	br	1cac <___vfprintf_internal_r+0x147c>
    1cfc:	9080004c 	andi	r2,r18,1
    1d00:	103f031e 	bne	r2,zero,1910 <___vfprintf_internal_r+0x10e0>
    1d04:	00800044 	movi	r2,1
    1d08:	dd001d15 	stw	r20,116(sp)
    1d0c:	44400015 	stw	r17,0(r8)
    1d10:	40800115 	stw	r2,4(r8)
    1d14:	d8c01e15 	stw	r3,120(sp)
    1d18:	a5000208 	cmpgei	r20,r20,8
    1d1c:	a000d71e 	bne	r20,zero,207c <___vfprintf_internal_r+0x184c>
    1d20:	52800084 	addi	r10,r10,2
    1d24:	42000404 	addi	r8,r8,16
    1d28:	003f2b06 	br	19d8 <___vfprintf_internal_r+0x11a8>
    1d2c:	02ff2a0e 	bge	zero,r11,19d8 <___vfprintf_internal_r+0x11a8>
    1d30:	58800450 	cmplti	r2,r11,17
    1d34:	03000074 	movhi	r12,1
    1d38:	1002fe1e 	bne	r2,zero,2934 <___vfprintf_internal_r+0x2104>
    1d3c:	633d9184 	addi	r12,r12,-2490
    1d40:	dd400715 	stw	r21,28(sp)
    1d44:	dc800e15 	stw	r18,56(sp)
    1d48:	e005883a 	mov	r2,fp
    1d4c:	04400404 	movi	r17,16
    1d50:	b039883a 	mov	fp,r22
    1d54:	5825883a 	mov	r18,r11
    1d58:	802d883a 	mov	r22,r16
    1d5c:	602b883a 	mov	r21,r12
    1d60:	dc000517 	ldw	r16,20(sp)
    1d64:	6829883a 	mov	r20,r13
    1d68:	00000506 	br	1d80 <___vfprintf_internal_r+0x1550>
    1d6c:	10800204 	addi	r2,r2,8
    1d70:	94bffc04 	addi	r18,r18,-16
    1d74:	91000448 	cmpgei	r4,r18,17
    1d78:	20018a26 	beq	r4,zero,23a4 <___vfprintf_internal_r+0x1b74>
    1d7c:	a5000044 	addi	r20,r20,1
    1d80:	18c00404 	addi	r3,r3,16
    1d84:	15400015 	stw	r21,0(r2)
    1d88:	14400115 	stw	r17,4(r2)
    1d8c:	d8c01e15 	stw	r3,120(sp)
    1d90:	dd001d15 	stw	r20,116(sp)
    1d94:	a1000208 	cmpgei	r4,r20,8
    1d98:	203ff426 	beq	r4,zero,1d6c <___vfprintf_internal_r+0x153c>
    1d9c:	d9801c04 	addi	r6,sp,112
    1da0:	980b883a 	mov	r5,r19
    1da4:	8009883a 	mov	r4,r16
    1da8:	0007b8c0 	call	7b8c <__sprint_r>
    1dac:	103b7f1e 	bne	r2,zero,bac <___vfprintf_internal_r+0x37c>
    1db0:	dd001d17 	ldw	r20,116(sp)
    1db4:	d8c01e17 	ldw	r3,120(sp)
    1db8:	b805883a 	mov	r2,r23
    1dbc:	003fec06 	br	1d70 <___vfprintf_internal_r+0x1540>
    1dc0:	d9000517 	ldw	r4,20(sp)
    1dc4:	d9801c04 	addi	r6,sp,112
    1dc8:	980b883a 	mov	r5,r19
    1dcc:	0007b8c0 	call	7b8c <__sprint_r>
    1dd0:	103b761e 	bne	r2,zero,bac <___vfprintf_internal_r+0x37c>
    1dd4:	d8c01e17 	ldw	r3,120(sp)
    1dd8:	b811883a 	mov	r8,r23
    1ddc:	003c5b06 	br	f4c <___vfprintf_internal_r+0x71c>
    1de0:	0029883a 	mov	r20,zero
    1de4:	003bdc06 	br	d58 <___vfprintf_internal_r+0x528>
    1de8:	b023883a 	mov	r17,r22
    1dec:	003ae306 	br	97c <___vfprintf_internal_r+0x14c>
    1df0:	b823883a 	mov	r17,r23
    1df4:	003da506 	br	148c <___vfprintf_internal_r+0xc5c>
    1df8:	d9000917 	ldw	r4,36(sp)
    1dfc:	d9400a17 	ldw	r5,40(sp)
    1e00:	da000f15 	stw	r8,60(sp)
    1e04:	200d883a 	mov	r6,r4
    1e08:	280f883a 	mov	r7,r5
    1e0c:	dac00e15 	stw	r11,56(sp)
    1e10:	db000715 	stw	r12,28(sp)
    1e14:	000ccb40 	call	ccb4 <__unorddf2>
    1e18:	db000717 	ldw	r12,28(sp)
    1e1c:	dac00e17 	ldw	r11,56(sp)
    1e20:	da000f17 	ldw	r8,60(sp)
    1e24:	1002b21e 	bne	r2,zero,28f0 <___vfprintf_internal_r+0x20c0>
    1e28:	00fff7c4 	movi	r3,-33
    1e2c:	e0c6703a 	and	r3,fp,r3
    1e30:	58bfffe0 	cmpeqi	r2,r11,-1
    1e34:	d8c00715 	stw	r3,28(sp)
    1e38:	10024e1e 	bne	r2,zero,2774 <___vfprintf_internal_r+0x1f44>
    1e3c:	188011d8 	cmpnei	r2,r3,71
    1e40:	10020026 	beq	r2,zero,2644 <___vfprintf_internal_r+0x1e14>
    1e44:	d8800a17 	ldw	r2,40(sp)
    1e48:	64804014 	ori	r18,r12,256
    1e4c:	1001e316 	blt	r2,zero,25dc <___vfprintf_internal_r+0x1dac>
    1e50:	dd400a17 	ldw	r21,40(sp)
    1e54:	d8000e05 	stb	zero,56(sp)
    1e58:	e08019a0 	cmpeqi	r2,fp,102
    1e5c:	d8800f15 	stw	r2,60(sp)
    1e60:	1001771e 	bne	r2,zero,2440 <___vfprintf_internal_r+0x1c10>
    1e64:	e08011a0 	cmpeqi	r2,fp,70
    1e68:	1001751e 	bne	r2,zero,2440 <___vfprintf_internal_r+0x1c10>
    1e6c:	d8800717 	ldw	r2,28(sp)
    1e70:	da001215 	stw	r8,72(sp)
    1e74:	db001015 	stw	r12,64(sp)
    1e78:	10801158 	cmpnei	r2,r2,69
    1e7c:	10020726 	beq	r2,zero,269c <___vfprintf_internal_r+0x1e6c>
    1e80:	d8801a04 	addi	r2,sp,104
    1e84:	d8800315 	stw	r2,12(sp)
    1e88:	d9400917 	ldw	r5,36(sp)
    1e8c:	d8801704 	addi	r2,sp,92
    1e90:	d9000517 	ldw	r4,20(sp)
    1e94:	d8800215 	stw	r2,8(sp)
    1e98:	d8801604 	addi	r2,sp,88
    1e9c:	dac00015 	stw	r11,0(sp)
    1ea0:	d8800115 	stw	r2,4(sp)
    1ea4:	01c00084 	movi	r7,2
    1ea8:	a80d883a 	mov	r6,r21
    1eac:	dac00815 	stw	r11,32(sp)
    1eb0:	0002e240 	call	2e24 <_dtoa_r>
    1eb4:	dac00817 	ldw	r11,32(sp)
    1eb8:	1023883a 	mov	r17,r2
    1ebc:	e08019d8 	cmpnei	r2,fp,103
    1ec0:	db001017 	ldw	r12,64(sp)
    1ec4:	da001217 	ldw	r8,72(sp)
    1ec8:	5829883a 	mov	r20,r11
    1ecc:	1002051e 	bne	r2,zero,26e4 <___vfprintf_internal_r+0x1eb4>
    1ed0:	6080004c 	andi	r2,r12,1
    1ed4:	1002051e 	bne	r2,zero,26ec <___vfprintf_internal_r+0x1ebc>
    1ed8:	d8c01617 	ldw	r3,88(sp)
    1edc:	d8800717 	ldw	r2,28(sp)
    1ee0:	d8c00715 	stw	r3,28(sp)
    1ee4:	d8c01a17 	ldw	r3,104(sp)
    1ee8:	108011e0 	cmpeqi	r2,r2,71
    1eec:	1c47c83a 	sub	r3,r3,r17
    1ef0:	d8c00815 	stw	r3,32(sp)
    1ef4:	10000526 	beq	r2,zero,1f0c <___vfprintf_internal_r+0x16dc>
    1ef8:	d8c00717 	ldw	r3,28(sp)
    1efc:	18bfff50 	cmplti	r2,r3,-3
    1f00:	1000011e 	bne	r2,zero,1f08 <___vfprintf_internal_r+0x16d8>
    1f04:	58c2070e 	bge	r11,r3,2724 <___vfprintf_internal_r+0x1ef4>
    1f08:	e73fff84 	addi	fp,fp,-2
    1f0c:	d8800717 	ldw	r2,28(sp)
    1f10:	df001845 	stb	fp,97(sp)
    1f14:	153fffc4 	addi	r20,r2,-1
    1f18:	dd001615 	stw	r20,88(sp)
    1f1c:	a0027c16 	blt	r20,zero,2910 <___vfprintf_internal_r+0x20e0>
    1f20:	00800ac4 	movi	r2,43
    1f24:	d8801885 	stb	r2,98(sp)
    1f28:	a0800290 	cmplti	r2,r20,10
    1f2c:	10025b1e 	bne	r2,zero,289c <___vfprintf_internal_r+0x206c>
    1f30:	dc000f15 	stw	r16,60(sp)
    1f34:	dd401bc4 	addi	r21,sp,111
    1f38:	a021883a 	mov	r16,r20
    1f3c:	db000715 	stw	r12,28(sp)
    1f40:	9829883a 	mov	r20,r19
    1f44:	4027883a 	mov	r19,r8
    1f48:	00000206 	br	1f54 <___vfprintf_internal_r+0x1724>
    1f4c:	202b883a 	mov	r21,r4
    1f50:	1021883a 	mov	r16,r2
    1f54:	8009883a 	mov	r4,r16
    1f58:	01400284 	movi	r5,10
    1f5c:	000051c0 	call	51c <__modsi3>
    1f60:	10800c04 	addi	r2,r2,48
    1f64:	8009883a 	mov	r4,r16
    1f68:	a8bfffc5 	stb	r2,-1(r21)
    1f6c:	01400284 	movi	r5,10
    1f70:	000049c0 	call	49c <__divsi3>
    1f74:	80c01908 	cmpgei	r3,r16,100
    1f78:	a93fffc4 	addi	r4,r21,-1
    1f7c:	183ff31e 	bne	r3,zero,1f4c <___vfprintf_internal_r+0x171c>
    1f80:	10800c04 	addi	r2,r2,48
    1f84:	20bfffc5 	stb	r2,-1(r4)
    1f88:	a8ffff84 	addi	r3,r21,-2
    1f8c:	d9001bc4 	addi	r4,sp,111
    1f90:	9811883a 	mov	r8,r19
    1f94:	db000717 	ldw	r12,28(sp)
    1f98:	dc000f17 	ldw	r16,60(sp)
    1f9c:	a027883a 	mov	r19,r20
    1fa0:	1902762e 	bgeu	r3,r4,297c <___vfprintf_internal_r+0x214c>
    1fa4:	d90018c4 	addi	r4,sp,99
    1fa8:	00000106 	br	1fb0 <___vfprintf_internal_r+0x1780>
    1fac:	18800003 	ldbu	r2,0(r3)
    1fb0:	21000044 	addi	r4,r4,1
    1fb4:	20bfffc5 	stb	r2,-1(r4)
    1fb8:	18c00044 	addi	r3,r3,1
    1fbc:	d8801bc4 	addi	r2,sp,111
    1fc0:	18bffa1e 	bne	r3,r2,1fac <___vfprintf_internal_r+0x177c>
    1fc4:	d8801c44 	addi	r2,sp,113
    1fc8:	d8c018c4 	addi	r3,sp,99
    1fcc:	1545c83a 	sub	r2,r2,r21
    1fd0:	1885883a 	add	r2,r3,r2
    1fd4:	d8c01844 	addi	r3,sp,97
    1fd8:	10c5c83a 	sub	r2,r2,r3
    1fdc:	d8801115 	stw	r2,68(sp)
    1fe0:	d8c00817 	ldw	r3,32(sp)
    1fe4:	d9001117 	ldw	r4,68(sp)
    1fe8:	18800088 	cmpgei	r2,r3,2
    1fec:	1929883a 	add	r20,r3,r4
    1ff0:	10024c26 	beq	r2,zero,2924 <___vfprintf_internal_r+0x20f4>
    1ff4:	d8800b17 	ldw	r2,44(sp)
    1ff8:	a0a9883a 	add	r20,r20,r2
    1ffc:	a02b883a 	mov	r21,r20
    2000:	a000010e 	bge	r20,zero,2008 <___vfprintf_internal_r+0x17d8>
    2004:	002b883a 	mov	r21,zero
    2008:	d8000715 	stw	zero,28(sp)
    200c:	00014206 	br	2518 <___vfprintf_internal_r+0x1ce8>
    2010:	00800c04 	movi	r2,48
    2014:	d8801585 	stb	r2,86(sp)
    2018:	df0015c5 	stb	fp,87(sp)
    201c:	63000094 	ori	r12,r12,2
    2020:	00800084 	movi	r2,2
    2024:	003ce106 	br	13ac <___vfprintf_internal_r+0xb7c>
    2028:	d9400417 	ldw	r5,16(sp)
    202c:	20800017 	ldw	r2,0(r4)
    2030:	d8c00615 	stw	r3,24(sp)
    2034:	2809d7fa 	srai	r4,r5,31
    2038:	11400015 	stw	r5,0(r2)
    203c:	11000115 	stw	r4,4(r2)
    2040:	003a3006 	br	904 <___vfprintf_internal_r+0xd4>
    2044:	0421c83a 	sub	r16,zero,r16
    2048:	d8800615 	stw	r2,24(sp)
    204c:	003b1506 	br	ca4 <___vfprintf_internal_r+0x474>
    2050:	2039883a 	mov	fp,r4
    2054:	073ed716 	blt	zero,fp,1bb4 <___vfprintf_internal_r+0x1384>
    2058:	003ee006 	br	1bdc <___vfprintf_internal_r+0x13ac>
    205c:	9080004c 	andi	r2,r18,1
    2060:	103ee51e 	bne	r2,zero,1bf8 <___vfprintf_internal_r+0x13c8>
    2064:	d8800817 	ldw	r2,32(sp)
    2068:	d9400717 	ldw	r5,28(sp)
    206c:	1105c83a 	sub	r2,r2,r4
    2070:	29004f0e 	bge	r5,r4,21b0 <___vfprintf_internal_r+0x1980>
    2074:	1039883a 	mov	fp,r2
    2078:	003efd06 	br	1c70 <___vfprintf_internal_r+0x1440>
    207c:	d9000517 	ldw	r4,20(sp)
    2080:	d9801c04 	addi	r6,sp,112
    2084:	980b883a 	mov	r5,r19
    2088:	0007b8c0 	call	7b8c <__sprint_r>
    208c:	103ac71e 	bne	r2,zero,bac <___vfprintf_internal_r+0x37c>
    2090:	da801d17 	ldw	r10,116(sp)
    2094:	d8c01e17 	ldw	r3,120(sp)
    2098:	da002b04 	addi	r8,sp,172
    209c:	52800044 	addi	r10,r10,1
    20a0:	b839883a 	mov	fp,r23
    20a4:	003e4c06 	br	19d8 <___vfprintf_internal_r+0x11a8>
    20a8:	b7000043 	ldbu	fp,1(r22)
    20ac:	63000814 	ori	r12,r12,32
    20b0:	b5800044 	addi	r22,r22,1
    20b4:	e2803fcc 	andi	r10,fp,255
    20b8:	5280201c 	xori	r10,r10,128
    20bc:	52bfe004 	addi	r10,r10,-128
    20c0:	003a3606 	br	99c <___vfprintf_internal_r+0x16c>
    20c4:	d9000517 	ldw	r4,20(sp)
    20c8:	d9801c04 	addi	r6,sp,112
    20cc:	980b883a 	mov	r5,r19
    20d0:	0007b8c0 	call	7b8c <__sprint_r>
    20d4:	103ab51e 	bne	r2,zero,bac <___vfprintf_internal_r+0x37c>
    20d8:	d8c01e17 	ldw	r3,120(sp)
    20dc:	b811883a 	mov	r8,r23
    20e0:	003d4506 	br	15f8 <___vfprintf_internal_r+0xdc8>
    20e4:	0039883a 	mov	fp,zero
    20e8:	003ebd06 	br	1be0 <___vfprintf_internal_r+0x13b0>
    20ec:	588001f0 	cmpltui	r2,r11,7
    20f0:	5829883a 	mov	r20,r11
    20f4:	10013d26 	beq	r2,zero,25ec <___vfprintf_internal_r+0x1dbc>
    20f8:	04400074 	movhi	r17,1
    20fc:	a02b883a 	mov	r21,r20
    2100:	dc800615 	stw	r18,24(sp)
    2104:	8c7d8f04 	addi	r17,r17,-2500
    2108:	003b6606 	br	ea4 <___vfprintf_internal_r+0x674>
    210c:	03000074 	movhi	r12,1
    2110:	e1000450 	cmplti	r4,fp,17
    2114:	633d9184 	addi	r12,r12,-2490
    2118:	d8801d17 	ldw	r2,116(sp)
    211c:	20010d1e 	bne	r4,zero,2554 <___vfprintf_internal_r+0x1d24>
    2120:	dc400e15 	stw	r17,56(sp)
    2124:	dc800f15 	stw	r18,60(sp)
    2128:	e023883a 	mov	r17,fp
    212c:	05000404 	movi	r20,16
    2130:	b039883a 	mov	fp,r22
    2134:	6025883a 	mov	r18,r12
    2138:	802d883a 	mov	r22,r16
    213c:	dc000517 	ldw	r16,20(sp)
    2140:	00000406 	br	2154 <___vfprintf_internal_r+0x1924>
    2144:	42000204 	addi	r8,r8,8
    2148:	8c7ffc04 	addi	r17,r17,-16
    214c:	89000448 	cmpgei	r4,r17,17
    2150:	2000fa26 	beq	r4,zero,253c <___vfprintf_internal_r+0x1d0c>
    2154:	10800044 	addi	r2,r2,1
    2158:	18c00404 	addi	r3,r3,16
    215c:	44800015 	stw	r18,0(r8)
    2160:	45000115 	stw	r20,4(r8)
    2164:	d8c01e15 	stw	r3,120(sp)
    2168:	d8801d15 	stw	r2,116(sp)
    216c:	11000208 	cmpgei	r4,r2,8
    2170:	203ff426 	beq	r4,zero,2144 <___vfprintf_internal_r+0x1914>
    2174:	d9801c04 	addi	r6,sp,112
    2178:	980b883a 	mov	r5,r19
    217c:	8009883a 	mov	r4,r16
    2180:	0007b8c0 	call	7b8c <__sprint_r>
    2184:	103a891e 	bne	r2,zero,bac <___vfprintf_internal_r+0x37c>
    2188:	d8c01e17 	ldw	r3,120(sp)
    218c:	d8801d17 	ldw	r2,116(sp)
    2190:	b811883a 	mov	r8,r23
    2194:	003fec06 	br	2148 <___vfprintf_internal_r+0x1918>
    2198:	d8800617 	ldw	r2,24(sp)
    219c:	10800017 	ldw	r2,0(r2)
    21a0:	d8c00615 	stw	r3,24(sp)
    21a4:	d8c00417 	ldw	r3,16(sp)
    21a8:	10c00015 	stw	r3,0(r2)
    21ac:	0039d506 	br	904 <___vfprintf_internal_r+0xd4>
    21b0:	d9000817 	ldw	r4,32(sp)
    21b4:	d9400717 	ldw	r5,28(sp)
    21b8:	2179c83a 	sub	fp,r4,r5
    21bc:	003e9f06 	br	1c3c <___vfprintf_internal_r+0x140c>
    21c0:	d9000517 	ldw	r4,20(sp)
    21c4:	d9801c04 	addi	r6,sp,112
    21c8:	980b883a 	mov	r5,r19
    21cc:	0007b8c0 	call	7b8c <__sprint_r>
    21d0:	103a761e 	bne	r2,zero,bac <___vfprintf_internal_r+0x37c>
    21d4:	d8c01e17 	ldw	r3,120(sp)
    21d8:	dd001d17 	ldw	r20,116(sp)
    21dc:	b839883a 	mov	fp,r23
    21e0:	003ddd06 	br	1958 <___vfprintf_internal_r+0x1128>
    21e4:	d9000517 	ldw	r4,20(sp)
    21e8:	d9801c04 	addi	r6,sp,112
    21ec:	980b883a 	mov	r5,r19
    21f0:	0007b8c0 	call	7b8c <__sprint_r>
    21f4:	103a6d1e 	bne	r2,zero,bac <___vfprintf_internal_r+0x37c>
    21f8:	d8c01e17 	ldw	r3,120(sp)
    21fc:	dd001d17 	ldw	r20,116(sp)
    2200:	b839883a 	mov	fp,r23
    2204:	003dc906 	br	192c <___vfprintf_internal_r+0x10fc>
    2208:	d8801d17 	ldw	r2,116(sp)
    220c:	01400074 	movhi	r5,1
    2210:	297d9104 	addi	r5,r5,-2492
    2214:	10800044 	addi	r2,r2,1
    2218:	18c00044 	addi	r3,r3,1
    221c:	41400015 	stw	r5,0(r8)
    2220:	01400044 	movi	r5,1
    2224:	d8801d15 	stw	r2,116(sp)
    2228:	41400115 	stw	r5,4(r8)
    222c:	d8c01e15 	stw	r3,120(sp)
    2230:	10800208 	cmpgei	r2,r2,8
    2234:	103d851e 	bne	r2,zero,184c <___vfprintf_internal_r+0x101c>
    2238:	42000204 	addi	r8,r8,8
    223c:	003d8b06 	br	186c <___vfprintf_internal_r+0x103c>
    2240:	d9000517 	ldw	r4,20(sp)
    2244:	d9801c04 	addi	r6,sp,112
    2248:	980b883a 	mov	r5,r19
    224c:	dac01015 	stw	r11,64(sp)
    2250:	db400f15 	stw	r13,60(sp)
    2254:	db800e15 	stw	r14,56(sp)
    2258:	0007b8c0 	call	7b8c <__sprint_r>
    225c:	103a531e 	bne	r2,zero,bac <___vfprintf_internal_r+0x37c>
    2260:	d8c01e17 	ldw	r3,120(sp)
    2264:	b811883a 	mov	r8,r23
    2268:	dac01017 	ldw	r11,64(sp)
    226c:	db400f17 	ldw	r13,60(sp)
    2270:	db800e17 	ldw	r14,56(sp)
    2274:	003b1606 	br	ed0 <___vfprintf_internal_r+0x6a0>
    2278:	d9000517 	ldw	r4,20(sp)
    227c:	d9801c04 	addi	r6,sp,112
    2280:	980b883a 	mov	r5,r19
    2284:	0007b8c0 	call	7b8c <__sprint_r>
    2288:	103a481e 	bne	r2,zero,bac <___vfprintf_internal_r+0x37c>
    228c:	b811883a 	mov	r8,r23
    2290:	003cc506 	br	15a8 <___vfprintf_internal_r+0xd78>
    2294:	d9000517 	ldw	r4,20(sp)
    2298:	d9801c04 	addi	r6,sp,112
    229c:	980b883a 	mov	r5,r19
    22a0:	dac00e15 	stw	r11,56(sp)
    22a4:	0007b8c0 	call	7b8c <__sprint_r>
    22a8:	103a401e 	bne	r2,zero,bac <___vfprintf_internal_r+0x37c>
    22ac:	d8c01e17 	ldw	r3,120(sp)
    22b0:	b811883a 	mov	r8,r23
    22b4:	dac00e17 	ldw	r11,56(sp)
    22b8:	003b2206 	br	f44 <___vfprintf_internal_r+0x714>
    22bc:	10c00060 	cmpeqi	r3,r2,1
    22c0:	9019883a 	mov	r12,r18
    22c4:	183beb26 	beq	r3,zero,1274 <___vfprintf_internal_r+0xa44>
    22c8:	003c6b06 	br	1478 <___vfprintf_internal_r+0xc48>
    22cc:	d8800d17 	ldw	r2,52(sp)
    22d0:	d9400b17 	ldw	r5,44(sp)
    22d4:	40800015 	stw	r2,0(r8)
    22d8:	d8801d17 	ldw	r2,116(sp)
    22dc:	28c7883a 	add	r3,r5,r3
    22e0:	41400115 	stw	r5,4(r8)
    22e4:	10800044 	addi	r2,r2,1
    22e8:	d8c01e15 	stw	r3,120(sp)
    22ec:	d8801d15 	stw	r2,116(sp)
    22f0:	11400208 	cmpgei	r5,r2,8
    22f4:	2800d61e 	bne	r5,zero,2650 <___vfprintf_internal_r+0x1e20>
    22f8:	42000204 	addi	r8,r8,8
    22fc:	203d6c0e 	bge	r4,zero,18b0 <___vfprintf_internal_r+0x1080>
    2300:	03000074 	movhi	r12,1
    2304:	217ffc08 	cmpgei	r5,r4,-16
    2308:	633d9184 	addi	r12,r12,-2490
    230c:	0129c83a 	sub	r20,zero,r4
    2310:	28014e1e 	bne	r5,zero,284c <___vfprintf_internal_r+0x201c>
    2314:	8009883a 	mov	r4,r16
    2318:	dc400715 	stw	r17,28(sp)
    231c:	a021883a 	mov	r16,r20
    2320:	07000404 	movi	fp,16
    2324:	6023883a 	mov	r17,r12
    2328:	2029883a 	mov	r20,r4
    232c:	00000406 	br	2340 <___vfprintf_internal_r+0x1b10>
    2330:	42000204 	addi	r8,r8,8
    2334:	843ffc04 	addi	r16,r16,-16
    2338:	81000448 	cmpgei	r4,r16,17
    233c:	20013e26 	beq	r4,zero,2838 <___vfprintf_internal_r+0x2008>
    2340:	10800044 	addi	r2,r2,1
    2344:	18c00404 	addi	r3,r3,16
    2348:	44400015 	stw	r17,0(r8)
    234c:	47000115 	stw	fp,4(r8)
    2350:	d8c01e15 	stw	r3,120(sp)
    2354:	d8801d15 	stw	r2,116(sp)
    2358:	11000208 	cmpgei	r4,r2,8
    235c:	203ff426 	beq	r4,zero,2330 <___vfprintf_internal_r+0x1b00>
    2360:	d9000517 	ldw	r4,20(sp)
    2364:	d9801c04 	addi	r6,sp,112
    2368:	980b883a 	mov	r5,r19
    236c:	0007b8c0 	call	7b8c <__sprint_r>
    2370:	103a0e1e 	bne	r2,zero,bac <___vfprintf_internal_r+0x37c>
    2374:	d8c01e17 	ldw	r3,120(sp)
    2378:	d8801d17 	ldw	r2,116(sp)
    237c:	b811883a 	mov	r8,r23
    2380:	003fec06 	br	2334 <___vfprintf_internal_r+0x1b04>
    2384:	8809883a 	mov	r4,r17
    2388:	00007980 	call	798 <strlen>
    238c:	1029883a 	mov	r20,r2
    2390:	102b883a 	mov	r21,r2
    2394:	dc800615 	stw	r18,24(sp)
    2398:	db000717 	ldw	r12,28(sp)
    239c:	da000e17 	ldw	r8,56(sp)
    23a0:	003ac006 	br	ea4 <___vfprintf_internal_r+0x674>
    23a4:	9017883a 	mov	r11,r18
    23a8:	a819883a 	mov	r12,r21
    23ac:	dc800e17 	ldw	r18,56(sp)
    23b0:	dd400717 	ldw	r21,28(sp)
    23b4:	b021883a 	mov	r16,r22
    23b8:	a2800044 	addi	r10,r20,1
    23bc:	e02d883a 	mov	r22,fp
    23c0:	1039883a 	mov	fp,r2
    23c4:	10800204 	addi	r2,r2,8
    23c8:	1ac7883a 	add	r3,r3,r11
    23cc:	e3000015 	stw	r12,0(fp)
    23d0:	e2c00115 	stw	r11,4(fp)
    23d4:	d8c01e15 	stw	r3,120(sp)
    23d8:	da801d15 	stw	r10,116(sp)
    23dc:	51000208 	cmpgei	r4,r10,8
    23e0:	203f261e 	bne	r4,zero,207c <___vfprintf_internal_r+0x184c>
    23e4:	52800044 	addi	r10,r10,1
    23e8:	12000204 	addi	r8,r2,8
    23ec:	1039883a 	mov	fp,r2
    23f0:	003d7906 	br	19d8 <___vfprintf_internal_r+0x11a8>
    23f4:	8019883a 	mov	r12,r16
    23f8:	dc000717 	ldw	r16,28(sp)
    23fc:	10800044 	addi	r2,r2,1
    2400:	1c47883a 	add	r3,r3,r17
    2404:	d8801d15 	stw	r2,116(sp)
    2408:	43000015 	stw	r12,0(r8)
    240c:	44400115 	stw	r17,4(r8)
    2410:	d8c01e15 	stw	r3,120(sp)
    2414:	10800208 	cmpgei	r2,r2,8
    2418:	103ad726 	beq	r2,zero,f78 <___vfprintf_internal_r+0x748>
    241c:	003d2d06 	br	18d4 <___vfprintf_internal_r+0x10a4>
    2420:	d8800615 	stw	r2,24(sp)
    2424:	0029883a 	mov	r20,zero
    2428:	0005883a 	mov	r2,zero
    242c:	003bdf06 	br	13ac <___vfprintf_internal_r+0xb7c>
    2430:	d8800615 	stw	r2,24(sp)
    2434:	0029883a 	mov	r20,zero
    2438:	00800044 	movi	r2,1
    243c:	003bdb06 	br	13ac <___vfprintf_internal_r+0xb7c>
    2440:	d8801a04 	addi	r2,sp,104
    2444:	d8800315 	stw	r2,12(sp)
    2448:	d9400917 	ldw	r5,36(sp)
    244c:	d8801704 	addi	r2,sp,92
    2450:	d9000517 	ldw	r4,20(sp)
    2454:	d8800215 	stw	r2,8(sp)
    2458:	d8801604 	addi	r2,sp,88
    245c:	dac00015 	stw	r11,0(sp)
    2460:	d8800115 	stw	r2,4(sp)
    2464:	01c000c4 	movi	r7,3
    2468:	a80d883a 	mov	r6,r21
    246c:	da001215 	stw	r8,72(sp)
    2470:	db001015 	stw	r12,64(sp)
    2474:	dac00815 	stw	r11,32(sp)
    2478:	0002e240 	call	2e24 <_dtoa_r>
    247c:	dac00817 	ldw	r11,32(sp)
    2480:	1023883a 	mov	r17,r2
    2484:	db001017 	ldw	r12,64(sp)
    2488:	12e9883a 	add	r20,r2,r11
    248c:	88800007 	ldb	r2,0(r17)
    2490:	da001217 	ldw	r8,72(sp)
    2494:	10800c20 	cmpeqi	r2,r2,48
    2498:	10005a1e 	bne	r2,zero,2604 <___vfprintf_internal_r+0x1dd4>
    249c:	d8801617 	ldw	r2,88(sp)
    24a0:	a0a9883a 	add	r20,r20,r2
    24a4:	d9000917 	ldw	r4,36(sp)
    24a8:	000d883a 	mov	r6,zero
    24ac:	000f883a 	mov	r7,zero
    24b0:	a80b883a 	mov	r5,r21
    24b4:	da001215 	stw	r8,72(sp)
    24b8:	dac01015 	stw	r11,64(sp)
    24bc:	db000815 	stw	r12,32(sp)
    24c0:	000b9080 	call	b908 <__eqdf2>
    24c4:	db000817 	ldw	r12,32(sp)
    24c8:	dac01017 	ldw	r11,64(sp)
    24cc:	da001217 	ldw	r8,72(sp)
    24d0:	1000881e 	bne	r2,zero,26f4 <___vfprintf_internal_r+0x1ec4>
    24d4:	a005883a 	mov	r2,r20
    24d8:	1445c83a 	sub	r2,r2,r17
    24dc:	d8c00717 	ldw	r3,28(sp)
    24e0:	d8800815 	stw	r2,32(sp)
    24e4:	d8801617 	ldw	r2,88(sp)
    24e8:	18c011d8 	cmpnei	r3,r3,71
    24ec:	d8800715 	stw	r2,28(sp)
    24f0:	183e8126 	beq	r3,zero,1ef8 <___vfprintf_internal_r+0x16c8>
    24f4:	d8800f17 	ldw	r2,60(sp)
    24f8:	103e8426 	beq	r2,zero,1f0c <___vfprintf_internal_r+0x16dc>
    24fc:	d8c00717 	ldw	r3,28(sp)
    2500:	6080004c 	andi	r2,r12,1
    2504:	12c4b03a 	or	r2,r2,r11
    2508:	00c10d0e 	bge	zero,r3,2940 <___vfprintf_internal_r+0x2110>
    250c:	1000f11e 	bne	r2,zero,28d4 <___vfprintf_internal_r+0x20a4>
    2510:	dd000717 	ldw	r20,28(sp)
    2514:	a02b883a 	mov	r21,r20
    2518:	d8800e07 	ldb	r2,56(sp)
    251c:	10007e26 	beq	r2,zero,2718 <___vfprintf_internal_r+0x1ee8>
    2520:	00800b44 	movi	r2,45
    2524:	d8801545 	stb	r2,85(sp)
    2528:	0017883a 	mov	r11,zero
    252c:	003bdf06 	br	14ac <___vfprintf_internal_r+0xc7c>
    2530:	04400074 	movhi	r17,1
    2534:	8c7d8104 	addi	r17,r17,-2556
    2538:	003b2e06 	br	11f4 <___vfprintf_internal_r+0x9c4>
    253c:	b021883a 	mov	r16,r22
    2540:	9019883a 	mov	r12,r18
    2544:	e02d883a 	mov	r22,fp
    2548:	dc800f17 	ldw	r18,60(sp)
    254c:	8839883a 	mov	fp,r17
    2550:	dc400e17 	ldw	r17,56(sp)
    2554:	10800044 	addi	r2,r2,1
    2558:	1f07883a 	add	r3,r3,fp
    255c:	d8801d15 	stw	r2,116(sp)
    2560:	43000015 	stw	r12,0(r8)
    2564:	47000115 	stw	fp,4(r8)
    2568:	d8c01e15 	stw	r3,120(sp)
    256c:	10800208 	cmpgei	r2,r2,8
    2570:	1000421e 	bne	r2,zero,267c <___vfprintf_internal_r+0x1e4c>
    2574:	42000204 	addi	r8,r8,8
    2578:	003d9c06 	br	1bec <___vfprintf_internal_r+0x13bc>
    257c:	00800b44 	movi	r2,45
    2580:	d8801545 	stb	r2,85(sp)
    2584:	03400b44 	movi	r13,45
    2588:	003b1606 	br	11e4 <___vfprintf_internal_r+0x9b4>
    258c:	8019883a 	mov	r12,r16
    2590:	dc000717 	ldw	r16,28(sp)
    2594:	10800044 	addi	r2,r2,1
    2598:	1f07883a 	add	r3,r3,fp
    259c:	d8801d15 	stw	r2,116(sp)
    25a0:	43000015 	stw	r12,0(r8)
    25a4:	47000115 	stw	fp,4(r8)
    25a8:	d8c01e15 	stw	r3,120(sp)
    25ac:	10800208 	cmpgei	r2,r2,8
    25b0:	103a7126 	beq	r2,zero,f78 <___vfprintf_internal_r+0x748>
    25b4:	003cc706 	br	18d4 <___vfprintf_internal_r+0x10a4>
    25b8:	d9000517 	ldw	r4,20(sp)
    25bc:	d9801c04 	addi	r6,sp,112
    25c0:	980b883a 	mov	r5,r19
    25c4:	0007b8c0 	call	7b8c <__sprint_r>
    25c8:	1039781e 	bne	r2,zero,bac <___vfprintf_internal_r+0x37c>
    25cc:	d9001617 	ldw	r4,88(sp)
    25d0:	d8c01e17 	ldw	r3,120(sp)
    25d4:	b811883a 	mov	r8,r23
    25d8:	003d9306 	br	1c28 <___vfprintf_internal_r+0x13f8>
    25dc:	1560003c 	xorhi	r21,r2,32768
    25e0:	00800b44 	movi	r2,45
    25e4:	d8800e05 	stb	r2,56(sp)
    25e8:	003e1b06 	br	1e58 <___vfprintf_internal_r+0x1628>
    25ec:	05000184 	movi	r20,6
    25f0:	003ec106 	br	20f8 <___vfprintf_internal_r+0x18c8>
    25f4:	002b883a 	mov	r21,zero
    25f8:	003a0206 	br	e04 <___vfprintf_internal_r+0x5d4>
    25fc:	d9401545 	stb	r5,85(sp)
    2600:	00398a06 	br	c2c <___vfprintf_internal_r+0x3fc>
    2604:	d9000917 	ldw	r4,36(sp)
    2608:	000d883a 	mov	r6,zero
    260c:	000f883a 	mov	r7,zero
    2610:	a80b883a 	mov	r5,r21
    2614:	da001215 	stw	r8,72(sp)
    2618:	dac01015 	stw	r11,64(sp)
    261c:	db000815 	stw	r12,32(sp)
    2620:	000b9080 	call	b908 <__eqdf2>
    2624:	db000817 	ldw	r12,32(sp)
    2628:	dac01017 	ldw	r11,64(sp)
    262c:	da001217 	ldw	r8,72(sp)
    2630:	103f9a26 	beq	r2,zero,249c <___vfprintf_internal_r+0x1c6c>
    2634:	00800044 	movi	r2,1
    2638:	12c5c83a 	sub	r2,r2,r11
    263c:	d8801615 	stw	r2,88(sp)
    2640:	003f9706 	br	24a0 <___vfprintf_internal_r+0x1c70>
    2644:	583dff1e 	bne	r11,zero,1e44 <___vfprintf_internal_r+0x1614>
    2648:	02c00044 	movi	r11,1
    264c:	003dfd06 	br	1e44 <___vfprintf_internal_r+0x1614>
    2650:	d9000517 	ldw	r4,20(sp)
    2654:	d9801c04 	addi	r6,sp,112
    2658:	980b883a 	mov	r5,r19
    265c:	0007b8c0 	call	7b8c <__sprint_r>
    2660:	1039521e 	bne	r2,zero,bac <___vfprintf_internal_r+0x37c>
    2664:	d9001617 	ldw	r4,88(sp)
    2668:	d8c01e17 	ldw	r3,120(sp)
    266c:	d8801d17 	ldw	r2,116(sp)
    2670:	b811883a 	mov	r8,r23
    2674:	203c8e0e 	bge	r4,zero,18b0 <___vfprintf_internal_r+0x1080>
    2678:	003f2106 	br	2300 <___vfprintf_internal_r+0x1ad0>
    267c:	d9000517 	ldw	r4,20(sp)
    2680:	d9801c04 	addi	r6,sp,112
    2684:	980b883a 	mov	r5,r19
    2688:	0007b8c0 	call	7b8c <__sprint_r>
    268c:	1039471e 	bne	r2,zero,bac <___vfprintf_internal_r+0x37c>
    2690:	d8c01e17 	ldw	r3,120(sp)
    2694:	b811883a 	mov	r8,r23
    2698:	003d5406 	br	1bec <___vfprintf_internal_r+0x13bc>
    269c:	d8801a04 	addi	r2,sp,104
    26a0:	d8800315 	stw	r2,12(sp)
    26a4:	d9400917 	ldw	r5,36(sp)
    26a8:	d8801704 	addi	r2,sp,92
    26ac:	d9000517 	ldw	r4,20(sp)
    26b0:	5d000044 	addi	r20,r11,1
    26b4:	d8800215 	stw	r2,8(sp)
    26b8:	d8801604 	addi	r2,sp,88
    26bc:	d8800115 	stw	r2,4(sp)
    26c0:	dd000015 	stw	r20,0(sp)
    26c4:	01c00084 	movi	r7,2
    26c8:	a80d883a 	mov	r6,r21
    26cc:	dac00815 	stw	r11,32(sp)
    26d0:	0002e240 	call	2e24 <_dtoa_r>
    26d4:	dac00817 	ldw	r11,32(sp)
    26d8:	db001017 	ldw	r12,64(sp)
    26dc:	da001217 	ldw	r8,72(sp)
    26e0:	1023883a 	mov	r17,r2
    26e4:	e08011d8 	cmpnei	r2,fp,71
    26e8:	103df926 	beq	r2,zero,1ed0 <___vfprintf_internal_r+0x16a0>
    26ec:	8d29883a 	add	r20,r17,r20
    26f0:	003f6c06 	br	24a4 <___vfprintf_internal_r+0x1c74>
    26f4:	d8801a17 	ldw	r2,104(sp)
    26f8:	01000c04 	movi	r4,48
    26fc:	153f762e 	bgeu	r2,r20,24d8 <___vfprintf_internal_r+0x1ca8>
    2700:	10c00044 	addi	r3,r2,1
    2704:	d8c01a15 	stw	r3,104(sp)
    2708:	11000005 	stb	r4,0(r2)
    270c:	d8801a17 	ldw	r2,104(sp)
    2710:	153ffb36 	bltu	r2,r20,2700 <___vfprintf_internal_r+0x1ed0>
    2714:	003f7006 	br	24d8 <___vfprintf_internal_r+0x1ca8>
    2718:	db401543 	ldbu	r13,85(sp)
    271c:	0017883a 	mov	r11,zero
    2720:	003b5e06 	br	149c <___vfprintf_internal_r+0xc6c>
    2724:	d8800717 	ldw	r2,28(sp)
    2728:	d8c00817 	ldw	r3,32(sp)
    272c:	10c02216 	blt	r2,r3,27b8 <___vfprintf_internal_r+0x1f88>
    2730:	6300004c 	andi	r12,r12,1
    2734:	6000601e 	bne	r12,zero,28b8 <___vfprintf_internal_r+0x2088>
    2738:	102b883a 	mov	r21,r2
    273c:	1000010e 	bge	r2,zero,2744 <___vfprintf_internal_r+0x1f14>
    2740:	002b883a 	mov	r21,zero
    2744:	dd000717 	ldw	r20,28(sp)
    2748:	070019c4 	movi	fp,103
    274c:	003f7206 	br	2518 <___vfprintf_internal_r+0x1ce8>
    2750:	d9000517 	ldw	r4,20(sp)
    2754:	d9801c04 	addi	r6,sp,112
    2758:	980b883a 	mov	r5,r19
    275c:	0007b8c0 	call	7b8c <__sprint_r>
    2760:	1039121e 	bne	r2,zero,bac <___vfprintf_internal_r+0x37c>
    2764:	d8c01e17 	ldw	r3,120(sp)
    2768:	b811883a 	mov	r8,r23
    276c:	e03d1c0e 	bge	fp,zero,1be0 <___vfprintf_internal_r+0x13b0>
    2770:	003e5c06 	br	20e4 <___vfprintf_internal_r+0x18b4>
    2774:	02c00184 	movi	r11,6
    2778:	003db206 	br	1e44 <___vfprintf_internal_r+0x1614>
    277c:	d9000517 	ldw	r4,20(sp)
    2780:	d9801c04 	addi	r6,sp,112
    2784:	980b883a 	mov	r5,r19
    2788:	0007b8c0 	call	7b8c <__sprint_r>
    278c:	1039071e 	bne	r2,zero,bac <___vfprintf_internal_r+0x37c>
    2790:	d8801617 	ldw	r2,88(sp)
    2794:	d9000817 	ldw	r4,32(sp)
    2798:	d8c01e17 	ldw	r3,120(sp)
    279c:	b811883a 	mov	r8,r23
    27a0:	2085c83a 	sub	r2,r4,r2
    27a4:	003d3206 	br	1c70 <___vfprintf_internal_r+0x1440>
    27a8:	582b883a 	mov	r21,r11
    27ac:	dc800615 	stw	r18,24(sp)
    27b0:	5829883a 	mov	r20,r11
    27b4:	0039bb06 	br	ea4 <___vfprintf_internal_r+0x674>
    27b8:	d8800817 	ldw	r2,32(sp)
    27bc:	d8c00b17 	ldw	r3,44(sp)
    27c0:	10e9883a 	add	r20,r2,r3
    27c4:	d8800717 	ldw	r2,28(sp)
    27c8:	00800316 	blt	zero,r2,27d8 <___vfprintf_internal_r+0x1fa8>
    27cc:	d8800717 	ldw	r2,28(sp)
    27d0:	a0b9c83a 	sub	fp,r20,r2
    27d4:	e5000044 	addi	r20,fp,1
    27d8:	a02b883a 	mov	r21,r20
    27dc:	a0003b16 	blt	r20,zero,28cc <___vfprintf_internal_r+0x209c>
    27e0:	070019c4 	movi	fp,103
    27e4:	003f4c06 	br	2518 <___vfprintf_internal_r+0x1ce8>
    27e8:	d9401545 	stb	r5,85(sp)
    27ec:	003ac006 	br	12f0 <___vfprintf_internal_r+0xac0>
    27f0:	d9401545 	stb	r5,85(sp)
    27f4:	003a2006 	br	1078 <___vfprintf_internal_r+0x848>
    27f8:	d9401545 	stb	r5,85(sp)
    27fc:	003a2e06 	br	10b8 <___vfprintf_internal_r+0x888>
    2800:	d9401545 	stb	r5,85(sp)
    2804:	00398306 	br	e14 <___vfprintf_internal_r+0x5e4>
    2808:	d9401545 	stb	r5,85(sp)
    280c:	00395a06 	br	d78 <___vfprintf_internal_r+0x548>
    2810:	d9401545 	stb	r5,85(sp)
    2814:	00394606 	br	d30 <___vfprintf_internal_r+0x500>
    2818:	d9401545 	stb	r5,85(sp)
    281c:	003a3606 	br	10f8 <___vfprintf_internal_r+0x8c8>
    2820:	d9401545 	stb	r5,85(sp)
    2824:	003a7c06 	br	1218 <___vfprintf_internal_r+0x9e8>
    2828:	d9401545 	stb	r5,85(sp)
    282c:	003a4206 	br	1138 <___vfprintf_internal_r+0x908>
    2830:	d9401545 	stb	r5,85(sp)
    2834:	003ac006 	br	1338 <___vfprintf_internal_r+0xb08>
    2838:	8819883a 	mov	r12,r17
    283c:	dc400717 	ldw	r17,28(sp)
    2840:	a009883a 	mov	r4,r20
    2844:	8029883a 	mov	r20,r16
    2848:	2021883a 	mov	r16,r4
    284c:	10800044 	addi	r2,r2,1
    2850:	1d07883a 	add	r3,r3,r20
    2854:	43000015 	stw	r12,0(r8)
    2858:	45000115 	stw	r20,4(r8)
    285c:	d8c01e15 	stw	r3,120(sp)
    2860:	d8801d15 	stw	r2,116(sp)
    2864:	11000208 	cmpgei	r4,r2,8
    2868:	203c1026 	beq	r4,zero,18ac <___vfprintf_internal_r+0x107c>
    286c:	d9000517 	ldw	r4,20(sp)
    2870:	d9801c04 	addi	r6,sp,112
    2874:	980b883a 	mov	r5,r19
    2878:	0007b8c0 	call	7b8c <__sprint_r>
    287c:	1038cb1e 	bne	r2,zero,bac <___vfprintf_internal_r+0x37c>
    2880:	d8c01e17 	ldw	r3,120(sp)
    2884:	d8801d17 	ldw	r2,116(sp)
    2888:	b811883a 	mov	r8,r23
    288c:	003c0806 	br	18b0 <___vfprintf_internal_r+0x1080>
    2890:	00bfffc4 	movi	r2,-1
    2894:	d8800415 	stw	r2,16(sp)
    2898:	0038c706 	br	bb8 <___vfprintf_internal_r+0x388>
    289c:	00800c04 	movi	r2,48
    28a0:	a0c00c04 	addi	r3,r20,48
    28a4:	d88018c5 	stb	r2,99(sp)
    28a8:	00800104 	movi	r2,4
    28ac:	d8c01905 	stb	r3,100(sp)
    28b0:	d8801115 	stw	r2,68(sp)
    28b4:	003dca06 	br	1fe0 <___vfprintf_internal_r+0x17b0>
    28b8:	d8800717 	ldw	r2,28(sp)
    28bc:	d8c00b17 	ldw	r3,44(sp)
    28c0:	10e9883a 	add	r20,r2,r3
    28c4:	a02b883a 	mov	r21,r20
    28c8:	a03fc50e 	bge	r20,zero,27e0 <___vfprintf_internal_r+0x1fb0>
    28cc:	002b883a 	mov	r21,zero
    28d0:	003fc306 	br	27e0 <___vfprintf_internal_r+0x1fb0>
    28d4:	d8800b17 	ldw	r2,44(sp)
    28d8:	1885883a 	add	r2,r3,r2
    28dc:	12e9883a 	add	r20,r2,r11
    28e0:	a02b883a 	mov	r21,r20
    28e4:	a03f0c0e 	bge	r20,zero,2518 <___vfprintf_internal_r+0x1ce8>
    28e8:	002b883a 	mov	r21,zero
    28ec:	003f0a06 	br	2518 <___vfprintf_internal_r+0x1ce8>
    28f0:	d8800a17 	ldw	r2,40(sp)
    28f4:	10001d16 	blt	r2,zero,296c <___vfprintf_internal_r+0x213c>
    28f8:	db401543 	ldbu	r13,85(sp)
    28fc:	e0801210 	cmplti	r2,fp,72
    2900:	1000171e 	bne	r2,zero,2960 <___vfprintf_internal_r+0x2130>
    2904:	04400074 	movhi	r17,1
    2908:	8c7d8404 	addi	r17,r17,-2544
    290c:	003a3906 	br	11f4 <___vfprintf_internal_r+0x9c4>
    2910:	00c00044 	movi	r3,1
    2914:	18a9c83a 	sub	r20,r3,r2
    2918:	00800b44 	movi	r2,45
    291c:	d8801885 	stb	r2,98(sp)
    2920:	003d8106 	br	1f28 <___vfprintf_internal_r+0x16f8>
    2924:	6080004c 	andi	r2,r12,1
    2928:	d8800715 	stw	r2,28(sp)
    292c:	103db11e 	bne	r2,zero,1ff4 <___vfprintf_internal_r+0x17c4>
    2930:	003feb06 	br	28e0 <___vfprintf_internal_r+0x20b0>
    2934:	4005883a 	mov	r2,r8
    2938:	633d9184 	addi	r12,r12,-2490
    293c:	003ea206 	br	23c8 <___vfprintf_internal_r+0x1b98>
    2940:	1000031e 	bne	r2,zero,2950 <___vfprintf_internal_r+0x2120>
    2944:	05400044 	movi	r21,1
    2948:	05000044 	movi	r20,1
    294c:	003ef206 	br	2518 <___vfprintf_internal_r+0x1ce8>
    2950:	d8800b17 	ldw	r2,44(sp)
    2954:	10800044 	addi	r2,r2,1
    2958:	12e9883a 	add	r20,r2,r11
    295c:	003fe006 	br	28e0 <___vfprintf_internal_r+0x20b0>
    2960:	04400074 	movhi	r17,1
    2964:	8c7d8304 	addi	r17,r17,-2548
    2968:	003a2206 	br	11f4 <___vfprintf_internal_r+0x9c4>
    296c:	00800b44 	movi	r2,45
    2970:	d8801545 	stb	r2,85(sp)
    2974:	03400b44 	movi	r13,45
    2978:	003fe006 	br	28fc <___vfprintf_internal_r+0x20cc>
    297c:	00800084 	movi	r2,2
    2980:	d8801115 	stw	r2,68(sp)
    2984:	003d9606 	br	1fe0 <___vfprintf_internal_r+0x17b0>
    2988:	d8c00617 	ldw	r3,24(sp)
    298c:	1ac00017 	ldw	r11,0(r3)
    2990:	18c00104 	addi	r3,r3,4
    2994:	5800010e 	bge	r11,zero,299c <___vfprintf_internal_r+0x216c>
    2998:	02ffffc4 	movi	r11,-1
    299c:	b7000043 	ldbu	fp,1(r22)
    29a0:	d8c00615 	stw	r3,24(sp)
    29a4:	102d883a 	mov	r22,r2
    29a8:	e2803fcc 	andi	r10,fp,255
    29ac:	5280201c 	xori	r10,r10,128
    29b0:	52bfe004 	addi	r10,r10,-128
    29b4:	0037f906 	br	99c <___vfprintf_internal_r+0x16c>

000029b8 <__vfprintf_internal>:
    29b8:	00800074 	movhi	r2,1
    29bc:	300f883a 	mov	r7,r6
    29c0:	280d883a 	mov	r6,r5
    29c4:	200b883a 	mov	r5,r4
    29c8:	1105f217 	ldw	r4,6088(r2)
    29cc:	00008301 	jmpi	830 <___vfprintf_internal_r>

000029d0 <__sbprintf>:
    29d0:	2880030b 	ldhu	r2,12(r5)
    29d4:	2b001917 	ldw	r12,100(r5)
    29d8:	2ac0038b 	ldhu	r11,14(r5)
    29dc:	2a800717 	ldw	r10,28(r5)
    29e0:	2a400917 	ldw	r9,36(r5)
    29e4:	defee204 	addi	sp,sp,-1144
    29e8:	da001a04 	addi	r8,sp,104
    29ec:	00c10004 	movi	r3,1024
    29f0:	dc011a15 	stw	r16,1128(sp)
    29f4:	10bfff4c 	andi	r2,r2,65533
    29f8:	2821883a 	mov	r16,r5
    29fc:	d80b883a 	mov	r5,sp
    2a00:	dc811c15 	stw	r18,1136(sp)
    2a04:	dc411b15 	stw	r17,1132(sp)
    2a08:	dfc11d15 	stw	ra,1140(sp)
    2a0c:	2025883a 	mov	r18,r4
    2a10:	d880030d 	sth	r2,12(sp)
    2a14:	db001915 	stw	r12,100(sp)
    2a18:	dac0038d 	sth	r11,14(sp)
    2a1c:	da800715 	stw	r10,28(sp)
    2a20:	da400915 	stw	r9,36(sp)
    2a24:	da000015 	stw	r8,0(sp)
    2a28:	da000415 	stw	r8,16(sp)
    2a2c:	d8c00215 	stw	r3,8(sp)
    2a30:	d8c00515 	stw	r3,20(sp)
    2a34:	d8000615 	stw	zero,24(sp)
    2a38:	00008300 	call	830 <___vfprintf_internal_r>
    2a3c:	1023883a 	mov	r17,r2
    2a40:	10000d0e 	bge	r2,zero,2a78 <__sbprintf+0xa8>
    2a44:	d880030b 	ldhu	r2,12(sp)
    2a48:	1080100c 	andi	r2,r2,64
    2a4c:	10000326 	beq	r2,zero,2a5c <__sbprintf+0x8c>
    2a50:	8080030b 	ldhu	r2,12(r16)
    2a54:	10801014 	ori	r2,r2,64
    2a58:	8080030d 	sth	r2,12(r16)
    2a5c:	8805883a 	mov	r2,r17
    2a60:	dfc11d17 	ldw	ra,1140(sp)
    2a64:	dc811c17 	ldw	r18,1136(sp)
    2a68:	dc411b17 	ldw	r17,1132(sp)
    2a6c:	dc011a17 	ldw	r16,1128(sp)
    2a70:	dec11e04 	addi	sp,sp,1144
    2a74:	f800283a 	ret
    2a78:	d80b883a 	mov	r5,sp
    2a7c:	9009883a 	mov	r4,r18
    2a80:	00047140 	call	4714 <_fflush_r>
    2a84:	103fef26 	beq	r2,zero,2a44 <__sbprintf+0x74>
    2a88:	047fffc4 	movi	r17,-1
    2a8c:	003fed06 	br	2a44 <__sbprintf+0x74>

00002a90 <__swsetup_r>:
    2a90:	00800074 	movhi	r2,1
    2a94:	1085f217 	ldw	r2,6088(r2)
    2a98:	defffd04 	addi	sp,sp,-12
    2a9c:	dc400115 	stw	r17,4(sp)
    2aa0:	dc000015 	stw	r16,0(sp)
    2aa4:	dfc00215 	stw	ra,8(sp)
    2aa8:	2023883a 	mov	r17,r4
    2aac:	2821883a 	mov	r16,r5
    2ab0:	10000226 	beq	r2,zero,2abc <__swsetup_r+0x2c>
    2ab4:	10c00e17 	ldw	r3,56(r2)
    2ab8:	18002026 	beq	r3,zero,2b3c <__swsetup_r+0xac>
    2abc:	8080030b 	ldhu	r2,12(r16)
    2ac0:	10c0020c 	andi	r3,r2,8
    2ac4:	1009883a 	mov	r4,r2
    2ac8:	18002226 	beq	r3,zero,2b54 <__swsetup_r+0xc4>
    2acc:	80c00417 	ldw	r3,16(r16)
    2ad0:	18002826 	beq	r3,zero,2b74 <__swsetup_r+0xe4>
    2ad4:	1100004c 	andi	r4,r2,1
    2ad8:	20000b1e 	bne	r4,zero,2b08 <__swsetup_r+0x78>
    2adc:	1080008c 	andi	r2,r2,2
    2ae0:	10002d1e 	bne	r2,zero,2b98 <__swsetup_r+0x108>
    2ae4:	80800517 	ldw	r2,20(r16)
    2ae8:	80800215 	stw	r2,8(r16)
    2aec:	18000b26 	beq	r3,zero,2b1c <__swsetup_r+0x8c>
    2af0:	0005883a 	mov	r2,zero
    2af4:	dfc00217 	ldw	ra,8(sp)
    2af8:	dc400117 	ldw	r17,4(sp)
    2afc:	dc000017 	ldw	r16,0(sp)
    2b00:	dec00304 	addi	sp,sp,12
    2b04:	f800283a 	ret
    2b08:	80800517 	ldw	r2,20(r16)
    2b0c:	80000215 	stw	zero,8(r16)
    2b10:	0085c83a 	sub	r2,zero,r2
    2b14:	80800615 	stw	r2,24(r16)
    2b18:	183ff51e 	bne	r3,zero,2af0 <__swsetup_r+0x60>
    2b1c:	80c0030b 	ldhu	r3,12(r16)
    2b20:	0005883a 	mov	r2,zero
    2b24:	1900200c 	andi	r4,r3,128
    2b28:	203ff226 	beq	r4,zero,2af4 <__swsetup_r+0x64>
    2b2c:	18c01014 	ori	r3,r3,64
    2b30:	80c0030d 	sth	r3,12(r16)
    2b34:	00bfffc4 	movi	r2,-1
    2b38:	003fee06 	br	2af4 <__swsetup_r+0x64>
    2b3c:	1009883a 	mov	r4,r2
    2b40:	0004aa80 	call	4aa8 <__sinit>
    2b44:	8080030b 	ldhu	r2,12(r16)
    2b48:	10c0020c 	andi	r3,r2,8
    2b4c:	1009883a 	mov	r4,r2
    2b50:	183fde1e 	bne	r3,zero,2acc <__swsetup_r+0x3c>
    2b54:	2080040c 	andi	r2,r4,16
    2b58:	10001f26 	beq	r2,zero,2bd8 <__swsetup_r+0x148>
    2b5c:	2080010c 	andi	r2,r4,4
    2b60:	10000f1e 	bne	r2,zero,2ba0 <__swsetup_r+0x110>
    2b64:	80c00417 	ldw	r3,16(r16)
    2b68:	20800214 	ori	r2,r4,8
    2b6c:	8080030d 	sth	r2,12(r16)
    2b70:	183fd81e 	bne	r3,zero,2ad4 <__swsetup_r+0x44>
    2b74:	1100a00c 	andi	r4,r2,640
    2b78:	21008020 	cmpeqi	r4,r4,512
    2b7c:	203fd51e 	bne	r4,zero,2ad4 <__swsetup_r+0x44>
    2b80:	800b883a 	mov	r5,r16
    2b84:	8809883a 	mov	r4,r17
    2b88:	00055ec0 	call	55ec <__smakebuf_r>
    2b8c:	8080030b 	ldhu	r2,12(r16)
    2b90:	80c00417 	ldw	r3,16(r16)
    2b94:	003fcf06 	br	2ad4 <__swsetup_r+0x44>
    2b98:	0005883a 	mov	r2,zero
    2b9c:	003fd206 	br	2ae8 <__swsetup_r+0x58>
    2ba0:	81400c17 	ldw	r5,48(r16)
    2ba4:	28000626 	beq	r5,zero,2bc0 <__swsetup_r+0x130>
    2ba8:	80801004 	addi	r2,r16,64
    2bac:	28800326 	beq	r5,r2,2bbc <__swsetup_r+0x12c>
    2bb0:	8809883a 	mov	r4,r17
    2bb4:	0004c0c0 	call	4c0c <_free_r>
    2bb8:	8100030b 	ldhu	r4,12(r16)
    2bbc:	80000c15 	stw	zero,48(r16)
    2bc0:	80c00417 	ldw	r3,16(r16)
    2bc4:	00bff6c4 	movi	r2,-37
    2bc8:	1108703a 	and	r4,r2,r4
    2bcc:	80000115 	stw	zero,4(r16)
    2bd0:	80c00015 	stw	r3,0(r16)
    2bd4:	003fe406 	br	2b68 <__swsetup_r+0xd8>
    2bd8:	00800244 	movi	r2,9
    2bdc:	88800015 	stw	r2,0(r17)
    2be0:	20801014 	ori	r2,r4,64
    2be4:	8080030d 	sth	r2,12(r16)
    2be8:	00bfffc4 	movi	r2,-1
    2bec:	003fc106 	br	2af4 <__swsetup_r+0x64>

00002bf0 <quorem>:
    2bf0:	defff204 	addi	sp,sp,-56
    2bf4:	dc000415 	stw	r16,16(sp)
    2bf8:	20800417 	ldw	r2,16(r4)
    2bfc:	2c000417 	ldw	r16,16(r5)
    2c00:	dfc00d15 	stw	ra,52(sp)
    2c04:	df000c15 	stw	fp,48(sp)
    2c08:	ddc00b15 	stw	r23,44(sp)
    2c0c:	dd800a15 	stw	r22,40(sp)
    2c10:	dd400915 	stw	r21,36(sp)
    2c14:	dd000815 	stw	r20,32(sp)
    2c18:	dcc00715 	stw	r19,28(sp)
    2c1c:	dc800615 	stw	r18,24(sp)
    2c20:	dc400515 	stw	r17,20(sp)
    2c24:	14007d16 	blt	r2,r16,2e1c <quorem+0x22c>
    2c28:	843fffc4 	addi	r16,r16,-1
    2c2c:	802c90ba 	slli	r22,r16,2
    2c30:	2f000504 	addi	fp,r5,20
    2c34:	24c00504 	addi	r19,r4,20
    2c38:	e5a5883a 	add	r18,fp,r22
    2c3c:	9d85883a 	add	r2,r19,r22
    2c40:	95c00017 	ldw	r23,0(r18)
    2c44:	15000017 	ldw	r20,0(r2)
    2c48:	d9400215 	stw	r5,8(sp)
    2c4c:	bdc00044 	addi	r23,r23,1
    2c50:	d9000115 	stw	r4,4(sp)
    2c54:	b80b883a 	mov	r5,r23
    2c58:	a009883a 	mov	r4,r20
    2c5c:	dcc00015 	stw	r19,0(sp)
    2c60:	d8800315 	stw	r2,12(sp)
    2c64:	00005940 	call	594 <__udivsi3>
    2c68:	1023883a 	mov	r17,r2
    2c6c:	a5c03236 	bltu	r20,r23,2d38 <quorem+0x148>
    2c70:	e02d883a 	mov	r22,fp
    2c74:	9829883a 	mov	r20,r19
    2c78:	002b883a 	mov	r21,zero
    2c7c:	002f883a 	mov	r23,zero
    2c80:	b5800104 	addi	r22,r22,4
    2c84:	b4ffff17 	ldw	r19,-4(r22)
    2c88:	880b883a 	mov	r5,r17
    2c8c:	a5000104 	addi	r20,r20,4
    2c90:	993fffcc 	andi	r4,r19,65535
    2c94:	000a5dc0 	call	a5dc <__mulsi3>
    2c98:	9808d43a 	srli	r4,r19,16
    2c9c:	880b883a 	mov	r5,r17
    2ca0:	156b883a 	add	r21,r2,r21
    2ca4:	000a5dc0 	call	a5dc <__mulsi3>
    2ca8:	a0ffff17 	ldw	r3,-4(r20)
    2cac:	a80ad43a 	srli	r5,r21,16
    2cb0:	a93fffcc 	andi	r4,r21,65535
    2cb4:	b909c83a 	sub	r4,r23,r4
    2cb8:	19bfffcc 	andi	r6,r3,65535
    2cbc:	2189883a 	add	r4,r4,r6
    2cc0:	1806d43a 	srli	r3,r3,16
    2cc4:	116b883a 	add	r21,r2,r5
    2cc8:	2005d43a 	srai	r2,r4,16
    2ccc:	a97fffcc 	andi	r5,r21,65535
    2cd0:	1947c83a 	sub	r3,r3,r5
    2cd4:	1887883a 	add	r3,r3,r2
    2cd8:	1804943a 	slli	r2,r3,16
    2cdc:	213fffcc 	andi	r4,r4,65535
    2ce0:	a82ad43a 	srli	r21,r21,16
    2ce4:	1108b03a 	or	r4,r2,r4
    2ce8:	a13fff15 	stw	r4,-4(r20)
    2cec:	182fd43a 	srai	r23,r3,16
    2cf0:	95bfe32e 	bgeu	r18,r22,2c80 <quorem+0x90>
    2cf4:	d8c00317 	ldw	r3,12(sp)
    2cf8:	18800017 	ldw	r2,0(r3)
    2cfc:	10000e1e 	bne	r2,zero,2d38 <quorem+0x148>
    2d00:	d9000017 	ldw	r4,0(sp)
    2d04:	18bfff04 	addi	r2,r3,-4
    2d08:	2080092e 	bgeu	r4,r2,2d30 <quorem+0x140>
    2d0c:	18ffff17 	ldw	r3,-4(r3)
    2d10:	18000326 	beq	r3,zero,2d20 <quorem+0x130>
    2d14:	00000606 	br	2d30 <quorem+0x140>
    2d18:	10c00017 	ldw	r3,0(r2)
    2d1c:	1800041e 	bne	r3,zero,2d30 <quorem+0x140>
    2d20:	d8c00017 	ldw	r3,0(sp)
    2d24:	10bfff04 	addi	r2,r2,-4
    2d28:	843fffc4 	addi	r16,r16,-1
    2d2c:	18bffa36 	bltu	r3,r2,2d18 <quorem+0x128>
    2d30:	d8800117 	ldw	r2,4(sp)
    2d34:	14000415 	stw	r16,16(r2)
    2d38:	d9400217 	ldw	r5,8(sp)
    2d3c:	d9000117 	ldw	r4,4(sp)
    2d40:	0006c200 	call	6c20 <__mcmp>
    2d44:	10002816 	blt	r2,zero,2de8 <quorem+0x1f8>
    2d48:	d9800017 	ldw	r6,0(sp)
    2d4c:	8c400044 	addi	r17,r17,1
    2d50:	0007883a 	mov	r3,zero
    2d54:	e7000104 	addi	fp,fp,4
    2d58:	e13fff17 	ldw	r4,-4(fp)
    2d5c:	31400017 	ldw	r5,0(r6)
    2d60:	31800104 	addi	r6,r6,4
    2d64:	20bfffcc 	andi	r2,r4,65535
    2d68:	1887c83a 	sub	r3,r3,r2
    2d6c:	28bfffcc 	andi	r2,r5,65535
    2d70:	1885883a 	add	r2,r3,r2
    2d74:	2008d43a 	srli	r4,r4,16
    2d78:	2806d43a 	srli	r3,r5,16
    2d7c:	100fd43a 	srai	r7,r2,16
    2d80:	117fffcc 	andi	r5,r2,65535
    2d84:	1907c83a 	sub	r3,r3,r4
    2d88:	19c7883a 	add	r3,r3,r7
    2d8c:	1804943a 	slli	r2,r3,16
    2d90:	1807d43a 	srai	r3,r3,16
    2d94:	1144b03a 	or	r2,r2,r5
    2d98:	30bfff15 	stw	r2,-4(r6)
    2d9c:	973fed2e 	bgeu	r18,fp,2d54 <quorem+0x164>
    2da0:	800690ba 	slli	r3,r16,2
    2da4:	d9000017 	ldw	r4,0(sp)
    2da8:	20c7883a 	add	r3,r4,r3
    2dac:	18800017 	ldw	r2,0(r3)
    2db0:	10000d1e 	bne	r2,zero,2de8 <quorem+0x1f8>
    2db4:	18bfff04 	addi	r2,r3,-4
    2db8:	2080092e 	bgeu	r4,r2,2de0 <quorem+0x1f0>
    2dbc:	18ffff17 	ldw	r3,-4(r3)
    2dc0:	18000326 	beq	r3,zero,2dd0 <quorem+0x1e0>
    2dc4:	00000606 	br	2de0 <quorem+0x1f0>
    2dc8:	10c00017 	ldw	r3,0(r2)
    2dcc:	1800041e 	bne	r3,zero,2de0 <quorem+0x1f0>
    2dd0:	d8c00017 	ldw	r3,0(sp)
    2dd4:	10bfff04 	addi	r2,r2,-4
    2dd8:	843fffc4 	addi	r16,r16,-1
    2ddc:	18bffa36 	bltu	r3,r2,2dc8 <quorem+0x1d8>
    2de0:	d8800117 	ldw	r2,4(sp)
    2de4:	14000415 	stw	r16,16(r2)
    2de8:	8805883a 	mov	r2,r17
    2dec:	dfc00d17 	ldw	ra,52(sp)
    2df0:	df000c17 	ldw	fp,48(sp)
    2df4:	ddc00b17 	ldw	r23,44(sp)
    2df8:	dd800a17 	ldw	r22,40(sp)
    2dfc:	dd400917 	ldw	r21,36(sp)
    2e00:	dd000817 	ldw	r20,32(sp)
    2e04:	dcc00717 	ldw	r19,28(sp)
    2e08:	dc800617 	ldw	r18,24(sp)
    2e0c:	dc400517 	ldw	r17,20(sp)
    2e10:	dc000417 	ldw	r16,16(sp)
    2e14:	dec00e04 	addi	sp,sp,56
    2e18:	f800283a 	ret
    2e1c:	0005883a 	mov	r2,zero
    2e20:	003ff206 	br	2dec <quorem+0x1fc>

00002e24 <_dtoa_r>:
    2e24:	20801017 	ldw	r2,64(r4)
    2e28:	deffe204 	addi	sp,sp,-120
    2e2c:	df001c15 	stw	fp,112(sp)
    2e30:	dcc01715 	stw	r19,92(sp)
    2e34:	dc401515 	stw	r17,84(sp)
    2e38:	dc001415 	stw	r16,80(sp)
    2e3c:	dfc01d15 	stw	ra,116(sp)
    2e40:	ddc01b15 	stw	r23,108(sp)
    2e44:	dd801a15 	stw	r22,104(sp)
    2e48:	dd401915 	stw	r21,100(sp)
    2e4c:	dd001815 	stw	r20,96(sp)
    2e50:	dc801615 	stw	r18,88(sp)
    2e54:	d9400115 	stw	r5,4(sp)
    2e58:	d9c00215 	stw	r7,8(sp)
    2e5c:	2039883a 	mov	fp,r4
    2e60:	3027883a 	mov	r19,r6
    2e64:	dc002017 	ldw	r16,128(sp)
    2e68:	3023883a 	mov	r17,r6
    2e6c:	10000826 	beq	r2,zero,2e90 <_dtoa_r+0x6c>
    2e70:	21801117 	ldw	r6,68(r4)
    2e74:	00c00044 	movi	r3,1
    2e78:	100b883a 	mov	r5,r2
    2e7c:	1986983a 	sll	r3,r3,r6
    2e80:	11800115 	stw	r6,4(r2)
    2e84:	10c00215 	stw	r3,8(r2)
    2e88:	00063c40 	call	63c4 <_Bfree>
    2e8c:	e0001015 	stw	zero,64(fp)
    2e90:	98018116 	blt	r19,zero,3498 <_dtoa_r+0x674>
    2e94:	80000015 	stw	zero,0(r16)
    2e98:	989ffc2c 	andhi	r2,r19,32752
    2e9c:	00dffc34 	movhi	r3,32752
    2ea0:	10c18626 	beq	r2,r3,34bc <_dtoa_r+0x698>
    2ea4:	d9000117 	ldw	r4,4(sp)
    2ea8:	000d883a 	mov	r6,zero
    2eac:	000f883a 	mov	r7,zero
    2eb0:	880b883a 	mov	r5,r17
    2eb4:	000b9080 	call	b908 <__eqdf2>
    2eb8:	1000191e 	bne	r2,zero,2f20 <_dtoa_r+0xfc>
    2ebc:	d8c01f17 	ldw	r3,124(sp)
    2ec0:	00800044 	movi	r2,1
    2ec4:	18800015 	stw	r2,0(r3)
    2ec8:	d8802117 	ldw	r2,132(sp)
    2ecc:	10032426 	beq	r2,zero,3b60 <_dtoa_r+0xd3c>
    2ed0:	d9002117 	ldw	r4,132(sp)
    2ed4:	00800074 	movhi	r2,1
    2ed8:	10bd9144 	addi	r2,r2,-2491
    2edc:	00c00074 	movhi	r3,1
    2ee0:	20800015 	stw	r2,0(r4)
    2ee4:	18bd9104 	addi	r2,r3,-2492
    2ee8:	d8800315 	stw	r2,12(sp)
    2eec:	d8800317 	ldw	r2,12(sp)
    2ef0:	dfc01d17 	ldw	ra,116(sp)
    2ef4:	df001c17 	ldw	fp,112(sp)
    2ef8:	ddc01b17 	ldw	r23,108(sp)
    2efc:	dd801a17 	ldw	r22,104(sp)
    2f00:	dd401917 	ldw	r21,100(sp)
    2f04:	dd001817 	ldw	r20,96(sp)
    2f08:	dcc01717 	ldw	r19,92(sp)
    2f0c:	dc801617 	ldw	r18,88(sp)
    2f10:	dc401517 	ldw	r17,84(sp)
    2f14:	dc001417 	ldw	r16,80(sp)
    2f18:	dec01e04 	addi	sp,sp,120
    2f1c:	f800283a 	ret
    2f20:	dc800117 	ldw	r18,4(sp)
    2f24:	d8801204 	addi	r2,sp,72
    2f28:	9820d53a 	srli	r16,r19,20
    2f2c:	d8800015 	stw	r2,0(sp)
    2f30:	d9c01304 	addi	r7,sp,76
    2f34:	900b883a 	mov	r5,r18
    2f38:	880d883a 	mov	r6,r17
    2f3c:	e009883a 	mov	r4,fp
    2f40:	0006f940 	call	6f94 <__d2b>
    2f44:	102b883a 	mov	r21,r2
    2f48:	8001701e 	bne	r16,zero,350c <_dtoa_r+0x6e8>
    2f4c:	dc801217 	ldw	r18,72(sp)
    2f50:	dc001317 	ldw	r16,76(sp)
    2f54:	9421883a 	add	r16,r18,r16
    2f58:	80810c84 	addi	r2,r16,1074
    2f5c:	10c00850 	cmplti	r3,r2,33
    2f60:	18030f1e 	bne	r3,zero,3ba0 <_dtoa_r+0xd7c>
    2f64:	01001004 	movi	r4,64
    2f68:	2085c83a 	sub	r2,r4,r2
    2f6c:	98a6983a 	sll	r19,r19,r2
    2f70:	d8800117 	ldw	r2,4(sp)
    2f74:	81010484 	addi	r4,r16,1042
    2f78:	1108d83a 	srl	r4,r2,r4
    2f7c:	9908b03a 	or	r4,r19,r4
    2f80:	000ce500 	call	ce50 <__floatunsidf>
    2f84:	1009883a 	mov	r4,r2
    2f88:	017f8434 	movhi	r5,65040
    2f8c:	00800044 	movi	r2,1
    2f90:	194b883a 	add	r5,r3,r5
    2f94:	843fffc4 	addi	r16,r16,-1
    2f98:	d8800a15 	stw	r2,40(sp)
    2f9c:	000d883a 	mov	r6,zero
    2fa0:	01cffe34 	movhi	r7,16376
    2fa4:	000c3480 	call	c348 <__subdf3>
    2fa8:	0198dbf4 	movhi	r6,25455
    2fac:	01cff4f4 	movhi	r7,16339
    2fb0:	3190d844 	addi	r6,r6,17249
    2fb4:	39e1e9c4 	addi	r7,r7,-30809
    2fb8:	1009883a 	mov	r4,r2
    2fbc:	180b883a 	mov	r5,r3
    2fc0:	000bb680 	call	bb68 <__muldf3>
    2fc4:	01a2d874 	movhi	r6,35681
    2fc8:	01cff1f4 	movhi	r7,16327
    2fcc:	31b22cc4 	addi	r6,r6,-14157
    2fd0:	39e28a04 	addi	r7,r7,-30168
    2fd4:	180b883a 	mov	r5,r3
    2fd8:	1009883a 	mov	r4,r2
    2fdc:	000a6040 	call	a604 <__adddf3>
    2fe0:	8009883a 	mov	r4,r16
    2fe4:	1029883a 	mov	r20,r2
    2fe8:	1827883a 	mov	r19,r3
    2fec:	000cd880 	call	cd88 <__floatsidf>
    2ff0:	019427f4 	movhi	r6,20639
    2ff4:	01cff4f4 	movhi	r7,16339
    2ff8:	319e7ec4 	addi	r6,r6,31227
    2ffc:	39d104c4 	addi	r7,r7,17427
    3000:	1009883a 	mov	r4,r2
    3004:	180b883a 	mov	r5,r3
    3008:	000bb680 	call	bb68 <__muldf3>
    300c:	100d883a 	mov	r6,r2
    3010:	180f883a 	mov	r7,r3
    3014:	a009883a 	mov	r4,r20
    3018:	980b883a 	mov	r5,r19
    301c:	000a6040 	call	a604 <__adddf3>
    3020:	1009883a 	mov	r4,r2
    3024:	180b883a 	mov	r5,r3
    3028:	1029883a 	mov	r20,r2
    302c:	1827883a 	mov	r19,r3
    3030:	000cd080 	call	cd08 <__fixdfsi>
    3034:	000d883a 	mov	r6,zero
    3038:	000f883a 	mov	r7,zero
    303c:	a009883a 	mov	r4,r20
    3040:	980b883a 	mov	r5,r19
    3044:	102d883a 	mov	r22,r2
    3048:	000ba780 	call	ba78 <__ledf2>
    304c:	1002ba16 	blt	r2,zero,3b38 <_dtoa_r+0xd14>
    3050:	9421c83a 	sub	r16,r18,r16
    3054:	b08005e8 	cmpgeui	r2,r22,23
    3058:	853fffc4 	addi	r20,r16,-1
    305c:	1002ae1e 	bne	r2,zero,3b18 <_dtoa_r+0xcf4>
    3060:	b00690fa 	slli	r3,r22,3
    3064:	00800074 	movhi	r2,1
    3068:	10bdb504 	addi	r2,r2,-2348
    306c:	10c5883a 	add	r2,r2,r3
    3070:	11800017 	ldw	r6,0(r2)
    3074:	11c00117 	ldw	r7,4(r2)
    3078:	d9000117 	ldw	r4,4(sp)
    307c:	880b883a 	mov	r5,r17
    3080:	000ba780 	call	ba78 <__ledf2>
    3084:	10026f0e 	bge	r2,zero,3a44 <_dtoa_r+0xc20>
    3088:	d8000915 	stw	zero,36(sp)
    308c:	b5bfffc4 	addi	r22,r22,-1
    3090:	a002a416 	blt	r20,zero,3b24 <_dtoa_r+0xd00>
    3094:	d8000515 	stw	zero,20(sp)
    3098:	b0026d0e 	bge	r22,zero,3a50 <_dtoa_r+0xc2c>
    309c:	d8800517 	ldw	r2,20(sp)
    30a0:	d8c00217 	ldw	r3,8(sp)
    30a4:	dd800415 	stw	r22,16(sp)
    30a8:	1585c83a 	sub	r2,r2,r22
    30ac:	d8800515 	stw	r2,20(sp)
    30b0:	0585c83a 	sub	r2,zero,r22
    30b4:	d8800815 	stw	r2,32(sp)
    30b8:	188002a8 	cmpgeui	r2,r3,10
    30bc:	002d883a 	mov	r22,zero
    30c0:	1002691e 	bne	r2,zero,3a68 <_dtoa_r+0xc44>
    30c4:	18800190 	cmplti	r2,r3,6
    30c8:	1002ba1e 	bne	r2,zero,3bb4 <_dtoa_r+0xd90>
    30cc:	18bfff04 	addi	r2,r3,-4
    30d0:	d8800215 	stw	r2,8(sp)
    30d4:	0021883a 	mov	r16,zero
    30d8:	d8c00217 	ldw	r3,8(sp)
    30dc:	188000e0 	cmpeqi	r2,r3,3
    30e0:	10039d1e 	bne	r2,zero,3f58 <_dtoa_r+0x1134>
    30e4:	18800108 	cmpgei	r2,r3,4
    30e8:	10027a26 	beq	r2,zero,3ad4 <_dtoa_r+0xcb0>
    30ec:	d8c00217 	ldw	r3,8(sp)
    30f0:	18800120 	cmpeqi	r2,r3,4
    30f4:	10026926 	beq	r2,zero,3a9c <_dtoa_r+0xc78>
    30f8:	00800044 	movi	r2,1
    30fc:	d8800715 	stw	r2,28(sp)
    3100:	d8801e17 	ldw	r2,120(sp)
    3104:	0083670e 	bge	zero,r2,3ea4 <_dtoa_r+0x1080>
    3108:	d8800b15 	stw	r2,44(sp)
    310c:	d8800615 	stw	r2,24(sp)
    3110:	100d883a 	mov	r6,r2
    3114:	e0001115 	stw	zero,68(fp)
    3118:	30800610 	cmplti	r2,r6,24
    311c:	dc800617 	ldw	r18,24(sp)
    3120:	1004eb1e 	bne	r2,zero,44d0 <_dtoa_r+0x16ac>
    3124:	00c00044 	movi	r3,1
    3128:	00800104 	movi	r2,4
    312c:	1085883a 	add	r2,r2,r2
    3130:	11000504 	addi	r4,r2,20
    3134:	180b883a 	mov	r5,r3
    3138:	18c00044 	addi	r3,r3,1
    313c:	313ffb2e 	bgeu	r6,r4,312c <_dtoa_r+0x308>
    3140:	e1401115 	stw	r5,68(fp)
    3144:	e009883a 	mov	r4,fp
    3148:	00063200 	call	6320 <_Balloc>
    314c:	d8800315 	stw	r2,12(sp)
    3150:	e0801015 	stw	r2,64(fp)
    3154:	948003e8 	cmpgeui	r18,r18,15
    3158:	9000fe1e 	bne	r18,zero,3554 <_dtoa_r+0x730>
    315c:	8000fd26 	beq	r16,zero,3554 <_dtoa_r+0x730>
    3160:	d9000417 	ldw	r4,16(sp)
    3164:	0103c60e 	bge	zero,r4,4080 <_dtoa_r+0x125c>
    3168:	208003cc 	andi	r2,r4,15
    316c:	100690fa 	slli	r3,r2,3
    3170:	202fd13a 	srai	r23,r4,4
    3174:	00800074 	movhi	r2,1
    3178:	10bdb504 	addi	r2,r2,-2348
    317c:	10c5883a 	add	r2,r2,r3
    3180:	b8c0040c 	andi	r3,r23,16
    3184:	12800017 	ldw	r10,0(r2)
    3188:	12400117 	ldw	r9,4(r2)
    318c:	1803621e 	bne	r3,zero,3f18 <_dtoa_r+0x10f4>
    3190:	d8800117 	ldw	r2,4(sp)
    3194:	8827883a 	mov	r19,r17
    3198:	04000084 	movi	r16,2
    319c:	d8800c15 	stw	r2,48(sp)
    31a0:	04800074 	movhi	r18,1
    31a4:	94bdab04 	addi	r18,r18,-2388
    31a8:	b8000f26 	beq	r23,zero,31e8 <_dtoa_r+0x3c4>
    31ac:	5005883a 	mov	r2,r10
    31b0:	4807883a 	mov	r3,r9
    31b4:	b980004c 	andi	r6,r23,1
    31b8:	1009883a 	mov	r4,r2
    31bc:	b82fd07a 	srai	r23,r23,1
    31c0:	180b883a 	mov	r5,r3
    31c4:	30000426 	beq	r6,zero,31d8 <_dtoa_r+0x3b4>
    31c8:	91800017 	ldw	r6,0(r18)
    31cc:	91c00117 	ldw	r7,4(r18)
    31d0:	84000044 	addi	r16,r16,1
    31d4:	000bb680 	call	bb68 <__muldf3>
    31d8:	94800204 	addi	r18,r18,8
    31dc:	b83ff51e 	bne	r23,zero,31b4 <_dtoa_r+0x390>
    31e0:	1015883a 	mov	r10,r2
    31e4:	1813883a 	mov	r9,r3
    31e8:	d9000c17 	ldw	r4,48(sp)
    31ec:	980b883a 	mov	r5,r19
    31f0:	500d883a 	mov	r6,r10
    31f4:	480f883a 	mov	r7,r9
    31f8:	000afa40 	call	afa4 <__divdf3>
    31fc:	1025883a 	mov	r18,r2
    3200:	1827883a 	mov	r19,r3
    3204:	d8800917 	ldw	r2,36(sp)
    3208:	10000626 	beq	r2,zero,3224 <_dtoa_r+0x400>
    320c:	000d883a 	mov	r6,zero
    3210:	01cffc34 	movhi	r7,16368
    3214:	9009883a 	mov	r4,r18
    3218:	980b883a 	mov	r5,r19
    321c:	000ba780 	call	ba78 <__ledf2>
    3220:	10042616 	blt	r2,zero,42bc <_dtoa_r+0x1498>
    3224:	8009883a 	mov	r4,r16
    3228:	000cd880 	call	cd88 <__floatsidf>
    322c:	900d883a 	mov	r6,r18
    3230:	980f883a 	mov	r7,r19
    3234:	1009883a 	mov	r4,r2
    3238:	180b883a 	mov	r5,r3
    323c:	000bb680 	call	bb68 <__muldf3>
    3240:	000d883a 	mov	r6,zero
    3244:	01d00734 	movhi	r7,16412
    3248:	1009883a 	mov	r4,r2
    324c:	180b883a 	mov	r5,r3
    3250:	000a6040 	call	a604 <__adddf3>
    3254:	d8800c15 	stw	r2,48(sp)
    3258:	00bf3034 	movhi	r2,64704
    325c:	1885883a 	add	r2,r3,r2
    3260:	d8800d15 	stw	r2,52(sp)
    3264:	d8800617 	ldw	r2,24(sp)
    3268:	10036d26 	beq	r2,zero,4020 <_dtoa_r+0x11fc>
    326c:	d8800417 	ldw	r2,16(sp)
    3270:	d8800f15 	stw	r2,60(sp)
    3274:	d8800617 	ldw	r2,24(sp)
    3278:	d8800e15 	stw	r2,56(sp)
    327c:	980b883a 	mov	r5,r19
    3280:	9009883a 	mov	r4,r18
    3284:	000cd080 	call	cd08 <__fixdfsi>
    3288:	1009883a 	mov	r4,r2
    328c:	102f883a 	mov	r23,r2
    3290:	000cd880 	call	cd88 <__floatsidf>
    3294:	100d883a 	mov	r6,r2
    3298:	180f883a 	mov	r7,r3
    329c:	9009883a 	mov	r4,r18
    32a0:	980b883a 	mov	r5,r19
    32a4:	000c3480 	call	c348 <__subdf3>
    32a8:	1025883a 	mov	r18,r2
    32ac:	d8800e17 	ldw	r2,56(sp)
    32b0:	1821883a 	mov	r16,r3
    32b4:	ba400c04 	addi	r9,r23,48
    32b8:	10bfffc4 	addi	r2,r2,-1
    32bc:	100690fa 	slli	r3,r2,3
    32c0:	00800074 	movhi	r2,1
    32c4:	10bdb504 	addi	r2,r2,-2348
    32c8:	10c5883a 	add	r2,r2,r3
    32cc:	11800017 	ldw	r6,0(r2)
    32d0:	d8c00317 	ldw	r3,12(sp)
    32d4:	11c00117 	ldw	r7,4(r2)
    32d8:	d8800717 	ldw	r2,28(sp)
    32dc:	4811883a 	mov	r8,r9
    32e0:	da001015 	stw	r8,64(sp)
    32e4:	1dc00044 	addi	r23,r3,1
    32e8:	1003a226 	beq	r2,zero,4174 <_dtoa_r+0x1350>
    32ec:	0009883a 	mov	r4,zero
    32f0:	014ff834 	movhi	r5,16352
    32f4:	da401115 	stw	r9,68(sp)
    32f8:	000afa40 	call	afa4 <__divdf3>
    32fc:	d9800c17 	ldw	r6,48(sp)
    3300:	d9c00d17 	ldw	r7,52(sp)
    3304:	1009883a 	mov	r4,r2
    3308:	180b883a 	mov	r5,r3
    330c:	000c3480 	call	c348 <__subdf3>
    3310:	1827883a 	mov	r19,r3
    3314:	da401117 	ldw	r9,68(sp)
    3318:	d8c00317 	ldw	r3,12(sp)
    331c:	900d883a 	mov	r6,r18
    3320:	800f883a 	mov	r7,r16
    3324:	1a400005 	stb	r9,0(r3)
    3328:	1009883a 	mov	r4,r2
    332c:	980b883a 	mov	r5,r19
    3330:	d8800c15 	stw	r2,48(sp)
    3334:	000b9880 	call	b988 <__gedf2>
    3338:	da001017 	ldw	r8,64(sp)
    333c:	00804816 	blt	zero,r2,3460 <_dtoa_r+0x63c>
    3340:	900d883a 	mov	r6,r18
    3344:	800f883a 	mov	r7,r16
    3348:	0009883a 	mov	r4,zero
    334c:	014ffc34 	movhi	r5,16368
    3350:	da000d15 	stw	r8,52(sp)
    3354:	000c3480 	call	c348 <__subdf3>
    3358:	d9000c17 	ldw	r4,48(sp)
    335c:	100d883a 	mov	r6,r2
    3360:	180f883a 	mov	r7,r3
    3364:	980b883a 	mov	r5,r19
    3368:	000b9880 	call	b988 <__gedf2>
    336c:	da000d17 	ldw	r8,52(sp)
    3370:	00844e16 	blt	zero,r2,44ac <_dtoa_r+0x1688>
    3374:	d8c00e17 	ldw	r3,56(sp)
    3378:	18800060 	cmpeqi	r2,r3,1
    337c:	1000751e 	bne	r2,zero,3554 <_dtoa_r+0x730>
    3380:	d8800317 	ldw	r2,12(sp)
    3384:	dd800d15 	stw	r22,52(sp)
    3388:	dd000e15 	stw	r20,56(sp)
    338c:	10c5883a 	add	r2,r2,r3
    3390:	dd000c17 	ldw	r20,48(sp)
    3394:	102d883a 	mov	r22,r2
    3398:	dc400c15 	stw	r17,48(sp)
    339c:	00000806 	br	33c0 <_dtoa_r+0x59c>
    33a0:	000c3480 	call	c348 <__subdf3>
    33a4:	a00d883a 	mov	r6,r20
    33a8:	980f883a 	mov	r7,r19
    33ac:	1009883a 	mov	r4,r2
    33b0:	180b883a 	mov	r5,r3
    33b4:	000ba780 	call	ba78 <__ledf2>
    33b8:	10042316 	blt	r2,zero,4448 <_dtoa_r+0x1624>
    33bc:	bd806226 	beq	r23,r22,3548 <_dtoa_r+0x724>
    33c0:	a009883a 	mov	r4,r20
    33c4:	980b883a 	mov	r5,r19
    33c8:	000d883a 	mov	r6,zero
    33cc:	01d00934 	movhi	r7,16420
    33d0:	000bb680 	call	bb68 <__muldf3>
    33d4:	000d883a 	mov	r6,zero
    33d8:	01d00934 	movhi	r7,16420
    33dc:	9009883a 	mov	r4,r18
    33e0:	800b883a 	mov	r5,r16
    33e4:	1029883a 	mov	r20,r2
    33e8:	1827883a 	mov	r19,r3
    33ec:	000bb680 	call	bb68 <__muldf3>
    33f0:	180b883a 	mov	r5,r3
    33f4:	1009883a 	mov	r4,r2
    33f8:	1821883a 	mov	r16,r3
    33fc:	1025883a 	mov	r18,r2
    3400:	000cd080 	call	cd08 <__fixdfsi>
    3404:	1009883a 	mov	r4,r2
    3408:	1023883a 	mov	r17,r2
    340c:	000cd880 	call	cd88 <__floatsidf>
    3410:	9009883a 	mov	r4,r18
    3414:	800b883a 	mov	r5,r16
    3418:	100d883a 	mov	r6,r2
    341c:	180f883a 	mov	r7,r3
    3420:	000c3480 	call	c348 <__subdf3>
    3424:	bdc00044 	addi	r23,r23,1
    3428:	8c400c04 	addi	r17,r17,48
    342c:	a00d883a 	mov	r6,r20
    3430:	980f883a 	mov	r7,r19
    3434:	1009883a 	mov	r4,r2
    3438:	180b883a 	mov	r5,r3
    343c:	bc7fffc5 	stb	r17,-1(r23)
    3440:	1025883a 	mov	r18,r2
    3444:	1821883a 	mov	r16,r3
    3448:	000ba780 	call	ba78 <__ledf2>
    344c:	900d883a 	mov	r6,r18
    3450:	800f883a 	mov	r7,r16
    3454:	0009883a 	mov	r4,zero
    3458:	014ffc34 	movhi	r5,16368
    345c:	103fd00e 	bge	r2,zero,33a0 <_dtoa_r+0x57c>
    3460:	d8800f17 	ldw	r2,60(sp)
    3464:	10800044 	addi	r2,r2,1
    3468:	d8800415 	stw	r2,16(sp)
    346c:	a80b883a 	mov	r5,r21
    3470:	e009883a 	mov	r4,fp
    3474:	00063c40 	call	63c4 <_Bfree>
    3478:	d8801f17 	ldw	r2,124(sp)
    347c:	d8c00417 	ldw	r3,16(sp)
    3480:	b8000005 	stb	zero,0(r23)
    3484:	10c00015 	stw	r3,0(r2)
    3488:	d8802117 	ldw	r2,132(sp)
    348c:	103e9726 	beq	r2,zero,2eec <_dtoa_r+0xc8>
    3490:	15c00015 	stw	r23,0(r2)
    3494:	003e9506 	br	2eec <_dtoa_r+0xc8>
    3498:	04600034 	movhi	r17,32768
    349c:	8c7fffc4 	addi	r17,r17,-1
    34a0:	9c62703a 	and	r17,r19,r17
    34a4:	00800044 	movi	r2,1
    34a8:	8827883a 	mov	r19,r17
    34ac:	80800015 	stw	r2,0(r16)
    34b0:	00dffc34 	movhi	r3,32752
    34b4:	989ffc2c 	andhi	r2,r19,32752
    34b8:	10fe7a1e 	bne	r2,r3,2ea4 <_dtoa_r+0x80>
    34bc:	00800434 	movhi	r2,16
    34c0:	d8c01f17 	ldw	r3,124(sp)
    34c4:	10bfffc4 	addi	r2,r2,-1
    34c8:	98a6703a 	and	r19,r19,r2
    34cc:	0089c3c4 	movi	r2,9999
    34d0:	18800015 	stw	r2,0(r3)
    34d4:	d8800117 	ldw	r2,4(sp)
    34d8:	98aab03a 	or	r21,r19,r2
    34dc:	a800141e 	bne	r21,zero,3530 <_dtoa_r+0x70c>
    34e0:	d8802117 	ldw	r2,132(sp)
    34e4:	1003f626 	beq	r2,zero,44c0 <_dtoa_r+0x169c>
    34e8:	00800074 	movhi	r2,1
    34ec:	1007883a 	mov	r3,r2
    34f0:	18fd9b04 	addi	r3,r3,-2452
    34f4:	00800074 	movhi	r2,1
    34f8:	d8c00315 	stw	r3,12(sp)
    34fc:	10bd9d04 	addi	r2,r2,-2444
    3500:	d8c02117 	ldw	r3,132(sp)
    3504:	18800015 	stw	r2,0(r3)
    3508:	003e7806 	br	2eec <_dtoa_r+0xc8>
    350c:	01400434 	movhi	r5,16
    3510:	297fffc4 	addi	r5,r5,-1
    3514:	894a703a 	and	r5,r17,r5
    3518:	9009883a 	mov	r4,r18
    351c:	294ffc34 	orhi	r5,r5,16368
    3520:	843f0044 	addi	r16,r16,-1023
    3524:	dc801217 	ldw	r18,72(sp)
    3528:	d8000a15 	stw	zero,40(sp)
    352c:	003e9b06 	br	2f9c <_dtoa_r+0x178>
    3530:	d8802117 	ldw	r2,132(sp)
    3534:	1002461e 	bne	r2,zero,3e50 <_dtoa_r+0x102c>
    3538:	00800074 	movhi	r2,1
    353c:	10bd9a04 	addi	r2,r2,-2456
    3540:	d8800315 	stw	r2,12(sp)
    3544:	003e6906 	br	2eec <_dtoa_r+0xc8>
    3548:	dd800d17 	ldw	r22,52(sp)
    354c:	dd000e17 	ldw	r20,56(sp)
    3550:	dc400c17 	ldw	r17,48(sp)
    3554:	d8801317 	ldw	r2,76(sp)
    3558:	10009f16 	blt	r2,zero,37d8 <_dtoa_r+0x9b4>
    355c:	d9000417 	ldw	r4,16(sp)
    3560:	20c003c8 	cmpgei	r3,r4,15
    3564:	18009c1e 	bne	r3,zero,37d8 <_dtoa_r+0x9b4>
    3568:	200690fa 	slli	r3,r4,3
    356c:	00800074 	movhi	r2,1
    3570:	10bdb504 	addi	r2,r2,-2348
    3574:	10c5883a 	add	r2,r2,r3
    3578:	14000017 	ldw	r16,0(r2)
    357c:	14800117 	ldw	r18,4(r2)
    3580:	d8801e17 	ldw	r2,120(sp)
    3584:	1000140e 	bge	r2,zero,35d8 <_dtoa_r+0x7b4>
    3588:	d8800617 	ldw	r2,24(sp)
    358c:	00801216 	blt	zero,r2,35d8 <_dtoa_r+0x7b4>
    3590:	1002b81e 	bne	r2,zero,4074 <_dtoa_r+0x1250>
    3594:	8009883a 	mov	r4,r16
    3598:	900b883a 	mov	r5,r18
    359c:	000d883a 	mov	r6,zero
    35a0:	01d00534 	movhi	r7,16404
    35a4:	000bb680 	call	bb68 <__muldf3>
    35a8:	d9800117 	ldw	r6,4(sp)
    35ac:	880f883a 	mov	r7,r17
    35b0:	1009883a 	mov	r4,r2
    35b4:	180b883a 	mov	r5,r3
    35b8:	000b9880 	call	b988 <__gedf2>
    35bc:	0025883a 	mov	r18,zero
    35c0:	0021883a 	mov	r16,zero
    35c4:	1001fd16 	blt	r2,zero,3dbc <_dtoa_r+0xf98>
    35c8:	d8801e17 	ldw	r2,120(sp)
    35cc:	ddc00317 	ldw	r23,12(sp)
    35d0:	00a2303a 	nor	r17,zero,r2
    35d4:	0001ff06 	br	3dd4 <_dtoa_r+0xfb0>
    35d8:	dcc00117 	ldw	r19,4(sp)
    35dc:	800d883a 	mov	r6,r16
    35e0:	900f883a 	mov	r7,r18
    35e4:	880b883a 	mov	r5,r17
    35e8:	9809883a 	mov	r4,r19
    35ec:	000afa40 	call	afa4 <__divdf3>
    35f0:	180b883a 	mov	r5,r3
    35f4:	1009883a 	mov	r4,r2
    35f8:	000cd080 	call	cd08 <__fixdfsi>
    35fc:	1009883a 	mov	r4,r2
    3600:	102d883a 	mov	r22,r2
    3604:	000cd880 	call	cd88 <__floatsidf>
    3608:	800d883a 	mov	r6,r16
    360c:	900f883a 	mov	r7,r18
    3610:	1009883a 	mov	r4,r2
    3614:	180b883a 	mov	r5,r3
    3618:	000bb680 	call	bb68 <__muldf3>
    361c:	880b883a 	mov	r5,r17
    3620:	100d883a 	mov	r6,r2
    3624:	180f883a 	mov	r7,r3
    3628:	9809883a 	mov	r4,r19
    362c:	000c3480 	call	c348 <__subdf3>
    3630:	dc400317 	ldw	r17,12(sp)
    3634:	1009883a 	mov	r4,r2
    3638:	d9c00417 	ldw	r7,16(sp)
    363c:	b0800c04 	addi	r2,r22,48
    3640:	88800005 	stb	r2,0(r17)
    3644:	d8800617 	ldw	r2,24(sp)
    3648:	39c00044 	addi	r7,r7,1
    364c:	d9c00415 	stw	r7,16(sp)
    3650:	11800060 	cmpeqi	r6,r2,1
    3654:	180b883a 	mov	r5,r3
    3658:	2005883a 	mov	r2,r4
    365c:	8dc00044 	addi	r23,r17,1
    3660:	3000391e 	bne	r6,zero,3748 <_dtoa_r+0x924>
    3664:	01d00934 	movhi	r7,16420
    3668:	000bb680 	call	bb68 <__muldf3>
    366c:	000d883a 	mov	r6,zero
    3670:	000f883a 	mov	r7,zero
    3674:	1009883a 	mov	r4,r2
    3678:	180b883a 	mov	r5,r3
    367c:	1027883a 	mov	r19,r2
    3680:	1829883a 	mov	r20,r3
    3684:	000b9080 	call	b908 <__eqdf2>
    3688:	103f7826 	beq	r2,zero,346c <_dtoa_r+0x648>
    368c:	d8c00617 	ldw	r3,24(sp)
    3690:	8805883a 	mov	r2,r17
    3694:	dd400115 	stw	r21,4(sp)
    3698:	8c400084 	addi	r17,r17,2
    369c:	10ed883a 	add	r22,r2,r3
    36a0:	00000a06 	br	36cc <_dtoa_r+0x8a8>
    36a4:	000bb680 	call	bb68 <__muldf3>
    36a8:	000d883a 	mov	r6,zero
    36ac:	000f883a 	mov	r7,zero
    36b0:	1009883a 	mov	r4,r2
    36b4:	180b883a 	mov	r5,r3
    36b8:	1027883a 	mov	r19,r2
    36bc:	1829883a 	mov	r20,r3
    36c0:	8c400044 	addi	r17,r17,1
    36c4:	000b9080 	call	b908 <__eqdf2>
    36c8:	10029d26 	beq	r2,zero,4140 <_dtoa_r+0x131c>
    36cc:	800d883a 	mov	r6,r16
    36d0:	900f883a 	mov	r7,r18
    36d4:	9809883a 	mov	r4,r19
    36d8:	a00b883a 	mov	r5,r20
    36dc:	000afa40 	call	afa4 <__divdf3>
    36e0:	180b883a 	mov	r5,r3
    36e4:	1009883a 	mov	r4,r2
    36e8:	000cd080 	call	cd08 <__fixdfsi>
    36ec:	1009883a 	mov	r4,r2
    36f0:	102b883a 	mov	r21,r2
    36f4:	000cd880 	call	cd88 <__floatsidf>
    36f8:	800d883a 	mov	r6,r16
    36fc:	900f883a 	mov	r7,r18
    3700:	1009883a 	mov	r4,r2
    3704:	180b883a 	mov	r5,r3
    3708:	000bb680 	call	bb68 <__muldf3>
    370c:	100d883a 	mov	r6,r2
    3710:	180f883a 	mov	r7,r3
    3714:	9809883a 	mov	r4,r19
    3718:	a00b883a 	mov	r5,r20
    371c:	000c3480 	call	c348 <__subdf3>
    3720:	aa400c04 	addi	r9,r21,48
    3724:	8a7fffc5 	stb	r9,-1(r17)
    3728:	000d883a 	mov	r6,zero
    372c:	01d00934 	movhi	r7,16420
    3730:	1009883a 	mov	r4,r2
    3734:	180b883a 	mov	r5,r3
    3738:	882f883a 	mov	r23,r17
    373c:	b47fd91e 	bne	r22,r17,36a4 <_dtoa_r+0x880>
    3740:	a82d883a 	mov	r22,r21
    3744:	dd400117 	ldw	r21,4(sp)
    3748:	100d883a 	mov	r6,r2
    374c:	180f883a 	mov	r7,r3
    3750:	1009883a 	mov	r4,r2
    3754:	180b883a 	mov	r5,r3
    3758:	000a6040 	call	a604 <__adddf3>
    375c:	800d883a 	mov	r6,r16
    3760:	900f883a 	mov	r7,r18
    3764:	1009883a 	mov	r4,r2
    3768:	180b883a 	mov	r5,r3
    376c:	1027883a 	mov	r19,r2
    3770:	1823883a 	mov	r17,r3
    3774:	000b9880 	call	b988 <__gedf2>
    3778:	00800816 	blt	zero,r2,379c <_dtoa_r+0x978>
    377c:	800d883a 	mov	r6,r16
    3780:	900f883a 	mov	r7,r18
    3784:	9809883a 	mov	r4,r19
    3788:	880b883a 	mov	r5,r17
    378c:	000b9080 	call	b908 <__eqdf2>
    3790:	103f361e 	bne	r2,zero,346c <_dtoa_r+0x648>
    3794:	b580004c 	andi	r22,r22,1
    3798:	b03f3426 	beq	r22,zero,346c <_dtoa_r+0x648>
    379c:	ba3fffc3 	ldbu	r8,-1(r23)
    37a0:	d9000317 	ldw	r4,12(sp)
    37a4:	00000306 	br	37b4 <_dtoa_r+0x990>
    37a8:	20c30e26 	beq	r4,r3,43e4 <_dtoa_r+0x15c0>
    37ac:	1a3fffc3 	ldbu	r8,-1(r3)
    37b0:	182f883a 	mov	r23,r3
    37b4:	40803fcc 	andi	r2,r8,255
    37b8:	1080201c 	xori	r2,r2,128
    37bc:	10bfe004 	addi	r2,r2,-128
    37c0:	10800e60 	cmpeqi	r2,r2,57
    37c4:	b8ffffc4 	addi	r3,r23,-1
    37c8:	103ff71e 	bne	r2,zero,37a8 <_dtoa_r+0x984>
    37cc:	42000044 	addi	r8,r8,1
    37d0:	1a000005 	stb	r8,0(r3)
    37d4:	003f2506 	br	346c <_dtoa_r+0x648>
    37d8:	d8c00717 	ldw	r3,28(sp)
    37dc:	1800e426 	beq	r3,zero,3b70 <_dtoa_r+0xd4c>
    37e0:	d8c00217 	ldw	r3,8(sp)
    37e4:	18c00088 	cmpgei	r3,r3,2
    37e8:	1801ec26 	beq	r3,zero,3f9c <_dtoa_r+0x1178>
    37ec:	d8800617 	ldw	r2,24(sp)
    37f0:	14bfffc4 	addi	r18,r2,-1
    37f4:	d8800817 	ldw	r2,32(sp)
    37f8:	1481c50e 	bge	r2,r18,3f10 <_dtoa_r+0x10ec>
    37fc:	d8800817 	ldw	r2,32(sp)
    3800:	dc800815 	stw	r18,32(sp)
    3804:	9085c83a 	sub	r2,r18,r2
    3808:	b0ad883a 	add	r22,r22,r2
    380c:	0025883a 	mov	r18,zero
    3810:	d8800617 	ldw	r2,24(sp)
    3814:	10024c16 	blt	r2,zero,4148 <_dtoa_r+0x1324>
    3818:	d8c00517 	ldw	r3,20(sp)
    381c:	a0a9883a 	add	r20,r20,r2
    3820:	1885883a 	add	r2,r3,r2
    3824:	1827883a 	mov	r19,r3
    3828:	d8800515 	stw	r2,20(sp)
    382c:	01400044 	movi	r5,1
    3830:	e009883a 	mov	r4,fp
    3834:	00067480 	call	6748 <__i2b>
    3838:	1021883a 	mov	r16,r2
    383c:	04c0080e 	bge	zero,r19,3860 <_dtoa_r+0xa3c>
    3840:	0500070e 	bge	zero,r20,3860 <_dtoa_r+0xa3c>
    3844:	9805883a 	mov	r2,r19
    3848:	a4c1a916 	blt	r20,r19,3ef0 <_dtoa_r+0x10cc>
    384c:	d8c00517 	ldw	r3,20(sp)
    3850:	98a7c83a 	sub	r19,r19,r2
    3854:	a0a9c83a 	sub	r20,r20,r2
    3858:	1887c83a 	sub	r3,r3,r2
    385c:	d8c00515 	stw	r3,20(sp)
    3860:	d8800817 	ldw	r2,32(sp)
    3864:	10001426 	beq	r2,zero,38b8 <_dtoa_r+0xa94>
    3868:	d8800717 	ldw	r2,28(sp)
    386c:	10017226 	beq	r2,zero,3e38 <_dtoa_r+0x1014>
    3870:	04800e0e 	bge	zero,r18,38ac <_dtoa_r+0xa88>
    3874:	800b883a 	mov	r5,r16
    3878:	900d883a 	mov	r6,r18
    387c:	e009883a 	mov	r4,fp
    3880:	00069bc0 	call	69bc <__pow5mult>
    3884:	a80d883a 	mov	r6,r21
    3888:	100b883a 	mov	r5,r2
    388c:	e009883a 	mov	r4,fp
    3890:	1021883a 	mov	r16,r2
    3894:	000677c0 	call	677c <__multiply>
    3898:	102f883a 	mov	r23,r2
    389c:	a80b883a 	mov	r5,r21
    38a0:	e009883a 	mov	r4,fp
    38a4:	00063c40 	call	63c4 <_Bfree>
    38a8:	b82b883a 	mov	r21,r23
    38ac:	d8800817 	ldw	r2,32(sp)
    38b0:	148dc83a 	sub	r6,r2,r18
    38b4:	3001611e 	bne	r6,zero,3e3c <_dtoa_r+0x1018>
    38b8:	01400044 	movi	r5,1
    38bc:	e009883a 	mov	r4,fp
    38c0:	00067480 	call	6748 <__i2b>
    38c4:	1025883a 	mov	r18,r2
    38c8:	0580bc16 	blt	zero,r22,3bbc <_dtoa_r+0xd98>
    38cc:	d8800217 	ldw	r2,8(sp)
    38d0:	10800088 	cmpgei	r2,r2,2
    38d4:	10016526 	beq	r2,zero,3e6c <_dtoa_r+0x1048>
    38d8:	0023883a 	mov	r17,zero
    38dc:	00800044 	movi	r2,1
    38e0:	b000bf1e 	bne	r22,zero,3be0 <_dtoa_r+0xdbc>
    38e4:	1505883a 	add	r2,r2,r20
    38e8:	108007cc 	andi	r2,r2,31
    38ec:	1000aa26 	beq	r2,zero,3b98 <_dtoa_r+0xd74>
    38f0:	00c00804 	movi	r3,32
    38f4:	1887c83a 	sub	r3,r3,r2
    38f8:	19000150 	cmplti	r4,r3,5
    38fc:	2002f61e 	bne	r4,zero,44d8 <_dtoa_r+0x16b4>
    3900:	00c00704 	movi	r3,28
    3904:	1885c83a 	sub	r2,r3,r2
    3908:	d8c00517 	ldw	r3,20(sp)
    390c:	98a7883a 	add	r19,r19,r2
    3910:	a0a9883a 	add	r20,r20,r2
    3914:	1887883a 	add	r3,r3,r2
    3918:	d8c00515 	stw	r3,20(sp)
    391c:	d8800517 	ldw	r2,20(sp)
    3920:	00809716 	blt	zero,r2,3b80 <_dtoa_r+0xd5c>
    3924:	0500050e 	bge	zero,r20,393c <_dtoa_r+0xb18>
    3928:	900b883a 	mov	r5,r18
    392c:	a00d883a 	mov	r6,r20
    3930:	e009883a 	mov	r4,fp
    3934:	0006ae40 	call	6ae4 <__lshift>
    3938:	1025883a 	mov	r18,r2
    393c:	d8800917 	ldw	r2,36(sp)
    3940:	10012b1e 	bne	r2,zero,3df0 <_dtoa_r+0xfcc>
    3944:	d8800617 	ldw	r2,24(sp)
    3948:	00810d0e 	bge	zero,r2,3d80 <_dtoa_r+0xf5c>
    394c:	d8800417 	ldw	r2,16(sp)
    3950:	10800044 	addi	r2,r2,1
    3954:	d8800415 	stw	r2,16(sp)
    3958:	d8800717 	ldw	r2,28(sp)
    395c:	1000b21e 	bne	r2,zero,3c28 <_dtoa_r+0xe04>
    3960:	ddc00317 	ldw	r23,12(sp)
    3964:	04400044 	movi	r17,1
    3968:	dcc00617 	ldw	r19,24(sp)
    396c:	00000306 	br	397c <_dtoa_r+0xb58>
    3970:	00063e80 	call	63e8 <__multadd>
    3974:	102b883a 	mov	r21,r2
    3978:	8c400044 	addi	r17,r17,1
    397c:	900b883a 	mov	r5,r18
    3980:	a809883a 	mov	r4,r21
    3984:	0002bf00 	call	2bf0 <quorem>
    3988:	10800c04 	addi	r2,r2,48
    398c:	bdc00044 	addi	r23,r23,1
    3990:	b8bfffc5 	stb	r2,-1(r23)
    3994:	000f883a 	mov	r7,zero
    3998:	01800284 	movi	r6,10
    399c:	a80b883a 	mov	r5,r21
    39a0:	e009883a 	mov	r4,fp
    39a4:	8cfff216 	blt	r17,r19,3970 <_dtoa_r+0xb4c>
    39a8:	1011883a 	mov	r8,r2
    39ac:	0029883a 	mov	r20,zero
    39b0:	a80b883a 	mov	r5,r21
    39b4:	01800044 	movi	r6,1
    39b8:	e009883a 	mov	r4,fp
    39bc:	da000115 	stw	r8,4(sp)
    39c0:	0006ae40 	call	6ae4 <__lshift>
    39c4:	900b883a 	mov	r5,r18
    39c8:	1009883a 	mov	r4,r2
    39cc:	102b883a 	mov	r21,r2
    39d0:	0006c200 	call	6c20 <__mcmp>
    39d4:	b8ffffc3 	ldbu	r3,-1(r23)
    39d8:	0081610e 	bge	zero,r2,3f60 <_dtoa_r+0x113c>
    39dc:	d9400317 	ldw	r5,12(sp)
    39e0:	00000306 	br	39f0 <_dtoa_r+0xbcc>
    39e4:	29017726 	beq	r5,r4,3fc4 <_dtoa_r+0x11a0>
    39e8:	20ffffc3 	ldbu	r3,-1(r4)
    39ec:	202f883a 	mov	r23,r4
    39f0:	18803fcc 	andi	r2,r3,255
    39f4:	1080201c 	xori	r2,r2,128
    39f8:	10bfe004 	addi	r2,r2,-128
    39fc:	10800e60 	cmpeqi	r2,r2,57
    3a00:	b93fffc4 	addi	r4,r23,-1
    3a04:	103ff71e 	bne	r2,zero,39e4 <_dtoa_r+0xbc0>
    3a08:	18c00044 	addi	r3,r3,1
    3a0c:	20c00005 	stb	r3,0(r4)
    3a10:	900b883a 	mov	r5,r18
    3a14:	e009883a 	mov	r4,fp
    3a18:	00063c40 	call	63c4 <_Bfree>
    3a1c:	803e9326 	beq	r16,zero,346c <_dtoa_r+0x648>
    3a20:	a0000426 	beq	r20,zero,3a34 <_dtoa_r+0xc10>
    3a24:	a4000326 	beq	r20,r16,3a34 <_dtoa_r+0xc10>
    3a28:	a00b883a 	mov	r5,r20
    3a2c:	e009883a 	mov	r4,fp
    3a30:	00063c40 	call	63c4 <_Bfree>
    3a34:	800b883a 	mov	r5,r16
    3a38:	e009883a 	mov	r4,fp
    3a3c:	00063c40 	call	63c4 <_Bfree>
    3a40:	003e8a06 	br	346c <_dtoa_r+0x648>
    3a44:	d8000915 	stw	zero,36(sp)
    3a48:	a0003616 	blt	r20,zero,3b24 <_dtoa_r+0xd00>
    3a4c:	d8000515 	stw	zero,20(sp)
    3a50:	d8c00217 	ldw	r3,8(sp)
    3a54:	dd800415 	stw	r22,16(sp)
    3a58:	d8000815 	stw	zero,32(sp)
    3a5c:	188002a8 	cmpgeui	r2,r3,10
    3a60:	a5a9883a 	add	r20,r20,r22
    3a64:	103d9726 	beq	r2,zero,30c4 <_dtoa_r+0x2a0>
    3a68:	00800044 	movi	r2,1
    3a6c:	d8800715 	stw	r2,28(sp)
    3a70:	00bfffc4 	movi	r2,-1
    3a74:	04bfffc4 	movi	r18,-1
    3a78:	04000044 	movi	r16,1
    3a7c:	d8000215 	stw	zero,8(sp)
    3a80:	d8800615 	stw	r2,24(sp)
    3a84:	d8001e15 	stw	zero,120(sp)
    3a88:	d8800617 	ldw	r2,24(sp)
    3a8c:	e0001115 	stw	zero,68(fp)
    3a90:	000b883a 	mov	r5,zero
    3a94:	d8800b15 	stw	r2,44(sp)
    3a98:	003daa06 	br	3144 <_dtoa_r+0x320>
    3a9c:	18800160 	cmpeqi	r2,r3,5
    3aa0:	00c00044 	movi	r3,1
    3aa4:	d8c00715 	stw	r3,28(sp)
    3aa8:	10000d26 	beq	r2,zero,3ae0 <_dtoa_r+0xcbc>
    3aac:	d8801e17 	ldw	r2,120(sp)
    3ab0:	d8c00417 	ldw	r3,16(sp)
    3ab4:	10c5883a 	add	r2,r2,r3
    3ab8:	d8800b15 	stw	r2,44(sp)
    3abc:	10800044 	addi	r2,r2,1
    3ac0:	d8800615 	stw	r2,24(sp)
    3ac4:	100d883a 	mov	r6,r2
    3ac8:	00bd9216 	blt	zero,r2,3114 <_dtoa_r+0x2f0>
    3acc:	01800044 	movi	r6,1
    3ad0:	003d9006 	br	3114 <_dtoa_r+0x2f0>
    3ad4:	188000a0 	cmpeqi	r2,r3,2
    3ad8:	d8000715 	stw	zero,28(sp)
    3adc:	103d881e 	bne	r2,zero,3100 <_dtoa_r+0x2dc>
    3ae0:	e0001115 	stw	zero,68(fp)
    3ae4:	000b883a 	mov	r5,zero
    3ae8:	e009883a 	mov	r4,fp
    3aec:	00063200 	call	6320 <_Balloc>
    3af0:	d8800315 	stw	r2,12(sp)
    3af4:	e0801015 	stw	r2,64(fp)
    3af8:	00bfffc4 	movi	r2,-1
    3afc:	d8800b15 	stw	r2,44(sp)
    3b00:	00800044 	movi	r2,1
    3b04:	d8800715 	stw	r2,28(sp)
    3b08:	00bfffc4 	movi	r2,-1
    3b0c:	d8001e15 	stw	zero,120(sp)
    3b10:	d8800615 	stw	r2,24(sp)
    3b14:	003e8f06 	br	3554 <_dtoa_r+0x730>
    3b18:	00800044 	movi	r2,1
    3b1c:	d8800915 	stw	r2,36(sp)
    3b20:	a03d5c0e 	bge	r20,zero,3094 <_dtoa_r+0x270>
    3b24:	04800044 	movi	r18,1
    3b28:	9405c83a 	sub	r2,r18,r16
    3b2c:	d8800515 	stw	r2,20(sp)
    3b30:	0029883a 	mov	r20,zero
    3b34:	003d5806 	br	3098 <_dtoa_r+0x274>
    3b38:	b009883a 	mov	r4,r22
    3b3c:	000cd880 	call	cd88 <__floatsidf>
    3b40:	a00d883a 	mov	r6,r20
    3b44:	980f883a 	mov	r7,r19
    3b48:	1009883a 	mov	r4,r2
    3b4c:	180b883a 	mov	r5,r3
    3b50:	000b9080 	call	b908 <__eqdf2>
    3b54:	103d3e26 	beq	r2,zero,3050 <_dtoa_r+0x22c>
    3b58:	b5bfffc4 	addi	r22,r22,-1
    3b5c:	003d3c06 	br	3050 <_dtoa_r+0x22c>
    3b60:	00800074 	movhi	r2,1
    3b64:	10bd9104 	addi	r2,r2,-2492
    3b68:	d8800315 	stw	r2,12(sp)
    3b6c:	003cdf06 	br	2eec <_dtoa_r+0xc8>
    3b70:	dc800817 	ldw	r18,32(sp)
    3b74:	dcc00517 	ldw	r19,20(sp)
    3b78:	0021883a 	mov	r16,zero
    3b7c:	003f2f06 	br	383c <_dtoa_r+0xa18>
    3b80:	a80b883a 	mov	r5,r21
    3b84:	100d883a 	mov	r6,r2
    3b88:	e009883a 	mov	r4,fp
    3b8c:	0006ae40 	call	6ae4 <__lshift>
    3b90:	102b883a 	mov	r21,r2
    3b94:	003f6306 	br	3924 <_dtoa_r+0xb00>
    3b98:	00800704 	movi	r2,28
    3b9c:	003f5a06 	br	3908 <_dtoa_r+0xae4>
    3ba0:	01000804 	movi	r4,32
    3ba4:	2089c83a 	sub	r4,r4,r2
    3ba8:	d8800117 	ldw	r2,4(sp)
    3bac:	1108983a 	sll	r4,r2,r4
    3bb0:	003cf306 	br	2f80 <_dtoa_r+0x15c>
    3bb4:	04000044 	movi	r16,1
    3bb8:	003d4706 	br	30d8 <_dtoa_r+0x2b4>
    3bbc:	b00d883a 	mov	r6,r22
    3bc0:	100b883a 	mov	r5,r2
    3bc4:	e009883a 	mov	r4,fp
    3bc8:	00069bc0 	call	69bc <__pow5mult>
    3bcc:	1025883a 	mov	r18,r2
    3bd0:	d8800217 	ldw	r2,8(sp)
    3bd4:	10800090 	cmplti	r2,r2,2
    3bd8:	10012f1e 	bne	r2,zero,4098 <_dtoa_r+0x1274>
    3bdc:	0023883a 	mov	r17,zero
    3be0:	90800417 	ldw	r2,16(r18)
    3be4:	10800104 	addi	r2,r2,4
    3be8:	100490ba 	slli	r2,r2,2
    3bec:	9085883a 	add	r2,r18,r2
    3bf0:	11000017 	ldw	r4,0(r2)
    3bf4:	00066340 	call	6634 <__hi0bits>
    3bf8:	00c00804 	movi	r3,32
    3bfc:	1885c83a 	sub	r2,r3,r2
    3c00:	003f3806 	br	38e4 <_dtoa_r+0xac0>
    3c04:	800b883a 	mov	r5,r16
    3c08:	000f883a 	mov	r7,zero
    3c0c:	01800284 	movi	r6,10
    3c10:	e009883a 	mov	r4,fp
    3c14:	00063e80 	call	63e8 <__multadd>
    3c18:	1021883a 	mov	r16,r2
    3c1c:	d8800b17 	ldw	r2,44(sp)
    3c20:	00821b0e 	bge	zero,r2,4490 <_dtoa_r+0x166c>
    3c24:	d8800615 	stw	r2,24(sp)
    3c28:	04c0b316 	blt	zero,r19,3ef8 <_dtoa_r+0x10d4>
    3c2c:	8801341e 	bne	r17,zero,4100 <_dtoa_r+0x12dc>
    3c30:	8027883a 	mov	r19,r16
    3c34:	dc400317 	ldw	r17,12(sp)
    3c38:	d8c00617 	ldw	r3,24(sp)
    3c3c:	d8800117 	ldw	r2,4(sp)
    3c40:	8dffffc4 	addi	r23,r17,-1
    3c44:	b8c7883a 	add	r3,r23,r3
    3c48:	d8c00615 	stw	r3,24(sp)
    3c4c:	d8c00217 	ldw	r3,8(sp)
    3c50:	1080004c 	andi	r2,r2,1
    3c54:	d8800815 	stw	r2,32(sp)
    3c58:	10c4b03a 	or	r2,r2,r3
    3c5c:	d8800715 	stw	r2,28(sp)
    3c60:	00002c06 	br	3d14 <_dtoa_r+0xef0>
    3c64:	b80b883a 	mov	r5,r23
    3c68:	a809883a 	mov	r4,r21
    3c6c:	da000515 	stw	r8,20(sp)
    3c70:	0006c200 	call	6c20 <__mcmp>
    3c74:	b80b883a 	mov	r5,r23
    3c78:	e009883a 	mov	r4,fp
    3c7c:	d8800115 	stw	r2,4(sp)
    3c80:	00063c40 	call	63c4 <_Bfree>
    3c84:	d8800117 	ldw	r2,4(sp)
    3c88:	da000517 	ldw	r8,20(sp)
    3c8c:	1000021e 	bne	r2,zero,3c98 <_dtoa_r+0xe74>
    3c90:	d8c00717 	ldw	r3,28(sp)
    3c94:	1801f226 	beq	r3,zero,4460 <_dtoa_r+0x163c>
    3c98:	8dc00044 	addi	r23,r17,1
    3c9c:	a0010516 	blt	r20,zero,40b4 <_dtoa_r+0x1290>
    3ca0:	d8c00217 	ldw	r3,8(sp)
    3ca4:	a0e8b03a 	or	r20,r20,r3
    3ca8:	d8c00817 	ldw	r3,32(sp)
    3cac:	1d28b03a 	or	r20,r3,r20
    3cb0:	a0010026 	beq	r20,zero,40b4 <_dtoa_r+0x1290>
    3cb4:	00812816 	blt	zero,r2,4158 <_dtoa_r+0x1334>
    3cb8:	d8800617 	ldw	r2,24(sp)
    3cbc:	8a000005 	stb	r8,0(r17)
    3cc0:	14412926 	beq	r2,r17,4168 <_dtoa_r+0x1344>
    3cc4:	a80b883a 	mov	r5,r21
    3cc8:	000f883a 	mov	r7,zero
    3ccc:	01800284 	movi	r6,10
    3cd0:	e009883a 	mov	r4,fp
    3cd4:	00063e80 	call	63e8 <__multadd>
    3cd8:	102b883a 	mov	r21,r2
    3cdc:	000f883a 	mov	r7,zero
    3ce0:	01800284 	movi	r6,10
    3ce4:	800b883a 	mov	r5,r16
    3ce8:	e009883a 	mov	r4,fp
    3cec:	84c02026 	beq	r16,r19,3d70 <_dtoa_r+0xf4c>
    3cf0:	00063e80 	call	63e8 <__multadd>
    3cf4:	980b883a 	mov	r5,r19
    3cf8:	000f883a 	mov	r7,zero
    3cfc:	01800284 	movi	r6,10
    3d00:	e009883a 	mov	r4,fp
    3d04:	1021883a 	mov	r16,r2
    3d08:	00063e80 	call	63e8 <__multadd>
    3d0c:	1027883a 	mov	r19,r2
    3d10:	b823883a 	mov	r17,r23
    3d14:	900b883a 	mov	r5,r18
    3d18:	a809883a 	mov	r4,r21
    3d1c:	0002bf00 	call	2bf0 <quorem>
    3d20:	800b883a 	mov	r5,r16
    3d24:	a809883a 	mov	r4,r21
    3d28:	102d883a 	mov	r22,r2
    3d2c:	0006c200 	call	6c20 <__mcmp>
    3d30:	980d883a 	mov	r6,r19
    3d34:	900b883a 	mov	r5,r18
    3d38:	e009883a 	mov	r4,fp
    3d3c:	1029883a 	mov	r20,r2
    3d40:	0006c780 	call	6c78 <__mdiff>
    3d44:	102f883a 	mov	r23,r2
    3d48:	10800317 	ldw	r2,12(r2)
    3d4c:	b2000c04 	addi	r8,r22,48
    3d50:	103fc426 	beq	r2,zero,3c64 <_dtoa_r+0xe40>
    3d54:	b80b883a 	mov	r5,r23
    3d58:	e009883a 	mov	r4,fp
    3d5c:	da000115 	stw	r8,4(sp)
    3d60:	00063c40 	call	63c4 <_Bfree>
    3d64:	00800044 	movi	r2,1
    3d68:	da000117 	ldw	r8,4(sp)
    3d6c:	003fca06 	br	3c98 <_dtoa_r+0xe74>
    3d70:	00063e80 	call	63e8 <__multadd>
    3d74:	1021883a 	mov	r16,r2
    3d78:	1027883a 	mov	r19,r2
    3d7c:	003fe406 	br	3d10 <_dtoa_r+0xeec>
    3d80:	d8800217 	ldw	r2,8(sp)
    3d84:	108000d0 	cmplti	r2,r2,3
    3d88:	10004b1e 	bne	r2,zero,3eb8 <_dtoa_r+0x1094>
    3d8c:	d8800617 	ldw	r2,24(sp)
    3d90:	103e0d1e 	bne	r2,zero,35c8 <_dtoa_r+0x7a4>
    3d94:	900b883a 	mov	r5,r18
    3d98:	e009883a 	mov	r4,fp
    3d9c:	000f883a 	mov	r7,zero
    3da0:	01800144 	movi	r6,5
    3da4:	00063e80 	call	63e8 <__multadd>
    3da8:	100b883a 	mov	r5,r2
    3dac:	a809883a 	mov	r4,r21
    3db0:	1025883a 	mov	r18,r2
    3db4:	0006c200 	call	6c20 <__mcmp>
    3db8:	00be030e 	bge	zero,r2,35c8 <_dtoa_r+0x7a4>
    3dbc:	d8c00317 	ldw	r3,12(sp)
    3dc0:	00800c44 	movi	r2,49
    3dc4:	18800005 	stb	r2,0(r3)
    3dc8:	d8800417 	ldw	r2,16(sp)
    3dcc:	1dc00044 	addi	r23,r3,1
    3dd0:	14400044 	addi	r17,r2,1
    3dd4:	900b883a 	mov	r5,r18
    3dd8:	e009883a 	mov	r4,fp
    3ddc:	00063c40 	call	63c4 <_Bfree>
    3de0:	88800044 	addi	r2,r17,1
    3de4:	d8800415 	stw	r2,16(sp)
    3de8:	803f121e 	bne	r16,zero,3a34 <_dtoa_r+0xc10>
    3dec:	003d9f06 	br	346c <_dtoa_r+0x648>
    3df0:	900b883a 	mov	r5,r18
    3df4:	a809883a 	mov	r4,r21
    3df8:	0006c200 	call	6c20 <__mcmp>
    3dfc:	103ed10e 	bge	r2,zero,3944 <_dtoa_r+0xb20>
    3e00:	a80b883a 	mov	r5,r21
    3e04:	000f883a 	mov	r7,zero
    3e08:	01800284 	movi	r6,10
    3e0c:	e009883a 	mov	r4,fp
    3e10:	00063e80 	call	63e8 <__multadd>
    3e14:	102b883a 	mov	r21,r2
    3e18:	d8800417 	ldw	r2,16(sp)
    3e1c:	153fffc4 	addi	r20,r2,-1
    3e20:	d8800717 	ldw	r2,28(sp)
    3e24:	103f771e 	bne	r2,zero,3c04 <_dtoa_r+0xde0>
    3e28:	d8800b17 	ldw	r2,44(sp)
    3e2c:	0081910e 	bge	zero,r2,4474 <_dtoa_r+0x1650>
    3e30:	d8800615 	stw	r2,24(sp)
    3e34:	003eca06 	br	3960 <_dtoa_r+0xb3c>
    3e38:	d9800817 	ldw	r6,32(sp)
    3e3c:	a80b883a 	mov	r5,r21
    3e40:	e009883a 	mov	r4,fp
    3e44:	00069bc0 	call	69bc <__pow5mult>
    3e48:	102b883a 	mov	r21,r2
    3e4c:	003e9a06 	br	38b8 <_dtoa_r+0xa94>
    3e50:	00800074 	movhi	r2,1
    3e54:	1007883a 	mov	r3,r2
    3e58:	18fd9a04 	addi	r3,r3,-2456
    3e5c:	00800074 	movhi	r2,1
    3e60:	d8c00315 	stw	r3,12(sp)
    3e64:	10bd9ac4 	addi	r2,r2,-2453
    3e68:	003da506 	br	3500 <_dtoa_r+0x6dc>
    3e6c:	d8800117 	ldw	r2,4(sp)
    3e70:	103e991e 	bne	r2,zero,38d8 <_dtoa_r+0xab4>
    3e74:	00800434 	movhi	r2,16
    3e78:	10bfffc4 	addi	r2,r2,-1
    3e7c:	8884703a 	and	r2,r17,r2
    3e80:	103e951e 	bne	r2,zero,38d8 <_dtoa_r+0xab4>
    3e84:	8c5ffc2c 	andhi	r17,r17,32752
    3e88:	883e9326 	beq	r17,zero,38d8 <_dtoa_r+0xab4>
    3e8c:	d8800517 	ldw	r2,20(sp)
    3e90:	a5000044 	addi	r20,r20,1
    3e94:	04400044 	movi	r17,1
    3e98:	10800044 	addi	r2,r2,1
    3e9c:	d8800515 	stw	r2,20(sp)
    3ea0:	003e8e06 	br	38dc <_dtoa_r+0xab8>
    3ea4:	00800044 	movi	r2,1
    3ea8:	04800044 	movi	r18,1
    3eac:	d8800615 	stw	r2,24(sp)
    3eb0:	d8801e15 	stw	r2,120(sp)
    3eb4:	003ef406 	br	3a88 <_dtoa_r+0xc64>
    3eb8:	d8800417 	ldw	r2,16(sp)
    3ebc:	10800044 	addi	r2,r2,1
    3ec0:	d8800415 	stw	r2,16(sp)
    3ec4:	d8800717 	ldw	r2,28(sp)
    3ec8:	103f571e 	bne	r2,zero,3c28 <_dtoa_r+0xe04>
    3ecc:	900b883a 	mov	r5,r18
    3ed0:	a809883a 	mov	r4,r21
    3ed4:	0002bf00 	call	2bf0 <quorem>
    3ed8:	12000c04 	addi	r8,r2,48
    3edc:	d8800317 	ldw	r2,12(sp)
    3ee0:	0029883a 	mov	r20,zero
    3ee4:	15c00044 	addi	r23,r2,1
    3ee8:	12000005 	stb	r8,0(r2)
    3eec:	003eb006 	br	39b0 <_dtoa_r+0xb8c>
    3ef0:	a005883a 	mov	r2,r20
    3ef4:	003e5506 	br	384c <_dtoa_r+0xa28>
    3ef8:	800b883a 	mov	r5,r16
    3efc:	980d883a 	mov	r6,r19
    3f00:	e009883a 	mov	r4,fp
    3f04:	0006ae40 	call	6ae4 <__lshift>
    3f08:	1021883a 	mov	r16,r2
    3f0c:	003f4706 	br	3c2c <_dtoa_r+0xe08>
    3f10:	14a5c83a 	sub	r18,r2,r18
    3f14:	003e3e06 	br	3810 <_dtoa_r+0x9ec>
    3f18:	00800074 	movhi	r2,1
    3f1c:	10bdab04 	addi	r2,r2,-2388
    3f20:	11800817 	ldw	r6,32(r2)
    3f24:	11c00917 	ldw	r7,36(r2)
    3f28:	d9000117 	ldw	r4,4(sp)
    3f2c:	880b883a 	mov	r5,r17
    3f30:	da400e15 	stw	r9,56(sp)
    3f34:	da800d15 	stw	r10,52(sp)
    3f38:	000afa40 	call	afa4 <__divdf3>
    3f3c:	d8800c15 	stw	r2,48(sp)
    3f40:	1827883a 	mov	r19,r3
    3f44:	bdc003cc 	andi	r23,r23,15
    3f48:	040000c4 	movi	r16,3
    3f4c:	da800d17 	ldw	r10,52(sp)
    3f50:	da400e17 	ldw	r9,56(sp)
    3f54:	003c9206 	br	31a0 <_dtoa_r+0x37c>
    3f58:	d8000715 	stw	zero,28(sp)
    3f5c:	003ed306 	br	3aac <_dtoa_r+0xc88>
    3f60:	1000031e 	bne	r2,zero,3f70 <_dtoa_r+0x114c>
    3f64:	da000117 	ldw	r8,4(sp)
    3f68:	4200004c 	andi	r8,r8,1
    3f6c:	403e9b1e 	bne	r8,zero,39dc <_dtoa_r+0xbb8>
    3f70:	1805883a 	mov	r2,r3
    3f74:	00000206 	br	3f80 <_dtoa_r+0x115c>
    3f78:	b8bfff83 	ldbu	r2,-2(r23)
    3f7c:	182f883a 	mov	r23,r3
    3f80:	10803fcc 	andi	r2,r2,255
    3f84:	1080201c 	xori	r2,r2,128
    3f88:	10bfe004 	addi	r2,r2,-128
    3f8c:	10800c18 	cmpnei	r2,r2,48
    3f90:	b8ffffc4 	addi	r3,r23,-1
    3f94:	103ff826 	beq	r2,zero,3f78 <_dtoa_r+0x1154>
    3f98:	003e9d06 	br	3a10 <_dtoa_r+0xbec>
    3f9c:	d8c00a17 	ldw	r3,40(sp)
    3fa0:	1800bc26 	beq	r3,zero,4294 <_dtoa_r+0x1470>
    3fa4:	d8c00517 	ldw	r3,20(sp)
    3fa8:	10810cc4 	addi	r2,r2,1075
    3fac:	a0a9883a 	add	r20,r20,r2
    3fb0:	1885883a 	add	r2,r3,r2
    3fb4:	1827883a 	mov	r19,r3
    3fb8:	dc800817 	ldw	r18,32(sp)
    3fbc:	d8800515 	stw	r2,20(sp)
    3fc0:	003e1a06 	br	382c <_dtoa_r+0xa08>
    3fc4:	d8c00317 	ldw	r3,12(sp)
    3fc8:	00800c44 	movi	r2,49
    3fcc:	18800005 	stb	r2,0(r3)
    3fd0:	d8800417 	ldw	r2,16(sp)
    3fd4:	10800044 	addi	r2,r2,1
    3fd8:	d8800415 	stw	r2,16(sp)
    3fdc:	003e8c06 	br	3a10 <_dtoa_r+0xbec>
    3fe0:	8009883a 	mov	r4,r16
    3fe4:	000cd880 	call	cd88 <__floatsidf>
    3fe8:	900d883a 	mov	r6,r18
    3fec:	980f883a 	mov	r7,r19
    3ff0:	1009883a 	mov	r4,r2
    3ff4:	180b883a 	mov	r5,r3
    3ff8:	000bb680 	call	bb68 <__muldf3>
    3ffc:	000d883a 	mov	r6,zero
    4000:	01d00734 	movhi	r7,16412
    4004:	1009883a 	mov	r4,r2
    4008:	180b883a 	mov	r5,r3
    400c:	000a6040 	call	a604 <__adddf3>
    4010:	d8800c15 	stw	r2,48(sp)
    4014:	00bf3034 	movhi	r2,64704
    4018:	1885883a 	add	r2,r3,r2
    401c:	d8800d15 	stw	r2,52(sp)
    4020:	9009883a 	mov	r4,r18
    4024:	980b883a 	mov	r5,r19
    4028:	000d883a 	mov	r6,zero
    402c:	01d00534 	movhi	r7,16404
    4030:	000c3480 	call	c348 <__subdf3>
    4034:	ddc00c17 	ldw	r23,48(sp)
    4038:	dcc00d17 	ldw	r19,52(sp)
    403c:	1009883a 	mov	r4,r2
    4040:	b80d883a 	mov	r6,r23
    4044:	980f883a 	mov	r7,r19
    4048:	180b883a 	mov	r5,r3
    404c:	1025883a 	mov	r18,r2
    4050:	1821883a 	mov	r16,r3
    4054:	000b9880 	call	b988 <__gedf2>
    4058:	0080ee16 	blt	zero,r2,4414 <_dtoa_r+0x15f0>
    405c:	99e0003c 	xorhi	r7,r19,32768
    4060:	b80d883a 	mov	r6,r23
    4064:	9009883a 	mov	r4,r18
    4068:	800b883a 	mov	r5,r16
    406c:	000ba780 	call	ba78 <__ledf2>
    4070:	103d380e 	bge	r2,zero,3554 <_dtoa_r+0x730>
    4074:	0025883a 	mov	r18,zero
    4078:	0021883a 	mov	r16,zero
    407c:	003d5206 	br	35c8 <_dtoa_r+0x7a4>
    4080:	d8800417 	ldw	r2,16(sp)
    4084:	1000ad1e 	bne	r2,zero,433c <_dtoa_r+0x1518>
    4088:	dc800117 	ldw	r18,4(sp)
    408c:	8827883a 	mov	r19,r17
    4090:	04000084 	movi	r16,2
    4094:	003c5b06 	br	3204 <_dtoa_r+0x3e0>
    4098:	d8800117 	ldw	r2,4(sp)
    409c:	103ecf1e 	bne	r2,zero,3bdc <_dtoa_r+0xdb8>
    40a0:	00800434 	movhi	r2,16
    40a4:	10bfffc4 	addi	r2,r2,-1
    40a8:	8884703a 	and	r2,r17,r2
    40ac:	103f7526 	beq	r2,zero,3e84 <_dtoa_r+0x1060>
    40b0:	003eca06 	br	3bdc <_dtoa_r+0xdb8>
    40b4:	00800e0e 	bge	zero,r2,40f0 <_dtoa_r+0x12cc>
    40b8:	a80b883a 	mov	r5,r21
    40bc:	01800044 	movi	r6,1
    40c0:	e009883a 	mov	r4,fp
    40c4:	da000115 	stw	r8,4(sp)
    40c8:	0006ae40 	call	6ae4 <__lshift>
    40cc:	900b883a 	mov	r5,r18
    40d0:	1009883a 	mov	r4,r2
    40d4:	102b883a 	mov	r21,r2
    40d8:	0006c200 	call	6c20 <__mcmp>
    40dc:	da000117 	ldw	r8,4(sp)
    40e0:	0080d50e 	bge	zero,r2,4438 <_dtoa_r+0x1614>
    40e4:	42000e60 	cmpeqi	r8,r8,57
    40e8:	4000c31e 	bne	r8,zero,43f8 <_dtoa_r+0x15d4>
    40ec:	b2000c44 	addi	r8,r22,49
    40f0:	8029883a 	mov	r20,r16
    40f4:	8a000005 	stb	r8,0(r17)
    40f8:	9821883a 	mov	r16,r19
    40fc:	003e4406 	br	3a10 <_dtoa_r+0xbec>
    4100:	81400117 	ldw	r5,4(r16)
    4104:	e009883a 	mov	r4,fp
    4108:	00063200 	call	6320 <_Balloc>
    410c:	81800417 	ldw	r6,16(r16)
    4110:	81400304 	addi	r5,r16,12
    4114:	11000304 	addi	r4,r2,12
    4118:	31800084 	addi	r6,r6,2
    411c:	300c90ba 	slli	r6,r6,2
    4120:	1023883a 	mov	r17,r2
    4124:	00060040 	call	6004 <memcpy>
    4128:	01800044 	movi	r6,1
    412c:	880b883a 	mov	r5,r17
    4130:	e009883a 	mov	r4,fp
    4134:	0006ae40 	call	6ae4 <__lshift>
    4138:	1027883a 	mov	r19,r2
    413c:	003ebd06 	br	3c34 <_dtoa_r+0xe10>
    4140:	dd400117 	ldw	r21,4(sp)
    4144:	003cc906 	br	346c <_dtoa_r+0x648>
    4148:	d8800517 	ldw	r2,20(sp)
    414c:	d8c00617 	ldw	r3,24(sp)
    4150:	10e7c83a 	sub	r19,r2,r3
    4154:	003db506 	br	382c <_dtoa_r+0xa08>
    4158:	40800e58 	cmpnei	r2,r8,57
    415c:	1000a626 	beq	r2,zero,43f8 <_dtoa_r+0x15d4>
    4160:	42000044 	addi	r8,r8,1
    4164:	003fe206 	br	40f0 <_dtoa_r+0x12cc>
    4168:	8029883a 	mov	r20,r16
    416c:	9821883a 	mov	r16,r19
    4170:	003e0f06 	br	39b0 <_dtoa_r+0xb8c>
    4174:	d9000c17 	ldw	r4,48(sp)
    4178:	d9400d17 	ldw	r5,52(sp)
    417c:	da401015 	stw	r9,64(sp)
    4180:	000bb680 	call	bb68 <__muldf3>
    4184:	d9000e17 	ldw	r4,56(sp)
    4188:	d8c00d15 	stw	r3,52(sp)
    418c:	da401017 	ldw	r9,64(sp)
    4190:	d8c00317 	ldw	r3,12(sp)
    4194:	d8800c15 	stw	r2,48(sp)
    4198:	20800058 	cmpnei	r2,r4,1
    419c:	1a400005 	stb	r9,0(r3)
    41a0:	1907883a 	add	r3,r3,r4
    41a4:	1809883a 	mov	r4,r3
    41a8:	10001d26 	beq	r2,zero,4220 <_dtoa_r+0x13fc>
    41ac:	8007883a 	mov	r3,r16
    41b0:	9005883a 	mov	r2,r18
    41b4:	dc400e15 	stw	r17,56(sp)
    41b8:	2021883a 	mov	r16,r4
    41bc:	000d883a 	mov	r6,zero
    41c0:	01d00934 	movhi	r7,16420
    41c4:	1009883a 	mov	r4,r2
    41c8:	180b883a 	mov	r5,r3
    41cc:	000bb680 	call	bb68 <__muldf3>
    41d0:	180b883a 	mov	r5,r3
    41d4:	1009883a 	mov	r4,r2
    41d8:	1825883a 	mov	r18,r3
    41dc:	1023883a 	mov	r17,r2
    41e0:	000cd080 	call	cd08 <__fixdfsi>
    41e4:	1009883a 	mov	r4,r2
    41e8:	1027883a 	mov	r19,r2
    41ec:	000cd880 	call	cd88 <__floatsidf>
    41f0:	100d883a 	mov	r6,r2
    41f4:	180f883a 	mov	r7,r3
    41f8:	8809883a 	mov	r4,r17
    41fc:	900b883a 	mov	r5,r18
    4200:	bdc00044 	addi	r23,r23,1
    4204:	9cc00c04 	addi	r19,r19,48
    4208:	000c3480 	call	c348 <__subdf3>
    420c:	bcffffc5 	stb	r19,-1(r23)
    4210:	bc3fea1e 	bne	r23,r16,41bc <_dtoa_r+0x1398>
    4214:	dc400e17 	ldw	r17,56(sp)
    4218:	1025883a 	mov	r18,r2
    421c:	1821883a 	mov	r16,r3
    4220:	d9000c17 	ldw	r4,48(sp)
    4224:	d9400d17 	ldw	r5,52(sp)
    4228:	000d883a 	mov	r6,zero
    422c:	01cff834 	movhi	r7,16352
    4230:	000a6040 	call	a604 <__adddf3>
    4234:	100d883a 	mov	r6,r2
    4238:	180f883a 	mov	r7,r3
    423c:	9009883a 	mov	r4,r18
    4240:	800b883a 	mov	r5,r16
    4244:	000b9880 	call	b988 <__gedf2>
    4248:	00807516 	blt	zero,r2,4420 <_dtoa_r+0x15fc>
    424c:	d9800c17 	ldw	r6,48(sp)
    4250:	d9c00d17 	ldw	r7,52(sp)
    4254:	0009883a 	mov	r4,zero
    4258:	014ff834 	movhi	r5,16352
    425c:	000c3480 	call	c348 <__subdf3>
    4260:	100d883a 	mov	r6,r2
    4264:	180f883a 	mov	r7,r3
    4268:	9009883a 	mov	r4,r18
    426c:	800b883a 	mov	r5,r16
    4270:	000ba780 	call	ba78 <__ledf2>
    4274:	103cb70e 	bge	r2,zero,3554 <_dtoa_r+0x730>
    4278:	00000106 	br	4280 <_dtoa_r+0x145c>
    427c:	182f883a 	mov	r23,r3
    4280:	b8bfffc7 	ldb	r2,-1(r23)
    4284:	b8ffffc4 	addi	r3,r23,-1
    4288:	10800c20 	cmpeqi	r2,r2,48
    428c:	103ffb1e 	bne	r2,zero,427c <_dtoa_r+0x1458>
    4290:	003c7306 	br	3460 <_dtoa_r+0x63c>
    4294:	d8c01217 	ldw	r3,72(sp)
    4298:	d9000517 	ldw	r4,20(sp)
    429c:	00800d84 	movi	r2,54
    42a0:	10c5c83a 	sub	r2,r2,r3
    42a4:	a0a9883a 	add	r20,r20,r2
    42a8:	2085883a 	add	r2,r4,r2
    42ac:	2027883a 	mov	r19,r4
    42b0:	dc800817 	ldw	r18,32(sp)
    42b4:	d8800515 	stw	r2,20(sp)
    42b8:	003d5c06 	br	382c <_dtoa_r+0xa08>
    42bc:	d8800617 	ldw	r2,24(sp)
    42c0:	103f4726 	beq	r2,zero,3fe0 <_dtoa_r+0x11bc>
    42c4:	ddc00b17 	ldw	r23,44(sp)
    42c8:	05fca20e 	bge	zero,r23,3554 <_dtoa_r+0x730>
    42cc:	980b883a 	mov	r5,r19
    42d0:	000d883a 	mov	r6,zero
    42d4:	01d00934 	movhi	r7,16420
    42d8:	9009883a 	mov	r4,r18
    42dc:	000bb680 	call	bb68 <__muldf3>
    42e0:	81000044 	addi	r4,r16,1
    42e4:	1025883a 	mov	r18,r2
    42e8:	1827883a 	mov	r19,r3
    42ec:	000cd880 	call	cd88 <__floatsidf>
    42f0:	900d883a 	mov	r6,r18
    42f4:	980f883a 	mov	r7,r19
    42f8:	1009883a 	mov	r4,r2
    42fc:	180b883a 	mov	r5,r3
    4300:	000bb680 	call	bb68 <__muldf3>
    4304:	000d883a 	mov	r6,zero
    4308:	01d00734 	movhi	r7,16412
    430c:	1009883a 	mov	r4,r2
    4310:	180b883a 	mov	r5,r3
    4314:	000a6040 	call	a604 <__adddf3>
    4318:	d8800c15 	stw	r2,48(sp)
    431c:	d8800417 	ldw	r2,16(sp)
    4320:	ddc00e15 	stw	r23,56(sp)
    4324:	10bfffc4 	addi	r2,r2,-1
    4328:	d8800f15 	stw	r2,60(sp)
    432c:	00bf3034 	movhi	r2,64704
    4330:	1885883a 	add	r2,r3,r2
    4334:	d8800d15 	stw	r2,52(sp)
    4338:	003bd006 	br	327c <_dtoa_r+0x458>
    433c:	d8800417 	ldw	r2,16(sp)
    4340:	d9000117 	ldw	r4,4(sp)
    4344:	880b883a 	mov	r5,r17
    4348:	00afc83a 	sub	r23,zero,r2
    434c:	b88003cc 	andi	r2,r23,15
    4350:	100690fa 	slli	r3,r2,3
    4354:	00800074 	movhi	r2,1
    4358:	10bdb504 	addi	r2,r2,-2348
    435c:	10c5883a 	add	r2,r2,r3
    4360:	11800017 	ldw	r6,0(r2)
    4364:	11c00117 	ldw	r7,4(r2)
    4368:	b82fd13a 	srai	r23,r23,4
    436c:	000bb680 	call	bb68 <__muldf3>
    4370:	1025883a 	mov	r18,r2
    4374:	1827883a 	mov	r19,r3
    4378:	b8004a26 	beq	r23,zero,44a4 <_dtoa_r+0x1680>
    437c:	02000074 	movhi	r8,1
    4380:	04000084 	movi	r16,2
    4384:	423dab04 	addi	r8,r8,-2388
    4388:	dc400c15 	stw	r17,48(sp)
    438c:	000f883a 	mov	r7,zero
    4390:	8023883a 	mov	r17,r16
    4394:	4021883a 	mov	r16,r8
    4398:	b980004c 	andi	r6,r23,1
    439c:	1009883a 	mov	r4,r2
    43a0:	b82fd07a 	srai	r23,r23,1
    43a4:	180b883a 	mov	r5,r3
    43a8:	30000526 	beq	r6,zero,43c0 <_dtoa_r+0x159c>
    43ac:	81c00117 	ldw	r7,4(r16)
    43b0:	81800017 	ldw	r6,0(r16)
    43b4:	8c400044 	addi	r17,r17,1
    43b8:	000bb680 	call	bb68 <__muldf3>
    43bc:	01c00044 	movi	r7,1
    43c0:	84000204 	addi	r16,r16,8
    43c4:	b83ff41e 	bne	r23,zero,4398 <_dtoa_r+0x1574>
    43c8:	39c03fcc 	andi	r7,r7,255
    43cc:	8821883a 	mov	r16,r17
    43d0:	dc400c17 	ldw	r17,48(sp)
    43d4:	383b8b26 	beq	r7,zero,3204 <_dtoa_r+0x3e0>
    43d8:	1025883a 	mov	r18,r2
    43dc:	1827883a 	mov	r19,r3
    43e0:	003b8806 	br	3204 <_dtoa_r+0x3e0>
    43e4:	d8800417 	ldw	r2,16(sp)
    43e8:	02000c44 	movi	r8,49
    43ec:	10800044 	addi	r2,r2,1
    43f0:	d8800415 	stw	r2,16(sp)
    43f4:	003cf606 	br	37d0 <_dtoa_r+0x9ac>
    43f8:	00800e44 	movi	r2,57
    43fc:	8029883a 	mov	r20,r16
    4400:	88800005 	stb	r2,0(r17)
    4404:	9821883a 	mov	r16,r19
    4408:	00c00e44 	movi	r3,57
    440c:	d9400317 	ldw	r5,12(sp)
    4410:	003d7706 	br	39f0 <_dtoa_r+0xbcc>
    4414:	0025883a 	mov	r18,zero
    4418:	0021883a 	mov	r16,zero
    441c:	003e6706 	br	3dbc <_dtoa_r+0xf98>
    4420:	d8800f17 	ldw	r2,60(sp)
    4424:	ba3fffc3 	ldbu	r8,-1(r23)
    4428:	d9000317 	ldw	r4,12(sp)
    442c:	10800044 	addi	r2,r2,1
    4430:	d8800415 	stw	r2,16(sp)
    4434:	003cdf06 	br	37b4 <_dtoa_r+0x990>
    4438:	103f2d1e 	bne	r2,zero,40f0 <_dtoa_r+0x12cc>
    443c:	4080004c 	andi	r2,r8,1
    4440:	103f281e 	bne	r2,zero,40e4 <_dtoa_r+0x12c0>
    4444:	003f2a06 	br	40f0 <_dtoa_r+0x12cc>
    4448:	d8800f17 	ldw	r2,60(sp)
    444c:	8811883a 	mov	r8,r17
    4450:	d9000317 	ldw	r4,12(sp)
    4454:	10800044 	addi	r2,r2,1
    4458:	d8800415 	stw	r2,16(sp)
    445c:	003cd506 	br	37b4 <_dtoa_r+0x990>
    4460:	40800e60 	cmpeqi	r2,r8,57
    4464:	8dc00044 	addi	r23,r17,1
    4468:	103fe31e 	bne	r2,zero,43f8 <_dtoa_r+0x15d4>
    446c:	053f1f16 	blt	zero,r20,40ec <_dtoa_r+0x12c8>
    4470:	003f1f06 	br	40f0 <_dtoa_r+0x12cc>
    4474:	d8800217 	ldw	r2,8(sp)
    4478:	108000c8 	cmpgei	r2,r2,3
    447c:	103e9326 	beq	r2,zero,3ecc <_dtoa_r+0x10a8>
    4480:	d8800b17 	ldw	r2,44(sp)
    4484:	dd000415 	stw	r20,16(sp)
    4488:	d8800615 	stw	r2,24(sp)
    448c:	003e3f06 	br	3d8c <_dtoa_r+0xf68>
    4490:	d8800217 	ldw	r2,8(sp)
    4494:	108000c8 	cmpgei	r2,r2,3
    4498:	103ff91e 	bne	r2,zero,4480 <_dtoa_r+0x165c>
    449c:	d8800b17 	ldw	r2,44(sp)
    44a0:	003de006 	br	3c24 <_dtoa_r+0xe00>
    44a4:	04000084 	movi	r16,2
    44a8:	003b5606 	br	3204 <_dtoa_r+0x3e0>
    44ac:	d8800f17 	ldw	r2,60(sp)
    44b0:	d9000317 	ldw	r4,12(sp)
    44b4:	10800044 	addi	r2,r2,1
    44b8:	d8800415 	stw	r2,16(sp)
    44bc:	003cbd06 	br	37b4 <_dtoa_r+0x990>
    44c0:	00800074 	movhi	r2,1
    44c4:	10bd9b04 	addi	r2,r2,-2452
    44c8:	d8800315 	stw	r2,12(sp)
    44cc:	003a8706 	br	2eec <_dtoa_r+0xc8>
    44d0:	000b883a 	mov	r5,zero
    44d4:	003b1b06 	br	3144 <_dtoa_r+0x320>
    44d8:	18c00120 	cmpeqi	r3,r3,4
    44dc:	183d0f1e 	bne	r3,zero,391c <_dtoa_r+0xaf8>
    44e0:	00c00f04 	movi	r3,60
    44e4:	1885c83a 	sub	r2,r3,r2
    44e8:	003d0706 	br	3908 <_dtoa_r+0xae4>

000044ec <__sflush_r>:
    44ec:	2880030b 	ldhu	r2,12(r5)
    44f0:	defffb04 	addi	sp,sp,-20
    44f4:	dcc00315 	stw	r19,12(sp)
    44f8:	dc000015 	stw	r16,0(sp)
    44fc:	dfc00415 	stw	ra,16(sp)
    4500:	dc800215 	stw	r18,8(sp)
    4504:	dc400115 	stw	r17,4(sp)
    4508:	10c0020c 	andi	r3,r2,8
    450c:	2821883a 	mov	r16,r5
    4510:	2027883a 	mov	r19,r4
    4514:	18003f1e 	bne	r3,zero,4614 <__sflush_r+0x128>
    4518:	28c00117 	ldw	r3,4(r5)
    451c:	10820014 	ori	r2,r2,2048
    4520:	2880030d 	sth	r2,12(r5)
    4524:	00c0550e 	bge	zero,r3,467c <__sflush_r+0x190>
    4528:	82000a17 	ldw	r8,40(r16)
    452c:	40003126 	beq	r8,zero,45f4 <__sflush_r+0x108>
    4530:	9c400017 	ldw	r17,0(r19)
    4534:	1104000c 	andi	r4,r2,4096
    4538:	98000015 	stw	zero,0(r19)
    453c:	1007883a 	mov	r3,r2
    4540:	81400717 	ldw	r5,28(r16)
    4544:	2000521e 	bne	r4,zero,4690 <__sflush_r+0x1a4>
    4548:	01c00044 	movi	r7,1
    454c:	000d883a 	mov	r6,zero
    4550:	9809883a 	mov	r4,r19
    4554:	403ee83a 	callr	r8
    4558:	10ffffd8 	cmpnei	r3,r2,-1
    455c:	18005826 	beq	r3,zero,46c0 <__sflush_r+0x1d4>
    4560:	80c0030b 	ldhu	r3,12(r16)
    4564:	82000a17 	ldw	r8,40(r16)
    4568:	81400717 	ldw	r5,28(r16)
    456c:	18c0010c 	andi	r3,r3,4
    4570:	18000626 	beq	r3,zero,458c <__sflush_r+0xa0>
    4574:	81000117 	ldw	r4,4(r16)
    4578:	80c00c17 	ldw	r3,48(r16)
    457c:	1105c83a 	sub	r2,r2,r4
    4580:	18000226 	beq	r3,zero,458c <__sflush_r+0xa0>
    4584:	80c00f17 	ldw	r3,60(r16)
    4588:	10c5c83a 	sub	r2,r2,r3
    458c:	000f883a 	mov	r7,zero
    4590:	100d883a 	mov	r6,r2
    4594:	9809883a 	mov	r4,r19
    4598:	403ee83a 	callr	r8
    459c:	10ffffd8 	cmpnei	r3,r2,-1
    45a0:	18003d1e 	bne	r3,zero,4698 <__sflush_r+0x1ac>
    45a4:	99000017 	ldw	r4,0(r19)
    45a8:	80c0030b 	ldhu	r3,12(r16)
    45ac:	20004e26 	beq	r4,zero,46e8 <__sflush_r+0x1fc>
    45b0:	21400760 	cmpeqi	r5,r4,29
    45b4:	2800021e 	bne	r5,zero,45c0 <__sflush_r+0xd4>
    45b8:	210005a0 	cmpeqi	r4,r4,22
    45bc:	20002c26 	beq	r4,zero,4670 <__sflush_r+0x184>
    45c0:	80800417 	ldw	r2,16(r16)
    45c4:	18fdffcc 	andi	r3,r3,63487
    45c8:	80c0030d 	sth	r3,12(r16)
    45cc:	80000115 	stw	zero,4(r16)
    45d0:	80800015 	stw	r2,0(r16)
    45d4:	81400c17 	ldw	r5,48(r16)
    45d8:	9c400015 	stw	r17,0(r19)
    45dc:	28000526 	beq	r5,zero,45f4 <__sflush_r+0x108>
    45e0:	80801004 	addi	r2,r16,64
    45e4:	28800226 	beq	r5,r2,45f0 <__sflush_r+0x104>
    45e8:	9809883a 	mov	r4,r19
    45ec:	0004c0c0 	call	4c0c <_free_r>
    45f0:	80000c15 	stw	zero,48(r16)
    45f4:	0005883a 	mov	r2,zero
    45f8:	dfc00417 	ldw	ra,16(sp)
    45fc:	dcc00317 	ldw	r19,12(sp)
    4600:	dc800217 	ldw	r18,8(sp)
    4604:	dc400117 	ldw	r17,4(sp)
    4608:	dc000017 	ldw	r16,0(sp)
    460c:	dec00504 	addi	sp,sp,20
    4610:	f800283a 	ret
    4614:	2c800417 	ldw	r18,16(r5)
    4618:	903ff626 	beq	r18,zero,45f4 <__sflush_r+0x108>
    461c:	2c400017 	ldw	r17,0(r5)
    4620:	108000cc 	andi	r2,r2,3
    4624:	2c800015 	stw	r18,0(r5)
    4628:	8ca3c83a 	sub	r17,r17,r18
    462c:	1000161e 	bne	r2,zero,4688 <__sflush_r+0x19c>
    4630:	28800517 	ldw	r2,20(r5)
    4634:	80800215 	stw	r2,8(r16)
    4638:	04400316 	blt	zero,r17,4648 <__sflush_r+0x15c>
    463c:	003fed06 	br	45f4 <__sflush_r+0x108>
    4640:	90a5883a 	add	r18,r18,r2
    4644:	047feb0e 	bge	zero,r17,45f4 <__sflush_r+0x108>
    4648:	80800917 	ldw	r2,36(r16)
    464c:	81400717 	ldw	r5,28(r16)
    4650:	880f883a 	mov	r7,r17
    4654:	900d883a 	mov	r6,r18
    4658:	9809883a 	mov	r4,r19
    465c:	103ee83a 	callr	r2
    4660:	88a3c83a 	sub	r17,r17,r2
    4664:	00bff616 	blt	zero,r2,4640 <__sflush_r+0x154>
    4668:	80c0030b 	ldhu	r3,12(r16)
    466c:	00bfffc4 	movi	r2,-1
    4670:	18c01014 	ori	r3,r3,64
    4674:	80c0030d 	sth	r3,12(r16)
    4678:	003fdf06 	br	45f8 <__sflush_r+0x10c>
    467c:	28c00f17 	ldw	r3,60(r5)
    4680:	00ffa916 	blt	zero,r3,4528 <__sflush_r+0x3c>
    4684:	003fdb06 	br	45f4 <__sflush_r+0x108>
    4688:	0005883a 	mov	r2,zero
    468c:	003fe906 	br	4634 <__sflush_r+0x148>
    4690:	80801417 	ldw	r2,80(r16)
    4694:	003fb506 	br	456c <__sflush_r+0x80>
    4698:	80c0030b 	ldhu	r3,12(r16)
    469c:	81000417 	ldw	r4,16(r16)
    46a0:	80000115 	stw	zero,4(r16)
    46a4:	197dffcc 	andi	r5,r3,63487
    46a8:	8140030d 	sth	r5,12(r16)
    46ac:	81000015 	stw	r4,0(r16)
    46b0:	18c4000c 	andi	r3,r3,4096
    46b4:	183fc726 	beq	r3,zero,45d4 <__sflush_r+0xe8>
    46b8:	80801415 	stw	r2,80(r16)
    46bc:	003fc506 	br	45d4 <__sflush_r+0xe8>
    46c0:	98c00017 	ldw	r3,0(r19)
    46c4:	183fa626 	beq	r3,zero,4560 <__sflush_r+0x74>
    46c8:	19000760 	cmpeqi	r4,r3,29
    46cc:	20000e1e 	bne	r4,zero,4708 <__sflush_r+0x21c>
    46d0:	18c00598 	cmpnei	r3,r3,22
    46d4:	18000c26 	beq	r3,zero,4708 <__sflush_r+0x21c>
    46d8:	80c0030b 	ldhu	r3,12(r16)
    46dc:	18c01014 	ori	r3,r3,64
    46e0:	80c0030d 	sth	r3,12(r16)
    46e4:	003fc406 	br	45f8 <__sflush_r+0x10c>
    46e8:	81000417 	ldw	r4,16(r16)
    46ec:	197dffcc 	andi	r5,r3,63487
    46f0:	8140030d 	sth	r5,12(r16)
    46f4:	80000115 	stw	zero,4(r16)
    46f8:	81000015 	stw	r4,0(r16)
    46fc:	18c4000c 	andi	r3,r3,4096
    4700:	183fb426 	beq	r3,zero,45d4 <__sflush_r+0xe8>
    4704:	003fec06 	br	46b8 <__sflush_r+0x1cc>
    4708:	9c400015 	stw	r17,0(r19)
    470c:	0005883a 	mov	r2,zero
    4710:	003fb906 	br	45f8 <__sflush_r+0x10c>

00004714 <_fflush_r>:
    4714:	defffd04 	addi	sp,sp,-12
    4718:	dc000115 	stw	r16,4(sp)
    471c:	dfc00215 	stw	ra,8(sp)
    4720:	2021883a 	mov	r16,r4
    4724:	20000226 	beq	r4,zero,4730 <_fflush_r+0x1c>
    4728:	20800e17 	ldw	r2,56(r4)
    472c:	10000726 	beq	r2,zero,474c <_fflush_r+0x38>
    4730:	2880030f 	ldh	r2,12(r5)
    4734:	10000a1e 	bne	r2,zero,4760 <_fflush_r+0x4c>
    4738:	0005883a 	mov	r2,zero
    473c:	dfc00217 	ldw	ra,8(sp)
    4740:	dc000117 	ldw	r16,4(sp)
    4744:	dec00304 	addi	sp,sp,12
    4748:	f800283a 	ret
    474c:	d9400015 	stw	r5,0(sp)
    4750:	0004aa80 	call	4aa8 <__sinit>
    4754:	d9400017 	ldw	r5,0(sp)
    4758:	2880030f 	ldh	r2,12(r5)
    475c:	103ff626 	beq	r2,zero,4738 <_fflush_r+0x24>
    4760:	8009883a 	mov	r4,r16
    4764:	dfc00217 	ldw	ra,8(sp)
    4768:	dc000117 	ldw	r16,4(sp)
    476c:	dec00304 	addi	sp,sp,12
    4770:	00044ec1 	jmpi	44ec <__sflush_r>

00004774 <fflush>:
    4774:	200b883a 	mov	r5,r4
    4778:	20000326 	beq	r4,zero,4788 <fflush+0x14>
    477c:	00800074 	movhi	r2,1
    4780:	1105f217 	ldw	r4,6088(r2)
    4784:	00047141 	jmpi	4714 <_fflush_r>
    4788:	00800074 	movhi	r2,1
    478c:	1105f117 	ldw	r4,6084(r2)
    4790:	01400034 	movhi	r5,0
    4794:	2951c504 	addi	r5,r5,18196
    4798:	00054801 	jmpi	5480 <_fwalk_reent>

0000479c <__fp_lock>:
    479c:	0005883a 	mov	r2,zero
    47a0:	f800283a 	ret

000047a4 <_cleanup_r>:
    47a4:	01400074 	movhi	r5,1
    47a8:	29645004 	addi	r5,r5,-28352
    47ac:	00054801 	jmpi	5480 <_fwalk_reent>

000047b0 <__sinit.part.0>:
    47b0:	00c00034 	movhi	r3,0
    47b4:	20800117 	ldw	r2,4(r4)
    47b8:	18d1e904 	addi	r3,r3,18340
    47bc:	20c00f15 	stw	r3,60(r4)
    47c0:	2140bb04 	addi	r5,r4,748
    47c4:	00c000c4 	movi	r3,3
    47c8:	20c0b915 	stw	r3,740(r4)
    47cc:	2140ba15 	stw	r5,744(r4)
    47d0:	2000b815 	stw	zero,736(r4)
    47d4:	10001705 	stb	zero,92(r2)
    47d8:	10001745 	stb	zero,93(r2)
    47dc:	10001785 	stb	zero,94(r2)
    47e0:	100017c5 	stb	zero,95(r2)
    47e4:	10001805 	stb	zero,96(r2)
    47e8:	10001845 	stb	zero,97(r2)
    47ec:	10001885 	stb	zero,98(r2)
    47f0:	100018c5 	stb	zero,99(r2)
    47f4:	00c00104 	movi	r3,4
    47f8:	10c00315 	stw	r3,12(r2)
    47fc:	02000034 	movhi	r8,0
    4800:	20c00217 	ldw	r3,8(r4)
    4804:	01c00034 	movhi	r7,0
    4808:	01800034 	movhi	r6,0
    480c:	01400034 	movhi	r5,0
    4810:	421e5604 	addi	r8,r8,31064
    4814:	39de6d04 	addi	r7,r7,31156
    4818:	319e8d04 	addi	r6,r6,31284
    481c:	295ea404 	addi	r5,r5,31376
    4820:	02400074 	movhi	r9,1
    4824:	10001915 	stw	zero,100(r2)
    4828:	10000015 	stw	zero,0(r2)
    482c:	10000115 	stw	zero,4(r2)
    4830:	10000215 	stw	zero,8(r2)
    4834:	10000415 	stw	zero,16(r2)
    4838:	10000515 	stw	zero,20(r2)
    483c:	10000615 	stw	zero,24(r2)
    4840:	10800715 	stw	r2,28(r2)
    4844:	12000815 	stw	r8,32(r2)
    4848:	11c00915 	stw	r7,36(r2)
    484c:	11800a15 	stw	r6,40(r2)
    4850:	11400b15 	stw	r5,44(r2)
    4854:	4a400284 	addi	r9,r9,10
    4858:	1a400315 	stw	r9,12(r3)
    485c:	18001915 	stw	zero,100(r3)
    4860:	18000015 	stw	zero,0(r3)
    4864:	18000115 	stw	zero,4(r3)
    4868:	18000215 	stw	zero,8(r3)
    486c:	18000415 	stw	zero,16(r3)
    4870:	18001705 	stb	zero,92(r3)
    4874:	18001745 	stb	zero,93(r3)
    4878:	18001785 	stb	zero,94(r3)
    487c:	180017c5 	stb	zero,95(r3)
    4880:	18001805 	stb	zero,96(r3)
    4884:	18001845 	stb	zero,97(r3)
    4888:	18001885 	stb	zero,98(r3)
    488c:	180018c5 	stb	zero,99(r3)
    4890:	20800317 	ldw	r2,12(r4)
    4894:	024000b4 	movhi	r9,2
    4898:	18000515 	stw	zero,20(r3)
    489c:	18000615 	stw	zero,24(r3)
    48a0:	18c00715 	stw	r3,28(r3)
    48a4:	1a000815 	stw	r8,32(r3)
    48a8:	19c00915 	stw	r7,36(r3)
    48ac:	19800a15 	stw	r6,40(r3)
    48b0:	19400b15 	stw	r5,44(r3)
    48b4:	4a400484 	addi	r9,r9,18
    48b8:	10001915 	stw	zero,100(r2)
    48bc:	10000015 	stw	zero,0(r2)
    48c0:	10000115 	stw	zero,4(r2)
    48c4:	10000215 	stw	zero,8(r2)
    48c8:	12400315 	stw	r9,12(r2)
    48cc:	10000415 	stw	zero,16(r2)
    48d0:	10000515 	stw	zero,20(r2)
    48d4:	10000615 	stw	zero,24(r2)
    48d8:	10001705 	stb	zero,92(r2)
    48dc:	10001745 	stb	zero,93(r2)
    48e0:	10001785 	stb	zero,94(r2)
    48e4:	100017c5 	stb	zero,95(r2)
    48e8:	10001805 	stb	zero,96(r2)
    48ec:	10001845 	stb	zero,97(r2)
    48f0:	10001885 	stb	zero,98(r2)
    48f4:	100018c5 	stb	zero,99(r2)
    48f8:	10800715 	stw	r2,28(r2)
    48fc:	12000815 	stw	r8,32(r2)
    4900:	11c00915 	stw	r7,36(r2)
    4904:	11800a15 	stw	r6,40(r2)
    4908:	11400b15 	stw	r5,44(r2)
    490c:	00800044 	movi	r2,1
    4910:	20800e15 	stw	r2,56(r4)
    4914:	f800283a 	ret

00004918 <__fp_unlock>:
    4918:	0005883a 	mov	r2,zero
    491c:	f800283a 	ret

00004920 <__sfmoreglue>:
    4920:	defffc04 	addi	sp,sp,-16
    4924:	dc800215 	stw	r18,8(sp)
    4928:	2825883a 	mov	r18,r5
    492c:	dc000015 	stw	r16,0(sp)
    4930:	01401a04 	movi	r5,104
    4934:	2021883a 	mov	r16,r4
    4938:	913fffc4 	addi	r4,r18,-1
    493c:	dfc00315 	stw	ra,12(sp)
    4940:	dc400115 	stw	r17,4(sp)
    4944:	000a5dc0 	call	a5dc <__mulsi3>
    4948:	8009883a 	mov	r4,r16
    494c:	11401d04 	addi	r5,r2,116
    4950:	1023883a 	mov	r17,r2
    4954:	00057280 	call	5728 <_malloc_r>
    4958:	1021883a 	mov	r16,r2
    495c:	10000726 	beq	r2,zero,497c <__sfmoreglue+0x5c>
    4960:	11000304 	addi	r4,r2,12
    4964:	10000015 	stw	zero,0(r2)
    4968:	14800115 	stw	r18,4(r2)
    496c:	11000215 	stw	r4,8(r2)
    4970:	89801a04 	addi	r6,r17,104
    4974:	000b883a 	mov	r5,zero
    4978:	00062300 	call	6230 <memset>
    497c:	8005883a 	mov	r2,r16
    4980:	dfc00317 	ldw	ra,12(sp)
    4984:	dc800217 	ldw	r18,8(sp)
    4988:	dc400117 	ldw	r17,4(sp)
    498c:	dc000017 	ldw	r16,0(sp)
    4990:	dec00404 	addi	sp,sp,16
    4994:	f800283a 	ret

00004998 <__sfp>:
    4998:	defffd04 	addi	sp,sp,-12
    499c:	00800074 	movhi	r2,1
    49a0:	dc000015 	stw	r16,0(sp)
    49a4:	1405f117 	ldw	r16,6084(r2)
    49a8:	dc400115 	stw	r17,4(sp)
    49ac:	dfc00215 	stw	ra,8(sp)
    49b0:	80800e17 	ldw	r2,56(r16)
    49b4:	2023883a 	mov	r17,r4
    49b8:	10002b26 	beq	r2,zero,4a68 <__sfp+0xd0>
    49bc:	8400b804 	addi	r16,r16,736
    49c0:	80c00117 	ldw	r3,4(r16)
    49c4:	80800217 	ldw	r2,8(r16)
    49c8:	18ffffc4 	addi	r3,r3,-1
    49cc:	1800050e 	bge	r3,zero,49e4 <__sfp+0x4c>
    49d0:	00002106 	br	4a58 <__sfp+0xc0>
    49d4:	18ffffc4 	addi	r3,r3,-1
    49d8:	193fffd8 	cmpnei	r4,r3,-1
    49dc:	10801a04 	addi	r2,r2,104
    49e0:	20001d26 	beq	r4,zero,4a58 <__sfp+0xc0>
    49e4:	1100030f 	ldh	r4,12(r2)
    49e8:	203ffa1e 	bne	r4,zero,49d4 <__sfp+0x3c>
    49ec:	00fffff4 	movhi	r3,65535
    49f0:	18c00044 	addi	r3,r3,1
    49f4:	10001915 	stw	zero,100(r2)
    49f8:	10000015 	stw	zero,0(r2)
    49fc:	10000115 	stw	zero,4(r2)
    4a00:	10000215 	stw	zero,8(r2)
    4a04:	10c00315 	stw	r3,12(r2)
    4a08:	10000415 	stw	zero,16(r2)
    4a0c:	10000515 	stw	zero,20(r2)
    4a10:	10000615 	stw	zero,24(r2)
    4a14:	10001705 	stb	zero,92(r2)
    4a18:	10001745 	stb	zero,93(r2)
    4a1c:	10001785 	stb	zero,94(r2)
    4a20:	100017c5 	stb	zero,95(r2)
    4a24:	10001805 	stb	zero,96(r2)
    4a28:	10001845 	stb	zero,97(r2)
    4a2c:	10001885 	stb	zero,98(r2)
    4a30:	100018c5 	stb	zero,99(r2)
    4a34:	10000c15 	stw	zero,48(r2)
    4a38:	10000d15 	stw	zero,52(r2)
    4a3c:	10001115 	stw	zero,68(r2)
    4a40:	10001215 	stw	zero,72(r2)
    4a44:	dfc00217 	ldw	ra,8(sp)
    4a48:	dc400117 	ldw	r17,4(sp)
    4a4c:	dc000017 	ldw	r16,0(sp)
    4a50:	dec00304 	addi	sp,sp,12
    4a54:	f800283a 	ret
    4a58:	80800017 	ldw	r2,0(r16)
    4a5c:	10000526 	beq	r2,zero,4a74 <__sfp+0xdc>
    4a60:	1021883a 	mov	r16,r2
    4a64:	003fd606 	br	49c0 <__sfp+0x28>
    4a68:	8009883a 	mov	r4,r16
    4a6c:	00047b00 	call	47b0 <__sinit.part.0>
    4a70:	003fd206 	br	49bc <__sfp+0x24>
    4a74:	01400104 	movi	r5,4
    4a78:	8809883a 	mov	r4,r17
    4a7c:	00049200 	call	4920 <__sfmoreglue>
    4a80:	80800015 	stw	r2,0(r16)
    4a84:	103ff61e 	bne	r2,zero,4a60 <__sfp+0xc8>
    4a88:	00c00304 	movi	r3,12
    4a8c:	88c00015 	stw	r3,0(r17)
    4a90:	003fec06 	br	4a44 <__sfp+0xac>

00004a94 <_cleanup>:
    4a94:	00800074 	movhi	r2,1
    4a98:	1105f117 	ldw	r4,6084(r2)
    4a9c:	01400074 	movhi	r5,1
    4aa0:	29645004 	addi	r5,r5,-28352
    4aa4:	00054801 	jmpi	5480 <_fwalk_reent>

00004aa8 <__sinit>:
    4aa8:	20800e17 	ldw	r2,56(r4)
    4aac:	10000126 	beq	r2,zero,4ab4 <__sinit+0xc>
    4ab0:	f800283a 	ret
    4ab4:	00047b01 	jmpi	47b0 <__sinit.part.0>

00004ab8 <__sfp_lock_acquire>:
    4ab8:	f800283a 	ret

00004abc <__sfp_lock_release>:
    4abc:	f800283a 	ret

00004ac0 <__sinit_lock_acquire>:
    4ac0:	f800283a 	ret

00004ac4 <__sinit_lock_release>:
    4ac4:	f800283a 	ret

00004ac8 <__fp_lock_all>:
    4ac8:	00800074 	movhi	r2,1
    4acc:	1105f217 	ldw	r4,6088(r2)
    4ad0:	01400034 	movhi	r5,0
    4ad4:	2951e704 	addi	r5,r5,18332
    4ad8:	00053dc1 	jmpi	53dc <_fwalk>

00004adc <__fp_unlock_all>:
    4adc:	00800074 	movhi	r2,1
    4ae0:	1105f217 	ldw	r4,6088(r2)
    4ae4:	01400034 	movhi	r5,0
    4ae8:	29524604 	addi	r5,r5,18712
    4aec:	00053dc1 	jmpi	53dc <_fwalk>

00004af0 <_malloc_trim_r>:
    4af0:	defffb04 	addi	sp,sp,-20
    4af4:	dcc00315 	stw	r19,12(sp)
    4af8:	04c00074 	movhi	r19,1
    4afc:	dc800215 	stw	r18,8(sp)
    4b00:	dc400115 	stw	r17,4(sp)
    4b04:	dc000015 	stw	r16,0(sp)
    4b08:	dfc00415 	stw	ra,16(sp)
    4b0c:	2821883a 	mov	r16,r5
    4b10:	9cc00d04 	addi	r19,r19,52
    4b14:	2025883a 	mov	r18,r4
    4b18:	000d4ec0 	call	d4ec <__malloc_lock>
    4b1c:	98800217 	ldw	r2,8(r19)
    4b20:	14400117 	ldw	r17,4(r2)
    4b24:	00bfff04 	movi	r2,-4
    4b28:	88a2703a 	and	r17,r17,r2
    4b2c:	8c21c83a 	sub	r16,r17,r16
    4b30:	8403fbc4 	addi	r16,r16,4079
    4b34:	8020d33a 	srli	r16,r16,12
    4b38:	843fffc4 	addi	r16,r16,-1
    4b3c:	8020933a 	slli	r16,r16,12
    4b40:	80840008 	cmpgei	r2,r16,4096
    4b44:	10000626 	beq	r2,zero,4b60 <_malloc_trim_r+0x70>
    4b48:	000b883a 	mov	r5,zero
    4b4c:	9009883a 	mov	r4,r18
    4b50:	00079000 	call	7900 <_sbrk_r>
    4b54:	98c00217 	ldw	r3,8(r19)
    4b58:	1c47883a 	add	r3,r3,r17
    4b5c:	10c00a26 	beq	r2,r3,4b88 <_malloc_trim_r+0x98>
    4b60:	9009883a 	mov	r4,r18
    4b64:	000d5100 	call	d510 <__malloc_unlock>
    4b68:	0005883a 	mov	r2,zero
    4b6c:	dfc00417 	ldw	ra,16(sp)
    4b70:	dcc00317 	ldw	r19,12(sp)
    4b74:	dc800217 	ldw	r18,8(sp)
    4b78:	dc400117 	ldw	r17,4(sp)
    4b7c:	dc000017 	ldw	r16,0(sp)
    4b80:	dec00504 	addi	sp,sp,20
    4b84:	f800283a 	ret
    4b88:	040bc83a 	sub	r5,zero,r16
    4b8c:	9009883a 	mov	r4,r18
    4b90:	00079000 	call	7900 <_sbrk_r>
    4b94:	10bfffd8 	cmpnei	r2,r2,-1
    4b98:	10000d26 	beq	r2,zero,4bd0 <_malloc_trim_r+0xe0>
    4b9c:	00800074 	movhi	r2,1
    4ba0:	108d2b17 	ldw	r2,13484(r2)
    4ba4:	98c00217 	ldw	r3,8(r19)
    4ba8:	8c23c83a 	sub	r17,r17,r16
    4bac:	8c400054 	ori	r17,r17,1
    4bb0:	1421c83a 	sub	r16,r2,r16
    4bb4:	1c400115 	stw	r17,4(r3)
    4bb8:	00800074 	movhi	r2,1
    4bbc:	9009883a 	mov	r4,r18
    4bc0:	140d2b15 	stw	r16,13484(r2)
    4bc4:	000d5100 	call	d510 <__malloc_unlock>
    4bc8:	00800044 	movi	r2,1
    4bcc:	003fe706 	br	4b6c <_malloc_trim_r+0x7c>
    4bd0:	000b883a 	mov	r5,zero
    4bd4:	9009883a 	mov	r4,r18
    4bd8:	00079000 	call	7900 <_sbrk_r>
    4bdc:	99000217 	ldw	r4,8(r19)
    4be0:	1107c83a 	sub	r3,r2,r4
    4be4:	19400410 	cmplti	r5,r3,16
    4be8:	283fdd1e 	bne	r5,zero,4b60 <_malloc_trim_r+0x70>
    4bec:	01400074 	movhi	r5,1
    4bf0:	2945f317 	ldw	r5,6092(r5)
    4bf4:	18c00054 	ori	r3,r3,1
    4bf8:	20c00115 	stw	r3,4(r4)
    4bfc:	1145c83a 	sub	r2,r2,r5
    4c00:	01400074 	movhi	r5,1
    4c04:	288d2b15 	stw	r2,13484(r5)
    4c08:	003fd506 	br	4b60 <_malloc_trim_r+0x70>

00004c0c <_free_r>:
    4c0c:	28004f26 	beq	r5,zero,4d4c <_free_r+0x140>
    4c10:	defffd04 	addi	sp,sp,-12
    4c14:	dc400115 	stw	r17,4(sp)
    4c18:	dc000015 	stw	r16,0(sp)
    4c1c:	2023883a 	mov	r17,r4
    4c20:	2821883a 	mov	r16,r5
    4c24:	dfc00215 	stw	ra,8(sp)
    4c28:	000d4ec0 	call	d4ec <__malloc_lock>
    4c2c:	81ffff17 	ldw	r7,-4(r16)
    4c30:	00bfff84 	movi	r2,-2
    4c34:	80fffe04 	addi	r3,r16,-8
    4c38:	3884703a 	and	r2,r7,r2
    4c3c:	01800074 	movhi	r6,1
    4c40:	1889883a 	add	r4,r3,r2
    4c44:	31800d04 	addi	r6,r6,52
    4c48:	21400117 	ldw	r5,4(r4)
    4c4c:	32000217 	ldw	r8,8(r6)
    4c50:	027fff04 	movi	r9,-4
    4c54:	2a4a703a 	and	r5,r5,r9
    4c58:	41006426 	beq	r8,r4,4dec <_free_r+0x1e0>
    4c5c:	21400115 	stw	r5,4(r4)
    4c60:	39c0004c 	andi	r7,r7,1
    4c64:	2151883a 	add	r8,r4,r5
    4c68:	3800281e 	bne	r7,zero,4d0c <_free_r+0x100>
    4c6c:	82bffe17 	ldw	r10,-8(r16)
    4c70:	42000117 	ldw	r8,4(r8)
    4c74:	01c00074 	movhi	r7,1
    4c78:	1a87c83a 	sub	r3,r3,r10
    4c7c:	1a400217 	ldw	r9,8(r3)
    4c80:	39c00f04 	addi	r7,r7,60
    4c84:	1285883a 	add	r2,r2,r10
    4c88:	4200004c 	andi	r8,r8,1
    4c8c:	49c04c26 	beq	r9,r7,4dc0 <_free_r+0x1b4>
    4c90:	1a800317 	ldw	r10,12(r3)
    4c94:	4a800315 	stw	r10,12(r9)
    4c98:	52400215 	stw	r9,8(r10)
    4c9c:	40007126 	beq	r8,zero,4e64 <_free_r+0x258>
    4ca0:	11400054 	ori	r5,r2,1
    4ca4:	19400115 	stw	r5,4(r3)
    4ca8:	20800015 	stw	r2,0(r4)
    4cac:	11008028 	cmpgeui	r4,r2,512
    4cb0:	20002c1e 	bne	r4,zero,4d64 <_free_r+0x158>
    4cb4:	1008d0fa 	srli	r4,r2,3
    4cb8:	31c00117 	ldw	r7,4(r6)
    4cbc:	20800044 	addi	r2,r4,1
    4cc0:	200bd0ba 	srai	r5,r4,2
    4cc4:	100490fa 	slli	r2,r2,3
    4cc8:	01000044 	movi	r4,1
    4ccc:	2148983a 	sll	r4,r4,r5
    4cd0:	3085883a 	add	r2,r6,r2
    4cd4:	11400017 	ldw	r5,0(r2)
    4cd8:	21c8b03a 	or	r4,r4,r7
    4cdc:	11fffe04 	addi	r7,r2,-8
    4ce0:	19c00315 	stw	r7,12(r3)
    4ce4:	19400215 	stw	r5,8(r3)
    4ce8:	31000115 	stw	r4,4(r6)
    4cec:	10c00015 	stw	r3,0(r2)
    4cf0:	28c00315 	stw	r3,12(r5)
    4cf4:	8809883a 	mov	r4,r17
    4cf8:	dfc00217 	ldw	ra,8(sp)
    4cfc:	dc400117 	ldw	r17,4(sp)
    4d00:	dc000017 	ldw	r16,0(sp)
    4d04:	dec00304 	addi	sp,sp,12
    4d08:	000d5101 	jmpi	d510 <__malloc_unlock>
    4d0c:	41c00117 	ldw	r7,4(r8)
    4d10:	39c0004c 	andi	r7,r7,1
    4d14:	38000e1e 	bne	r7,zero,4d50 <_free_r+0x144>
    4d18:	01c00074 	movhi	r7,1
    4d1c:	1145883a 	add	r2,r2,r5
    4d20:	39c00f04 	addi	r7,r7,60
    4d24:	21400217 	ldw	r5,8(r4)
    4d28:	12400054 	ori	r9,r2,1
    4d2c:	1891883a 	add	r8,r3,r2
    4d30:	29c05226 	beq	r5,r7,4e7c <_free_r+0x270>
    4d34:	21000317 	ldw	r4,12(r4)
    4d38:	29000315 	stw	r4,12(r5)
    4d3c:	21400215 	stw	r5,8(r4)
    4d40:	1a400115 	stw	r9,4(r3)
    4d44:	40800015 	stw	r2,0(r8)
    4d48:	003fd806 	br	4cac <_free_r+0xa0>
    4d4c:	f800283a 	ret
    4d50:	11400054 	ori	r5,r2,1
    4d54:	817fff15 	stw	r5,-4(r16)
    4d58:	20800015 	stw	r2,0(r4)
    4d5c:	11008028 	cmpgeui	r4,r2,512
    4d60:	203fd426 	beq	r4,zero,4cb4 <_free_r+0xa8>
    4d64:	1008d27a 	srli	r4,r2,9
    4d68:	21400168 	cmpgeui	r5,r4,5
    4d6c:	2800341e 	bne	r5,zero,4e40 <_free_r+0x234>
    4d70:	1008d1ba 	srli	r4,r2,6
    4d74:	21c00e44 	addi	r7,r4,57
    4d78:	380e90fa 	slli	r7,r7,3
    4d7c:	21400e04 	addi	r5,r4,56
    4d80:	31cf883a 	add	r7,r6,r7
    4d84:	39000017 	ldw	r4,0(r7)
    4d88:	39fffe04 	addi	r7,r7,-8
    4d8c:	39004226 	beq	r7,r4,4e98 <_free_r+0x28c>
    4d90:	01bfff04 	movi	r6,-4
    4d94:	21400117 	ldw	r5,4(r4)
    4d98:	298a703a 	and	r5,r5,r6
    4d9c:	1140022e 	bgeu	r2,r5,4da8 <_free_r+0x19c>
    4da0:	21000217 	ldw	r4,8(r4)
    4da4:	393ffb1e 	bne	r7,r4,4d94 <_free_r+0x188>
    4da8:	21c00317 	ldw	r7,12(r4)
    4dac:	19c00315 	stw	r7,12(r3)
    4db0:	19000215 	stw	r4,8(r3)
    4db4:	38c00215 	stw	r3,8(r7)
    4db8:	20c00315 	stw	r3,12(r4)
    4dbc:	003fcd06 	br	4cf4 <_free_r+0xe8>
    4dc0:	40004d1e 	bne	r8,zero,4ef8 <_free_r+0x2ec>
    4dc4:	21800317 	ldw	r6,12(r4)
    4dc8:	21000217 	ldw	r4,8(r4)
    4dcc:	2885883a 	add	r2,r5,r2
    4dd0:	11400054 	ori	r5,r2,1
    4dd4:	21800315 	stw	r6,12(r4)
    4dd8:	31000215 	stw	r4,8(r6)
    4ddc:	19400115 	stw	r5,4(r3)
    4de0:	1887883a 	add	r3,r3,r2
    4de4:	18800015 	stw	r2,0(r3)
    4de8:	003fc206 	br	4cf4 <_free_r+0xe8>
    4dec:	39c0004c 	andi	r7,r7,1
    4df0:	1145883a 	add	r2,r2,r5
    4df4:	3800071e 	bne	r7,zero,4e14 <_free_r+0x208>
    4df8:	81fffe17 	ldw	r7,-8(r16)
    4dfc:	19c7c83a 	sub	r3,r3,r7
    4e00:	19000317 	ldw	r4,12(r3)
    4e04:	19400217 	ldw	r5,8(r3)
    4e08:	11c5883a 	add	r2,r2,r7
    4e0c:	29000315 	stw	r4,12(r5)
    4e10:	21400215 	stw	r5,8(r4)
    4e14:	01000074 	movhi	r4,1
    4e18:	11400054 	ori	r5,r2,1
    4e1c:	2105f417 	ldw	r4,6096(r4)
    4e20:	19400115 	stw	r5,4(r3)
    4e24:	30c00215 	stw	r3,8(r6)
    4e28:	113fb236 	bltu	r2,r4,4cf4 <_free_r+0xe8>
    4e2c:	00800074 	movhi	r2,1
    4e30:	114d2117 	ldw	r5,13444(r2)
    4e34:	8809883a 	mov	r4,r17
    4e38:	0004af00 	call	4af0 <_malloc_trim_r>
    4e3c:	003fad06 	br	4cf4 <_free_r+0xe8>
    4e40:	21400568 	cmpgeui	r5,r4,21
    4e44:	28000926 	beq	r5,zero,4e6c <_free_r+0x260>
    4e48:	21401568 	cmpgeui	r5,r4,85
    4e4c:	2800191e 	bne	r5,zero,4eb4 <_free_r+0x2a8>
    4e50:	1008d33a 	srli	r4,r2,12
    4e54:	21c01bc4 	addi	r7,r4,111
    4e58:	21401b84 	addi	r5,r4,110
    4e5c:	380e90fa 	slli	r7,r7,3
    4e60:	003fc706 	br	4d80 <_free_r+0x174>
    4e64:	1145883a 	add	r2,r2,r5
    4e68:	003fae06 	br	4d24 <_free_r+0x118>
    4e6c:	21c01704 	addi	r7,r4,92
    4e70:	214016c4 	addi	r5,r4,91
    4e74:	380e90fa 	slli	r7,r7,3
    4e78:	003fc106 	br	4d80 <_free_r+0x174>
    4e7c:	30c00515 	stw	r3,20(r6)
    4e80:	30c00415 	stw	r3,16(r6)
    4e84:	19c00315 	stw	r7,12(r3)
    4e88:	19c00215 	stw	r7,8(r3)
    4e8c:	1a400115 	stw	r9,4(r3)
    4e90:	40800015 	stw	r2,0(r8)
    4e94:	003f9706 	br	4cf4 <_free_r+0xe8>
    4e98:	280bd0ba 	srai	r5,r5,2
    4e9c:	00800044 	movi	r2,1
    4ea0:	32000117 	ldw	r8,4(r6)
    4ea4:	114a983a 	sll	r5,r2,r5
    4ea8:	2a0ab03a 	or	r5,r5,r8
    4eac:	31400115 	stw	r5,4(r6)
    4eb0:	003fbe06 	br	4dac <_free_r+0x1a0>
    4eb4:	21405568 	cmpgeui	r5,r4,341
    4eb8:	2800051e 	bne	r5,zero,4ed0 <_free_r+0x2c4>
    4ebc:	1008d3fa 	srli	r4,r2,15
    4ec0:	21c01e04 	addi	r7,r4,120
    4ec4:	21401dc4 	addi	r5,r4,119
    4ec8:	380e90fa 	slli	r7,r7,3
    4ecc:	003fac06 	br	4d80 <_free_r+0x174>
    4ed0:	21015568 	cmpgeui	r4,r4,1365
    4ed4:	2000051e 	bne	r4,zero,4eec <_free_r+0x2e0>
    4ed8:	1008d4ba 	srli	r4,r2,18
    4edc:	21c01f44 	addi	r7,r4,125
    4ee0:	21401f04 	addi	r5,r4,124
    4ee4:	380e90fa 	slli	r7,r7,3
    4ee8:	003fa506 	br	4d80 <_free_r+0x174>
    4eec:	01c0fe04 	movi	r7,1016
    4ef0:	01401f84 	movi	r5,126
    4ef4:	003fa206 	br	4d80 <_free_r+0x174>
    4ef8:	11400054 	ori	r5,r2,1
    4efc:	19400115 	stw	r5,4(r3)
    4f00:	20800015 	stw	r2,0(r4)
    4f04:	003f7b06 	br	4cf4 <_free_r+0xe8>

00004f08 <__sfvwrite_r>:
    4f08:	30800217 	ldw	r2,8(r6)
    4f0c:	1000ca26 	beq	r2,zero,5238 <__sfvwrite_r+0x330>
    4f10:	2880030b 	ldhu	r2,12(r5)
    4f14:	defff304 	addi	sp,sp,-52
    4f18:	dd000715 	stw	r20,28(sp)
    4f1c:	dc000315 	stw	r16,12(sp)
    4f20:	dfc00c15 	stw	ra,48(sp)
    4f24:	df000b15 	stw	fp,44(sp)
    4f28:	ddc00a15 	stw	r23,40(sp)
    4f2c:	dd800915 	stw	r22,36(sp)
    4f30:	dd400815 	stw	r21,32(sp)
    4f34:	dcc00615 	stw	r19,24(sp)
    4f38:	dc800515 	stw	r18,20(sp)
    4f3c:	dc400415 	stw	r17,16(sp)
    4f40:	d9000015 	stw	r4,0(sp)
    4f44:	10c0020c 	andi	r3,r2,8
    4f48:	2821883a 	mov	r16,r5
    4f4c:	3029883a 	mov	r20,r6
    4f50:	18002426 	beq	r3,zero,4fe4 <__sfvwrite_r+0xdc>
    4f54:	28c00417 	ldw	r3,16(r5)
    4f58:	18002226 	beq	r3,zero,4fe4 <__sfvwrite_r+0xdc>
    4f5c:	10c0008c 	andi	r3,r2,2
    4f60:	a4400017 	ldw	r17,0(r20)
    4f64:	18002726 	beq	r3,zero,5004 <__sfvwrite_r+0xfc>
    4f68:	80c00917 	ldw	r3,36(r16)
    4f6c:	80800717 	ldw	r2,28(r16)
    4f70:	05600034 	movhi	r21,32768
    4f74:	0027883a 	mov	r19,zero
    4f78:	0025883a 	mov	r18,zero
    4f7c:	ad7f0004 	addi	r21,r21,-1024
    4f80:	980d883a 	mov	r6,r19
    4f84:	100b883a 	mov	r5,r2
    4f88:	d9000017 	ldw	r4,0(sp)
    4f8c:	90001126 	beq	r18,zero,4fd4 <__sfvwrite_r+0xcc>
    4f90:	900f883a 	mov	r7,r18
    4f94:	ac80012e 	bgeu	r21,r18,4f9c <__sfvwrite_r+0x94>
    4f98:	a80f883a 	mov	r7,r21
    4f9c:	183ee83a 	callr	r3
    4fa0:	0080a00e 	bge	zero,r2,5224 <__sfvwrite_r+0x31c>
    4fa4:	a0c00217 	ldw	r3,8(r20)
    4fa8:	98a7883a 	add	r19,r19,r2
    4fac:	90a5c83a 	sub	r18,r18,r2
    4fb0:	1885c83a 	sub	r2,r3,r2
    4fb4:	a0800215 	stw	r2,8(r20)
    4fb8:	10006426 	beq	r2,zero,514c <__sfvwrite_r+0x244>
    4fbc:	80800717 	ldw	r2,28(r16)
    4fc0:	80c00917 	ldw	r3,36(r16)
    4fc4:	980d883a 	mov	r6,r19
    4fc8:	100b883a 	mov	r5,r2
    4fcc:	d9000017 	ldw	r4,0(sp)
    4fd0:	903fef1e 	bne	r18,zero,4f90 <__sfvwrite_r+0x88>
    4fd4:	8cc00017 	ldw	r19,0(r17)
    4fd8:	8c800117 	ldw	r18,4(r17)
    4fdc:	8c400204 	addi	r17,r17,8
    4fe0:	003fe706 	br	4f80 <__sfvwrite_r+0x78>
    4fe4:	d9000017 	ldw	r4,0(sp)
    4fe8:	800b883a 	mov	r5,r16
    4fec:	0002a900 	call	2a90 <__swsetup_r>
    4ff0:	1000f81e 	bne	r2,zero,53d4 <__sfvwrite_r+0x4cc>
    4ff4:	8080030b 	ldhu	r2,12(r16)
    4ff8:	a4400017 	ldw	r17,0(r20)
    4ffc:	10c0008c 	andi	r3,r2,2
    5000:	183fd91e 	bne	r3,zero,4f68 <__sfvwrite_r+0x60>
    5004:	10c0004c 	andi	r3,r2,1
    5008:	84800217 	ldw	r18,8(r16)
    500c:	87000017 	ldw	fp,0(r16)
    5010:	18008b1e 	bne	r3,zero,5240 <__sfvwrite_r+0x338>
    5014:	00e00034 	movhi	r3,32768
    5018:	18ffff84 	addi	r3,r3,-2
    501c:	01200034 	movhi	r4,32768
    5020:	d8c00115 	stw	r3,4(sp)
    5024:	20ffffc4 	addi	r3,r4,-1
    5028:	002d883a 	mov	r22,zero
    502c:	002f883a 	mov	r23,zero
    5030:	d8c00215 	stw	r3,8(sp)
    5034:	b8004126 	beq	r23,zero,513c <__sfvwrite_r+0x234>
    5038:	1100800c 	andi	r4,r2,512
    503c:	20009126 	beq	r4,zero,5284 <__sfvwrite_r+0x37c>
    5040:	902b883a 	mov	r21,r18
    5044:	bc80b836 	bltu	r23,r18,5328 <__sfvwrite_r+0x420>
    5048:	1101200c 	andi	r4,r2,1152
    504c:	20002626 	beq	r4,zero,50e8 <__sfvwrite_r+0x1e0>
    5050:	84800517 	ldw	r18,20(r16)
    5054:	81400417 	ldw	r5,16(r16)
    5058:	b9000044 	addi	r4,r23,1
    505c:	948d883a 	add	r6,r18,r18
    5060:	348d883a 	add	r6,r6,r18
    5064:	3024d7fa 	srli	r18,r6,31
    5068:	e167c83a 	sub	r19,fp,r5
    506c:	24c9883a 	add	r4,r4,r19
    5070:	91a5883a 	add	r18,r18,r6
    5074:	9025d07a 	srai	r18,r18,1
    5078:	900d883a 	mov	r6,r18
    507c:	9100022e 	bgeu	r18,r4,5088 <__sfvwrite_r+0x180>
    5080:	2025883a 	mov	r18,r4
    5084:	200d883a 	mov	r6,r4
    5088:	1081000c 	andi	r2,r2,1024
    508c:	1000bf26 	beq	r2,zero,538c <__sfvwrite_r+0x484>
    5090:	d9000017 	ldw	r4,0(sp)
    5094:	300b883a 	mov	r5,r6
    5098:	00057280 	call	5728 <_malloc_r>
    509c:	1000c826 	beq	r2,zero,53c0 <__sfvwrite_r+0x4b8>
    50a0:	81400417 	ldw	r5,16(r16)
    50a4:	980d883a 	mov	r6,r19
    50a8:	1009883a 	mov	r4,r2
    50ac:	00060040 	call	6004 <memcpy>
    50b0:	100f883a 	mov	r7,r2
    50b4:	8080030b 	ldhu	r2,12(r16)
    50b8:	00fedfc4 	movi	r3,-1153
    50bc:	10c4703a 	and	r2,r2,r3
    50c0:	10802014 	ori	r2,r2,128
    50c4:	8080030d 	sth	r2,12(r16)
    50c8:	94c5c83a 	sub	r2,r18,r19
    50cc:	3cf9883a 	add	fp,r7,r19
    50d0:	84800515 	stw	r18,20(r16)
    50d4:	81c00415 	stw	r7,16(r16)
    50d8:	87000015 	stw	fp,0(r16)
    50dc:	b825883a 	mov	r18,r23
    50e0:	80800215 	stw	r2,8(r16)
    50e4:	b82b883a 	mov	r21,r23
    50e8:	a80d883a 	mov	r6,r21
    50ec:	b00b883a 	mov	r5,r22
    50f0:	e009883a 	mov	r4,fp
    50f4:	00061040 	call	6104 <memmove>
    50f8:	80800217 	ldw	r2,8(r16)
    50fc:	81800017 	ldw	r6,0(r16)
    5100:	b827883a 	mov	r19,r23
    5104:	14a5c83a 	sub	r18,r2,r18
    5108:	354d883a 	add	r6,r6,r21
    510c:	84800215 	stw	r18,8(r16)
    5110:	81800015 	stw	r6,0(r16)
    5114:	002f883a 	mov	r23,zero
    5118:	a0800217 	ldw	r2,8(r20)
    511c:	b4ed883a 	add	r22,r22,r19
    5120:	14e7c83a 	sub	r19,r2,r19
    5124:	a4c00215 	stw	r19,8(r20)
    5128:	98000826 	beq	r19,zero,514c <__sfvwrite_r+0x244>
    512c:	8080030b 	ldhu	r2,12(r16)
    5130:	84800217 	ldw	r18,8(r16)
    5134:	87000017 	ldw	fp,0(r16)
    5138:	b83fbf1e 	bne	r23,zero,5038 <__sfvwrite_r+0x130>
    513c:	8d800017 	ldw	r22,0(r17)
    5140:	8dc00117 	ldw	r23,4(r17)
    5144:	8c400204 	addi	r17,r17,8
    5148:	003fba06 	br	5034 <__sfvwrite_r+0x12c>
    514c:	0005883a 	mov	r2,zero
    5150:	dfc00c17 	ldw	ra,48(sp)
    5154:	df000b17 	ldw	fp,44(sp)
    5158:	ddc00a17 	ldw	r23,40(sp)
    515c:	dd800917 	ldw	r22,36(sp)
    5160:	dd400817 	ldw	r21,32(sp)
    5164:	dd000717 	ldw	r20,28(sp)
    5168:	dcc00617 	ldw	r19,24(sp)
    516c:	dc800517 	ldw	r18,20(sp)
    5170:	dc400417 	ldw	r17,16(sp)
    5174:	dc000317 	ldw	r16,12(sp)
    5178:	dec00d04 	addi	sp,sp,52
    517c:	f800283a 	ret
    5180:	b1c07116 	blt	r22,r7,5348 <__sfvwrite_r+0x440>
    5184:	80800917 	ldw	r2,36(r16)
    5188:	81400717 	ldw	r5,28(r16)
    518c:	d9000017 	ldw	r4,0(sp)
    5190:	b80d883a 	mov	r6,r23
    5194:	103ee83a 	callr	r2
    5198:	1025883a 	mov	r18,r2
    519c:	0080210e 	bge	zero,r2,5224 <__sfvwrite_r+0x31c>
    51a0:	acabc83a 	sub	r21,r21,r18
    51a4:	a8006326 	beq	r21,zero,5334 <__sfvwrite_r+0x42c>
    51a8:	00800044 	movi	r2,1
    51ac:	a0c00217 	ldw	r3,8(r20)
    51b0:	bcaf883a 	add	r23,r23,r18
    51b4:	9ca7c83a 	sub	r19,r19,r18
    51b8:	1ca5c83a 	sub	r18,r3,r18
    51bc:	a4800215 	stw	r18,8(r20)
    51c0:	903fe226 	beq	r18,zero,514c <__sfvwrite_r+0x244>
    51c4:	84800217 	ldw	r18,8(r16)
    51c8:	87000017 	ldw	fp,0(r16)
    51cc:	98002126 	beq	r19,zero,5254 <__sfvwrite_r+0x34c>
    51d0:	10002426 	beq	r2,zero,5264 <__sfvwrite_r+0x35c>
    51d4:	a805883a 	mov	r2,r21
    51d8:	982d883a 	mov	r22,r19
    51dc:	14c0012e 	bgeu	r2,r19,51e4 <__sfvwrite_r+0x2dc>
    51e0:	102d883a 	mov	r22,r2
    51e4:	80800417 	ldw	r2,16(r16)
    51e8:	81c00517 	ldw	r7,20(r16)
    51ec:	173fe42e 	bgeu	r2,fp,5180 <__sfvwrite_r+0x278>
    51f0:	3ca5883a 	add	r18,r7,r18
    51f4:	95bfe20e 	bge	r18,r22,5180 <__sfvwrite_r+0x278>
    51f8:	b80b883a 	mov	r5,r23
    51fc:	e009883a 	mov	r4,fp
    5200:	900d883a 	mov	r6,r18
    5204:	00061040 	call	6104 <memmove>
    5208:	80800017 	ldw	r2,0(r16)
    520c:	d9000017 	ldw	r4,0(sp)
    5210:	800b883a 	mov	r5,r16
    5214:	1485883a 	add	r2,r2,r18
    5218:	80800015 	stw	r2,0(r16)
    521c:	00047140 	call	4714 <_fflush_r>
    5220:	103fdf26 	beq	r2,zero,51a0 <__sfvwrite_r+0x298>
    5224:	8080030b 	ldhu	r2,12(r16)
    5228:	10801014 	ori	r2,r2,64
    522c:	8080030d 	sth	r2,12(r16)
    5230:	00bfffc4 	movi	r2,-1
    5234:	003fc606 	br	5150 <__sfvwrite_r+0x248>
    5238:	0005883a 	mov	r2,zero
    523c:	f800283a 	ret
    5240:	0027883a 	mov	r19,zero
    5244:	002b883a 	mov	r21,zero
    5248:	0005883a 	mov	r2,zero
    524c:	002f883a 	mov	r23,zero
    5250:	983fdf1e 	bne	r19,zero,51d0 <__sfvwrite_r+0x2c8>
    5254:	8cc00117 	ldw	r19,4(r17)
    5258:	8dc00017 	ldw	r23,0(r17)
    525c:	8c400204 	addi	r17,r17,8
    5260:	983ffc26 	beq	r19,zero,5254 <__sfvwrite_r+0x34c>
    5264:	980d883a 	mov	r6,r19
    5268:	01400284 	movi	r5,10
    526c:	b809883a 	mov	r4,r23
    5270:	0005f1c0 	call	5f1c <memchr>
    5274:	10004226 	beq	r2,zero,5380 <__sfvwrite_r+0x478>
    5278:	10800044 	addi	r2,r2,1
    527c:	15ebc83a 	sub	r21,r2,r23
    5280:	003fd406 	br	51d4 <__sfvwrite_r+0x2cc>
    5284:	80800417 	ldw	r2,16(r16)
    5288:	17001436 	bltu	r2,fp,52dc <__sfvwrite_r+0x3d4>
    528c:	84c00517 	ldw	r19,20(r16)
    5290:	bcc01236 	bltu	r23,r19,52dc <__sfvwrite_r+0x3d4>
    5294:	d8800117 	ldw	r2,4(sp)
    5298:	15c0372e 	bgeu	r2,r23,5378 <__sfvwrite_r+0x470>
    529c:	d9000217 	ldw	r4,8(sp)
    52a0:	980b883a 	mov	r5,r19
    52a4:	000049c0 	call	49c <__divsi3>
    52a8:	980b883a 	mov	r5,r19
    52ac:	1009883a 	mov	r4,r2
    52b0:	000a5dc0 	call	a5dc <__mulsi3>
    52b4:	81400717 	ldw	r5,28(r16)
    52b8:	82800917 	ldw	r10,36(r16)
    52bc:	d9000017 	ldw	r4,0(sp)
    52c0:	100f883a 	mov	r7,r2
    52c4:	b00d883a 	mov	r6,r22
    52c8:	503ee83a 	callr	r10
    52cc:	00bfd50e 	bge	zero,r2,5224 <__sfvwrite_r+0x31c>
    52d0:	1027883a 	mov	r19,r2
    52d4:	bcefc83a 	sub	r23,r23,r19
    52d8:	003f8f06 	br	5118 <__sfvwrite_r+0x210>
    52dc:	9027883a 	mov	r19,r18
    52e0:	bc80012e 	bgeu	r23,r18,52e8 <__sfvwrite_r+0x3e0>
    52e4:	b827883a 	mov	r19,r23
    52e8:	e009883a 	mov	r4,fp
    52ec:	980d883a 	mov	r6,r19
    52f0:	b00b883a 	mov	r5,r22
    52f4:	00061040 	call	6104 <memmove>
    52f8:	80800217 	ldw	r2,8(r16)
    52fc:	81000017 	ldw	r4,0(r16)
    5300:	14c5c83a 	sub	r2,r2,r19
    5304:	24c9883a 	add	r4,r4,r19
    5308:	80800215 	stw	r2,8(r16)
    530c:	81000015 	stw	r4,0(r16)
    5310:	103ff01e 	bne	r2,zero,52d4 <__sfvwrite_r+0x3cc>
    5314:	d9000017 	ldw	r4,0(sp)
    5318:	800b883a 	mov	r5,r16
    531c:	00047140 	call	4714 <_fflush_r>
    5320:	103fec26 	beq	r2,zero,52d4 <__sfvwrite_r+0x3cc>
    5324:	003fbf06 	br	5224 <__sfvwrite_r+0x31c>
    5328:	b825883a 	mov	r18,r23
    532c:	b82b883a 	mov	r21,r23
    5330:	003f6d06 	br	50e8 <__sfvwrite_r+0x1e0>
    5334:	d9000017 	ldw	r4,0(sp)
    5338:	800b883a 	mov	r5,r16
    533c:	00047140 	call	4714 <_fflush_r>
    5340:	103f9a26 	beq	r2,zero,51ac <__sfvwrite_r+0x2a4>
    5344:	003fb706 	br	5224 <__sfvwrite_r+0x31c>
    5348:	b00d883a 	mov	r6,r22
    534c:	b80b883a 	mov	r5,r23
    5350:	e009883a 	mov	r4,fp
    5354:	00061040 	call	6104 <memmove>
    5358:	80c00217 	ldw	r3,8(r16)
    535c:	80800017 	ldw	r2,0(r16)
    5360:	b025883a 	mov	r18,r22
    5364:	1d87c83a 	sub	r3,r3,r22
    5368:	15ad883a 	add	r22,r2,r22
    536c:	80c00215 	stw	r3,8(r16)
    5370:	85800015 	stw	r22,0(r16)
    5374:	003f8a06 	br	51a0 <__sfvwrite_r+0x298>
    5378:	b809883a 	mov	r4,r23
    537c:	003fc806 	br	52a0 <__sfvwrite_r+0x398>
    5380:	98800044 	addi	r2,r19,1
    5384:	102b883a 	mov	r21,r2
    5388:	003f9306 	br	51d8 <__sfvwrite_r+0x2d0>
    538c:	d9000017 	ldw	r4,0(sp)
    5390:	00072d40 	call	72d4 <_realloc_r>
    5394:	100f883a 	mov	r7,r2
    5398:	103f4b1e 	bne	r2,zero,50c8 <__sfvwrite_r+0x1c0>
    539c:	dc400017 	ldw	r17,0(sp)
    53a0:	81400417 	ldw	r5,16(r16)
    53a4:	8809883a 	mov	r4,r17
    53a8:	0004c0c0 	call	4c0c <_free_r>
    53ac:	8080030b 	ldhu	r2,12(r16)
    53b0:	00c00304 	movi	r3,12
    53b4:	88c00015 	stw	r3,0(r17)
    53b8:	10bfdfcc 	andi	r2,r2,65407
    53bc:	003f9a06 	br	5228 <__sfvwrite_r+0x320>
    53c0:	d8c00017 	ldw	r3,0(sp)
    53c4:	00800304 	movi	r2,12
    53c8:	18800015 	stw	r2,0(r3)
    53cc:	8080030b 	ldhu	r2,12(r16)
    53d0:	003f9506 	br	5228 <__sfvwrite_r+0x320>
    53d4:	00bfffc4 	movi	r2,-1
    53d8:	003f5d06 	br	5150 <__sfvwrite_r+0x248>

000053dc <_fwalk>:
    53dc:	defffa04 	addi	sp,sp,-24
    53e0:	dc800215 	stw	r18,8(sp)
    53e4:	dfc00515 	stw	ra,20(sp)
    53e8:	dd000415 	stw	r20,16(sp)
    53ec:	dcc00315 	stw	r19,12(sp)
    53f0:	dc400115 	stw	r17,4(sp)
    53f4:	dc000015 	stw	r16,0(sp)
    53f8:	2480b804 	addi	r18,r4,736
    53fc:	90001e26 	beq	r18,zero,5478 <_fwalk+0x9c>
    5400:	2827883a 	mov	r19,r5
    5404:	0029883a 	mov	r20,zero
    5408:	94400117 	ldw	r17,4(r18)
    540c:	94000217 	ldw	r16,8(r18)
    5410:	8c7fffc4 	addi	r17,r17,-1
    5414:	88000d16 	blt	r17,zero,544c <_fwalk+0x70>
    5418:	8080030b 	ldhu	r2,12(r16)
    541c:	8c7fffc4 	addi	r17,r17,-1
    5420:	108000b0 	cmpltui	r2,r2,2
    5424:	1000061e 	bne	r2,zero,5440 <_fwalk+0x64>
    5428:	8080038f 	ldh	r2,14(r16)
    542c:	8009883a 	mov	r4,r16
    5430:	10bfffe0 	cmpeqi	r2,r2,-1
    5434:	1000021e 	bne	r2,zero,5440 <_fwalk+0x64>
    5438:	983ee83a 	callr	r19
    543c:	a0a8b03a 	or	r20,r20,r2
    5440:	88bfffd8 	cmpnei	r2,r17,-1
    5444:	84001a04 	addi	r16,r16,104
    5448:	103ff31e 	bne	r2,zero,5418 <_fwalk+0x3c>
    544c:	94800017 	ldw	r18,0(r18)
    5450:	903fed1e 	bne	r18,zero,5408 <_fwalk+0x2c>
    5454:	a005883a 	mov	r2,r20
    5458:	dfc00517 	ldw	ra,20(sp)
    545c:	dd000417 	ldw	r20,16(sp)
    5460:	dcc00317 	ldw	r19,12(sp)
    5464:	dc800217 	ldw	r18,8(sp)
    5468:	dc400117 	ldw	r17,4(sp)
    546c:	dc000017 	ldw	r16,0(sp)
    5470:	dec00604 	addi	sp,sp,24
    5474:	f800283a 	ret
    5478:	0029883a 	mov	r20,zero
    547c:	003ff506 	br	5454 <_fwalk+0x78>

00005480 <_fwalk_reent>:
    5480:	defff904 	addi	sp,sp,-28
    5484:	dc800215 	stw	r18,8(sp)
    5488:	dfc00615 	stw	ra,24(sp)
    548c:	dd400515 	stw	r21,20(sp)
    5490:	dd000415 	stw	r20,16(sp)
    5494:	dcc00315 	stw	r19,12(sp)
    5498:	dc400115 	stw	r17,4(sp)
    549c:	dc000015 	stw	r16,0(sp)
    54a0:	2480b804 	addi	r18,r4,736
    54a4:	90002126 	beq	r18,zero,552c <_fwalk_reent+0xac>
    54a8:	2829883a 	mov	r20,r5
    54ac:	2027883a 	mov	r19,r4
    54b0:	002b883a 	mov	r21,zero
    54b4:	94400117 	ldw	r17,4(r18)
    54b8:	94000217 	ldw	r16,8(r18)
    54bc:	8c7fffc4 	addi	r17,r17,-1
    54c0:	88000e16 	blt	r17,zero,54fc <_fwalk_reent+0x7c>
    54c4:	8080030b 	ldhu	r2,12(r16)
    54c8:	8c7fffc4 	addi	r17,r17,-1
    54cc:	108000b0 	cmpltui	r2,r2,2
    54d0:	1000071e 	bne	r2,zero,54f0 <_fwalk_reent+0x70>
    54d4:	8080038f 	ldh	r2,14(r16)
    54d8:	800b883a 	mov	r5,r16
    54dc:	9809883a 	mov	r4,r19
    54e0:	10bfffe0 	cmpeqi	r2,r2,-1
    54e4:	1000021e 	bne	r2,zero,54f0 <_fwalk_reent+0x70>
    54e8:	a03ee83a 	callr	r20
    54ec:	a8aab03a 	or	r21,r21,r2
    54f0:	88bfffd8 	cmpnei	r2,r17,-1
    54f4:	84001a04 	addi	r16,r16,104
    54f8:	103ff21e 	bne	r2,zero,54c4 <_fwalk_reent+0x44>
    54fc:	94800017 	ldw	r18,0(r18)
    5500:	903fec1e 	bne	r18,zero,54b4 <_fwalk_reent+0x34>
    5504:	a805883a 	mov	r2,r21
    5508:	dfc00617 	ldw	ra,24(sp)
    550c:	dd400517 	ldw	r21,20(sp)
    5510:	dd000417 	ldw	r20,16(sp)
    5514:	dcc00317 	ldw	r19,12(sp)
    5518:	dc800217 	ldw	r18,8(sp)
    551c:	dc400117 	ldw	r17,4(sp)
    5520:	dc000017 	ldw	r16,0(sp)
    5524:	dec00704 	addi	sp,sp,28
    5528:	f800283a 	ret
    552c:	002b883a 	mov	r21,zero
    5530:	003ff406 	br	5504 <_fwalk_reent+0x84>

00005534 <__localeconv_l>:
    5534:	20803c04 	addi	r2,r4,240
    5538:	f800283a 	ret

0000553c <_localeconv_r>:
    553c:	00800074 	movhi	r2,1
    5540:	10814b04 	addi	r2,r2,1324
    5544:	f800283a 	ret

00005548 <localeconv>:
    5548:	00800074 	movhi	r2,1
    554c:	10814b04 	addi	r2,r2,1324
    5550:	f800283a 	ret

00005554 <__swhatbuf_r>:
    5554:	deffea04 	addi	sp,sp,-88
    5558:	dc001215 	stw	r16,72(sp)
    555c:	2821883a 	mov	r16,r5
    5560:	2940038f 	ldh	r5,14(r5)
    5564:	dc801415 	stw	r18,80(sp)
    5568:	dc401315 	stw	r17,76(sp)
    556c:	dfc01515 	stw	ra,84(sp)
    5570:	3023883a 	mov	r17,r6
    5574:	3825883a 	mov	r18,r7
    5578:	28001016 	blt	r5,zero,55bc <__swhatbuf_r+0x68>
    557c:	d80d883a 	mov	r6,sp
    5580:	00094380 	call	9438 <_fstat_r>
    5584:	10000d16 	blt	r2,zero,55bc <__swhatbuf_r+0x68>
    5588:	d8c00117 	ldw	r3,4(sp)
    558c:	00820004 	movi	r2,2048
    5590:	18fc000c 	andi	r3,r3,61440
    5594:	18c80020 	cmpeqi	r3,r3,8192
    5598:	90c00015 	stw	r3,0(r18)
    559c:	00c10004 	movi	r3,1024
    55a0:	88c00015 	stw	r3,0(r17)
    55a4:	dfc01517 	ldw	ra,84(sp)
    55a8:	dc801417 	ldw	r18,80(sp)
    55ac:	dc401317 	ldw	r17,76(sp)
    55b0:	dc001217 	ldw	r16,72(sp)
    55b4:	dec01604 	addi	sp,sp,88
    55b8:	f800283a 	ret
    55bc:	8080030b 	ldhu	r2,12(r16)
    55c0:	90000015 	stw	zero,0(r18)
    55c4:	1080200c 	andi	r2,r2,128
    55c8:	10000426 	beq	r2,zero,55dc <__swhatbuf_r+0x88>
    55cc:	00801004 	movi	r2,64
    55d0:	88800015 	stw	r2,0(r17)
    55d4:	0005883a 	mov	r2,zero
    55d8:	003ff206 	br	55a4 <__swhatbuf_r+0x50>
    55dc:	00810004 	movi	r2,1024
    55e0:	88800015 	stw	r2,0(r17)
    55e4:	0005883a 	mov	r2,zero
    55e8:	003fee06 	br	55a4 <__swhatbuf_r+0x50>

000055ec <__smakebuf_r>:
    55ec:	28c0030b 	ldhu	r3,12(r5)
    55f0:	defffa04 	addi	sp,sp,-24
    55f4:	dc000215 	stw	r16,8(sp)
    55f8:	dfc00515 	stw	ra,20(sp)
    55fc:	dc800415 	stw	r18,16(sp)
    5600:	dc400315 	stw	r17,12(sp)
    5604:	18c0008c 	andi	r3,r3,2
    5608:	2821883a 	mov	r16,r5
    560c:	18000b26 	beq	r3,zero,563c <__smakebuf_r+0x50>
    5610:	28c010c4 	addi	r3,r5,67
    5614:	28c00015 	stw	r3,0(r5)
    5618:	28c00415 	stw	r3,16(r5)
    561c:	00c00044 	movi	r3,1
    5620:	28c00515 	stw	r3,20(r5)
    5624:	dfc00517 	ldw	ra,20(sp)
    5628:	dc800417 	ldw	r18,16(sp)
    562c:	dc400317 	ldw	r17,12(sp)
    5630:	dc000217 	ldw	r16,8(sp)
    5634:	dec00604 	addi	sp,sp,24
    5638:	f800283a 	ret
    563c:	d9c00104 	addi	r7,sp,4
    5640:	d80d883a 	mov	r6,sp
    5644:	2023883a 	mov	r17,r4
    5648:	00055540 	call	5554 <__swhatbuf_r>
    564c:	1025883a 	mov	r18,r2
    5650:	d8800117 	ldw	r2,4(sp)
    5654:	1000131e 	bne	r2,zero,56a4 <__smakebuf_r+0xb8>
    5658:	d9400017 	ldw	r5,0(sp)
    565c:	8809883a 	mov	r4,r17
    5660:	00057280 	call	5728 <_malloc_r>
    5664:	10001c26 	beq	r2,zero,56d8 <__smakebuf_r+0xec>
    5668:	01000034 	movhi	r4,0
    566c:	2111e904 	addi	r4,r4,18340
    5670:	80c0030b 	ldhu	r3,12(r16)
    5674:	89000f15 	stw	r4,60(r17)
    5678:	80800015 	stw	r2,0(r16)
    567c:	80800415 	stw	r2,16(r16)
    5680:	d8800017 	ldw	r2,0(sp)
    5684:	d9400117 	ldw	r5,4(sp)
    5688:	18c02014 	ori	r3,r3,128
    568c:	80c0030d 	sth	r3,12(r16)
    5690:	80800515 	stw	r2,20(r16)
    5694:	28001c1e 	bne	r5,zero,5708 <__smakebuf_r+0x11c>
    5698:	90c6b03a 	or	r3,r18,r3
    569c:	80c0030d 	sth	r3,12(r16)
    56a0:	003fe006 	br	5624 <__smakebuf_r+0x38>
    56a4:	8140038f 	ldh	r5,14(r16)
    56a8:	8809883a 	mov	r4,r17
    56ac:	00094980 	call	9498 <_isatty_r>
    56b0:	103fe926 	beq	r2,zero,5658 <__smakebuf_r+0x6c>
    56b4:	8080030b 	ldhu	r2,12(r16)
    56b8:	80c010c4 	addi	r3,r16,67
    56bc:	80c00015 	stw	r3,0(r16)
    56c0:	10800054 	ori	r2,r2,1
    56c4:	8080030d 	sth	r2,12(r16)
    56c8:	00800044 	movi	r2,1
    56cc:	80c00415 	stw	r3,16(r16)
    56d0:	80800515 	stw	r2,20(r16)
    56d4:	003fe006 	br	5658 <__smakebuf_r+0x6c>
    56d8:	8080030b 	ldhu	r2,12(r16)
    56dc:	10c0800c 	andi	r3,r2,512
    56e0:	183fd01e 	bne	r3,zero,5624 <__smakebuf_r+0x38>
    56e4:	10bfff0c 	andi	r2,r2,65532
    56e8:	10800094 	ori	r2,r2,2
    56ec:	80c010c4 	addi	r3,r16,67
    56f0:	8080030d 	sth	r2,12(r16)
    56f4:	00800044 	movi	r2,1
    56f8:	80c00015 	stw	r3,0(r16)
    56fc:	80c00415 	stw	r3,16(r16)
    5700:	80800515 	stw	r2,20(r16)
    5704:	003fc706 	br	5624 <__smakebuf_r+0x38>
    5708:	8140038f 	ldh	r5,14(r16)
    570c:	8809883a 	mov	r4,r17
    5710:	00094980 	call	9498 <_isatty_r>
    5714:	80c0030b 	ldhu	r3,12(r16)
    5718:	103fdf26 	beq	r2,zero,5698 <__smakebuf_r+0xac>
    571c:	18ffff0c 	andi	r3,r3,65532
    5720:	18c00054 	ori	r3,r3,1
    5724:	003fdc06 	br	5698 <__smakebuf_r+0xac>

00005728 <_malloc_r>:
    5728:	defff604 	addi	sp,sp,-40
    572c:	dc400115 	stw	r17,4(sp)
    5730:	2c4002c4 	addi	r17,r5,11
    5734:	dc800215 	stw	r18,8(sp)
    5738:	dfc00915 	stw	ra,36(sp)
    573c:	df000815 	stw	fp,32(sp)
    5740:	ddc00715 	stw	r23,28(sp)
    5744:	dd800615 	stw	r22,24(sp)
    5748:	dd400515 	stw	r21,20(sp)
    574c:	dd000415 	stw	r20,16(sp)
    5750:	dcc00315 	stw	r19,12(sp)
    5754:	dc000015 	stw	r16,0(sp)
    5758:	888005e8 	cmpgeui	r2,r17,23
    575c:	2025883a 	mov	r18,r4
    5760:	10001b1e 	bne	r2,zero,57d0 <_malloc_r+0xa8>
    5764:	29400468 	cmpgeui	r5,r5,17
    5768:	2800951e 	bne	r5,zero,59c0 <_malloc_r+0x298>
    576c:	000d4ec0 	call	d4ec <__malloc_lock>
    5770:	04400404 	movi	r17,16
    5774:	00800604 	movi	r2,24
    5778:	01800084 	movi	r6,2
    577c:	04c00074 	movhi	r19,1
    5780:	9cc00d04 	addi	r19,r19,52
    5784:	9885883a 	add	r2,r19,r2
    5788:	14000117 	ldw	r16,4(r2)
    578c:	10fffe04 	addi	r3,r2,-8
    5790:	80c09e26 	beq	r16,r3,5a0c <_malloc_r+0x2e4>
    5794:	80800117 	ldw	r2,4(r16)
    5798:	81000317 	ldw	r4,12(r16)
    579c:	00ffff04 	movi	r3,-4
    57a0:	10c4703a 	and	r2,r2,r3
    57a4:	81400217 	ldw	r5,8(r16)
    57a8:	8085883a 	add	r2,r16,r2
    57ac:	10c00117 	ldw	r3,4(r2)
    57b0:	29000315 	stw	r4,12(r5)
    57b4:	21400215 	stw	r5,8(r4)
    57b8:	18c00054 	ori	r3,r3,1
    57bc:	10c00115 	stw	r3,4(r2)
    57c0:	9009883a 	mov	r4,r18
    57c4:	000d5100 	call	d510 <__malloc_unlock>
    57c8:	80800204 	addi	r2,r16,8
    57cc:	00007f06 	br	59cc <_malloc_r+0x2a4>
    57d0:	00bffe04 	movi	r2,-8
    57d4:	88a2703a 	and	r17,r17,r2
    57d8:	88007916 	blt	r17,zero,59c0 <_malloc_r+0x298>
    57dc:	89407836 	bltu	r17,r5,59c0 <_malloc_r+0x298>
    57e0:	000d4ec0 	call	d4ec <__malloc_lock>
    57e4:	88807e28 	cmpgeui	r2,r17,504
    57e8:	10013326 	beq	r2,zero,5cb8 <_malloc_r+0x590>
    57ec:	8804d27a 	srli	r2,r17,9
    57f0:	10008226 	beq	r2,zero,59fc <_malloc_r+0x2d4>
    57f4:	10c00168 	cmpgeui	r3,r2,5
    57f8:	1801151e 	bne	r3,zero,5c50 <_malloc_r+0x528>
    57fc:	8804d1ba 	srli	r2,r17,6
    5800:	11800e44 	addi	r6,r2,57
    5804:	300a90fa 	slli	r5,r6,3
    5808:	12000e04 	addi	r8,r2,56
    580c:	04c00074 	movhi	r19,1
    5810:	9cc00d04 	addi	r19,r19,52
    5814:	994b883a 	add	r5,r19,r5
    5818:	2c000117 	ldw	r16,4(r5)
    581c:	297ffe04 	addi	r5,r5,-8
    5820:	2c001126 	beq	r5,r16,5868 <_malloc_r+0x140>
    5824:	80800117 	ldw	r2,4(r16)
    5828:	00ffff04 	movi	r3,-4
    582c:	10c4703a 	and	r2,r2,r3
    5830:	1447c83a 	sub	r3,r2,r17
    5834:	19000408 	cmpgei	r4,r3,16
    5838:	2000e81e 	bne	r4,zero,5bdc <_malloc_r+0x4b4>
    583c:	1800e90e 	bge	r3,zero,5be4 <_malloc_r+0x4bc>
    5840:	01ffff04 	movi	r7,-4
    5844:	00000606 	br	5860 <_malloc_r+0x138>
    5848:	80800117 	ldw	r2,4(r16)
    584c:	11c4703a 	and	r2,r2,r7
    5850:	1447c83a 	sub	r3,r2,r17
    5854:	19000408 	cmpgei	r4,r3,16
    5858:	2000e01e 	bne	r4,zero,5bdc <_malloc_r+0x4b4>
    585c:	1800e10e 	bge	r3,zero,5be4 <_malloc_r+0x4bc>
    5860:	84000317 	ldw	r16,12(r16)
    5864:	2c3ff81e 	bne	r5,r16,5848 <_malloc_r+0x120>
    5868:	9c000417 	ldw	r16,16(r19)
    586c:	02000074 	movhi	r8,1
    5870:	42000f04 	addi	r8,r8,60
    5874:	82006c26 	beq	r16,r8,5a28 <_malloc_r+0x300>
    5878:	80c00117 	ldw	r3,4(r16)
    587c:	00bfff04 	movi	r2,-4
    5880:	1884703a 	and	r2,r3,r2
    5884:	1447c83a 	sub	r3,r2,r17
    5888:	19000410 	cmplti	r4,r3,16
    588c:	20011526 	beq	r4,zero,5ce4 <_malloc_r+0x5bc>
    5890:	9a000515 	stw	r8,20(r19)
    5894:	9a000415 	stw	r8,16(r19)
    5898:	18010a0e 	bge	r3,zero,5cc4 <_malloc_r+0x59c>
    589c:	10c08028 	cmpgeui	r3,r2,512
    58a0:	1800d21e 	bne	r3,zero,5bec <_malloc_r+0x4c4>
    58a4:	1004d0fa 	srli	r2,r2,3
    58a8:	99400117 	ldw	r5,4(r19)
    58ac:	10c00044 	addi	r3,r2,1
    58b0:	1009d0ba 	srai	r4,r2,2
    58b4:	180690fa 	slli	r3,r3,3
    58b8:	00800044 	movi	r2,1
    58bc:	1104983a 	sll	r2,r2,r4
    58c0:	98c7883a 	add	r3,r19,r3
    58c4:	19000017 	ldw	r4,0(r3)
    58c8:	1144b03a 	or	r2,r2,r5
    58cc:	197ffe04 	addi	r5,r3,-8
    58d0:	81400315 	stw	r5,12(r16)
    58d4:	81000215 	stw	r4,8(r16)
    58d8:	98800115 	stw	r2,4(r19)
    58dc:	1c000015 	stw	r16,0(r3)
    58e0:	24000315 	stw	r16,12(r4)
    58e4:	3007d0ba 	srai	r3,r6,2
    58e8:	01000044 	movi	r4,1
    58ec:	20c8983a 	sll	r4,r4,r3
    58f0:	11005236 	bltu	r2,r4,5a3c <_malloc_r+0x314>
    58f4:	2086703a 	and	r3,r4,r2
    58f8:	18000a1e 	bne	r3,zero,5924 <_malloc_r+0x1fc>
    58fc:	00ffff04 	movi	r3,-4
    5900:	2109883a 	add	r4,r4,r4
    5904:	30cc703a 	and	r6,r6,r3
    5908:	2086703a 	and	r3,r4,r2
    590c:	31800104 	addi	r6,r6,4
    5910:	1800041e 	bne	r3,zero,5924 <_malloc_r+0x1fc>
    5914:	2109883a 	add	r4,r4,r4
    5918:	2086703a 	and	r3,r4,r2
    591c:	31800104 	addi	r6,r6,4
    5920:	183ffc26 	beq	r3,zero,5914 <_malloc_r+0x1ec>
    5924:	027fff04 	movi	r9,-4
    5928:	301490fa 	slli	r10,r6,3
    592c:	3017883a 	mov	r11,r6
    5930:	9a95883a 	add	r10,r19,r10
    5934:	500f883a 	mov	r7,r10
    5938:	3c000317 	ldw	r16,12(r7)
    593c:	3c00cd26 	beq	r7,r16,5c74 <_malloc_r+0x54c>
    5940:	80800117 	ldw	r2,4(r16)
    5944:	1244703a 	and	r2,r2,r9
    5948:	1447c83a 	sub	r3,r2,r17
    594c:	19400408 	cmpgei	r5,r3,16
    5950:	2800081e 	bne	r5,zero,5974 <_malloc_r+0x24c>
    5954:	1800cc0e 	bge	r3,zero,5c88 <_malloc_r+0x560>
    5958:	84000317 	ldw	r16,12(r16)
    595c:	3c00c526 	beq	r7,r16,5c74 <_malloc_r+0x54c>
    5960:	80800117 	ldw	r2,4(r16)
    5964:	1244703a 	and	r2,r2,r9
    5968:	1447c83a 	sub	r3,r2,r17
    596c:	19400410 	cmplti	r5,r3,16
    5970:	283ff81e 	bne	r5,zero,5954 <_malloc_r+0x22c>
    5974:	81000317 	ldw	r4,12(r16)
    5978:	81400217 	ldw	r5,8(r16)
    597c:	89800054 	ori	r6,r17,1
    5980:	81800115 	stw	r6,4(r16)
    5984:	29000315 	stw	r4,12(r5)
    5988:	21400215 	stw	r5,8(r4)
    598c:	8463883a 	add	r17,r16,r17
    5990:	9c400515 	stw	r17,20(r19)
    5994:	9c400415 	stw	r17,16(r19)
    5998:	19000054 	ori	r4,r3,1
    599c:	89000115 	stw	r4,4(r17)
    59a0:	8085883a 	add	r2,r16,r2
    59a4:	8a000315 	stw	r8,12(r17)
    59a8:	8a000215 	stw	r8,8(r17)
    59ac:	10c00015 	stw	r3,0(r2)
